
/Users/talalagedeon/Desktop/particlePDP/shortproject/target/3.0.0/argon/shortproject.elf:     file format elf32-littlearm

Sections:
Idx Name          Size      VMA       LMA       File off  Algn
  0 .module_info  00000018  000d4000  000d4000  00004000  2**0
                  CONTENTS, ALLOC, LOAD, READONLY, DATA
  1 .dynalib      00000004  000d4018  000d4018  00004018  2**2
                  CONTENTS, ALLOC, LOAD, READONLY, DATA
  2 .text         00009100  000d4020  000d4020  00004020  2**3
                  CONTENTS, ALLOC, LOAD, READONLY, CODE
  3 .ARM.exidx    00000008  000dd120  000dd120  0000d120  2**2
                  CONTENTS, ALLOC, LOAD, READONLY, DATA
  4 .backup       00000004  2003f400  000dd128  0000f400  2**2
                  CONTENTS, ALLOC, LOAD, DATA
  5 .data         000001e8  2003e288  000dd12c  0001e288  2**2
                  CONTENTS, ALLOC, LOAD, DATA
  6 .bss          00000380  2003e470  2003e470  0002e470  2**2
                  ALLOC
  7 .module_info_suffix 00000028  000dd314  000dd314  0002d314  2**0
                  CONTENTS, ALLOC, LOAD, READONLY, DATA
  8 .module_info_crc 00000004  000dd33c  000dd33c  0002d33c  2**0
                  CONTENTS, ALLOC, LOAD, READONLY, DATA
  9 .debug_info   00286512  00000000  00000000  0002d340  2**0
                  CONTENTS, READONLY, DEBUGGING
 10 .debug_abbrev 000251ad  00000000  00000000  002b3852  2**0
                  CONTENTS, READONLY, DEBUGGING
 11 .debug_loc    0004714f  00000000  00000000  002d89ff  2**0
                  CONTENTS, READONLY, DEBUGGING
 12 .debug_aranges 00003690  00000000  00000000  0031fb4e  2**0
                  CONTENTS, READONLY, DEBUGGING
 13 .debug_ranges 0000b8c0  00000000  00000000  003231de  2**0
                  CONTENTS, READONLY, DEBUGGING
 14 .debug_macro  00046b19  00000000  00000000  0032ea9e  2**0
                  CONTENTS, READONLY, DEBUGGING
 15 .debug_line   0005d42d  00000000  00000000  003755b7  2**0
                  CONTENTS, READONLY, DEBUGGING
 16 .debug_str    00142162  00000000  00000000  003d29e4  2**0
                  CONTENTS, READONLY, DEBUGGING
 17 .debug_frame  0000a6ac  00000000  00000000  00514b48  2**2
                  CONTENTS, READONLY, DEBUGGING

Disassembly of section .text:

000d4020 <module_user_pre_init>:
/**
 * Initializes this user module. Returns the start of the heap.
 */
void* module_user_pre_init() {

    if ( (&link_global_data_start!=&link_global_data_initial_values) && (link_global_data_size != 0))
   d4020:	4809      	ldr	r0, [pc, #36]	; (d4048 <module_user_pre_init+0x28>)
   d4022:	490a      	ldr	r1, [pc, #40]	; (d404c <module_user_pre_init+0x2c>)
   d4024:	4288      	cmp	r0, r1
void* module_user_pre_init() {
   d4026:	b508      	push	{r3, lr}
    if ( (&link_global_data_start!=&link_global_data_initial_values) && (link_global_data_size != 0))
   d4028:	d005      	beq.n	d4036 <module_user_pre_init+0x16>
   d402a:	4a09      	ldr	r2, [pc, #36]	; (d4050 <module_user_pre_init+0x30>)
   d402c:	4282      	cmp	r2, r0
   d402e:	d002      	beq.n	d4036 <module_user_pre_init+0x16>
    {
        memcpy(&link_global_data_start, &link_global_data_initial_values, link_global_data_size);
   d4030:	1a12      	subs	r2, r2, r0
   d4032:	f006 f98f 	bl	da354 <memcpy>
    }

    memset(&link_bss_location, 0, link_bss_size );
   d4036:	4807      	ldr	r0, [pc, #28]	; (d4054 <module_user_pre_init+0x34>)
   d4038:	4a07      	ldr	r2, [pc, #28]	; (d4058 <module_user_pre_init+0x38>)
   d403a:	2100      	movs	r1, #0
   d403c:	1a12      	subs	r2, r2, r0
   d403e:	f006 f9b1 	bl	da3a4 <memset>
    return &link_global_data_start;
}
   d4042:	4801      	ldr	r0, [pc, #4]	; (d4048 <module_user_pre_init+0x28>)
   d4044:	bd08      	pop	{r3, pc}
   d4046:	bf00      	nop
   d4048:	2003e288 	.word	0x2003e288
   d404c:	000dd12c 	.word	0x000dd12c
   d4050:	2003e470 	.word	0x2003e470
   d4054:	2003e470 	.word	0x2003e470
   d4058:	2003e7f0 	.word	0x2003e7f0

000d405c <module_user_init>:
extern constructor_ptr_t link_constructors_location[];
extern constructor_ptr_t link_constructors_end;
#define link_constructors_size   ((unsigned long)&link_constructors_end  -  (unsigned long)&link_constructors_location )

void module_user_init()
{
   d405c:	b570      	push	{r4, r5, r6, lr}
    module_user_init_hook();

    // invoke constructors
    int ctor_num;
    for (ctor_num=0; ctor_num < link_constructors_size/sizeof(constructor_ptr_t); ctor_num++ )
   d405e:	4e07      	ldr	r6, [pc, #28]	; (d407c <module_user_init+0x20>)
   d4060:	4c07      	ldr	r4, [pc, #28]	; (d4080 <module_user_init+0x24>)
    module_user_init_hook();
   d4062:	f005 f849 	bl	d90f8 <module_user_init_hook>
    for (ctor_num=0; ctor_num < link_constructors_size/sizeof(constructor_ptr_t); ctor_num++ )
   d4066:	1ba4      	subs	r4, r4, r6
   d4068:	08a4      	lsrs	r4, r4, #2
   d406a:	2500      	movs	r5, #0
   d406c:	42a5      	cmp	r5, r4
   d406e:	d100      	bne.n	d4072 <module_user_init+0x16>
    {
        link_constructors_location[ctor_num]();
    }
}
   d4070:	bd70      	pop	{r4, r5, r6, pc}
        link_constructors_location[ctor_num]();
   d4072:	f856 3b04 	ldr.w	r3, [r6], #4
   d4076:	4798      	blx	r3
    for (ctor_num=0; ctor_num < link_constructors_size/sizeof(constructor_ptr_t); ctor_num++ )
   d4078:	3501      	adds	r5, #1
   d407a:	e7f7      	b.n	d406c <module_user_init+0x10>
   d407c:	000dd0dc 	.word	0x000dd0dc
   d4080:	000dd114 	.word	0x000dd114

000d4084 <module_user_setup>:

/**
 * Export these functions with a fuller name so they don't clash with the setup/loop wrappers in the system module.
 */
void module_user_setup() {
    setup();
   d4084:	f000 b914 	b.w	d42b0 <setup>

000d4088 <module_user_loop>:
}

void module_user_loop() {
   d4088:	b508      	push	{r3, lr}
    loop();
   d408a:	f000 f9f5 	bl	d4478 <loop>
    _post_loop();
}
   d408e:	e8bd 4008 	ldmia.w	sp!, {r3, lr}
    _post_loop();
   d4092:	f004 bff3 	b.w	d907c <_post_loop>

000d4096 <_Znwj>:
 * Implement C++ new/delete operators using the heap
 */

void *operator new(size_t size)
{
	return malloc(size);
   d4096:	f002 bf69 	b.w	d6f6c <malloc>

000d409a <_Znaj>:
   d409a:	f002 bf67 	b.w	d6f6c <malloc>

000d409e <_ZdlPv>:
	return malloc(size);
}

void operator delete(void *p)
{
	free(p);
   d409e:	f002 bf6d 	b.w	d6f7c <free>

000d40a2 <_ZdaPv>:
   d40a2:	f002 bf6b 	b.w	d6f7c <free>

000d40a6 <__cxa_guard_acquire>:

/* Provide default implemenation for __cxa_guard_acquire() and
 * __cxa_guard_release(). Note: these must be revisited if a multitasking
 * OS is ported to this platform. */
__extension__ typedef int __guard __attribute__((mode (__DI__)));
int __cxa_guard_acquire(__guard *g) {return !*(char *)(g);};
   d40a6:	7800      	ldrb	r0, [r0, #0]
   d40a8:	fab0 f080 	clz	r0, r0
   d40ac:	0940      	lsrs	r0, r0, #5
   d40ae:	4770      	bx	lr

000d40b0 <__cxa_guard_release>:
void __cxa_guard_release (__guard *g) {*(char *)g = 1;};
   d40b0:	2301      	movs	r3, #1
   d40b2:	7003      	strb	r3, [r0, #0]
   d40b4:	4770      	bx	lr
	...

000d40b8 <_Z16outdoorHeatIndexff>:
                           (c9 * (temp * temp) * (humidity * humidity));

  return heatIndex;
}   

double outdoorHeatIndex (float tempOutdoor, float humidityOutdoor) {
   d40b8:	e92d 4ff8 	stmdb	sp!, {r3, r4, r5, r6, r7, r8, r9, sl, fp, lr}
    const double c6 = -0.05481717;
    const double c7 = 0.00122874;
    const double c8 = 0.00085282;
    const double c9 = -0.00000199;

    double outHeatIndex = c1 + (c2 * tempOutdoor) +
   d40bc:	ee10 0a10 	vmov	r0, s0
double outdoorHeatIndex (float tempOutdoor, float humidityOutdoor) {
   d40c0:	ed2d 8b02 	vpush	{d8}
   d40c4:	eeb0 8a60 	vmov.f32	s16, s1
   d40c8:	eef0 8a40 	vmov.f32	s17, s0
    double outHeatIndex = c1 + (c2 * tempOutdoor) +
   d40cc:	f005 fc2c 	bl	d9928 <__aeabi_f2d>
   d40d0:	4606      	mov	r6, r0
                           (c3 * humidityOutdoor) +
   d40d2:	ee18 0a10 	vmov	r0, s16
    double outHeatIndex = c1 + (c2 * tempOutdoor) +
   d40d6:	460f      	mov	r7, r1
                           (c3 * humidityOutdoor) +
   d40d8:	f005 fc26 	bl	d9928 <__aeabi_f2d>
                           (c4 * tempOutdoor*humidityOutdoor) + 
                           (c5 * (tempOutdoor*tempOutdoor)) +
   d40dc:	ee68 7aa8 	vmul.f32	s15, s17, s17
                           (c3 * humidityOutdoor) +
   d40e0:	4682      	mov	sl, r0
                           (c5 * (tempOutdoor*tempOutdoor)) +
   d40e2:	ee17 0a90 	vmov	r0, s15
                           (c3 * humidityOutdoor) +
   d40e6:	468b      	mov	fp, r1
                           (c5 * (tempOutdoor*tempOutdoor)) +
   d40e8:	f005 fc1e 	bl	d9928 <__aeabi_f2d>
                           (c6 * (humidityOutdoor * humidityOutdoor)) +
   d40ec:	ee68 7a08 	vmul.f32	s15, s16, s16
                           (c5 * (tempOutdoor*tempOutdoor)) +
   d40f0:	4604      	mov	r4, r0
                           (c6 * (humidityOutdoor * humidityOutdoor)) +
   d40f2:	ee17 0a90 	vmov	r0, s15
                           (c5 * (tempOutdoor*tempOutdoor)) +
   d40f6:	460d      	mov	r5, r1
                           (c6 * (humidityOutdoor * humidityOutdoor)) +
   d40f8:	f005 fc16 	bl	d9928 <__aeabi_f2d>
    double outHeatIndex = c1 + (c2 * tempOutdoor) +
   d40fc:	a346      	add	r3, pc, #280	; (adr r3, d4218 <_Z16outdoorHeatIndexff+0x160>)
   d40fe:	e9d3 2300 	ldrd	r2, r3, [r3]
                           (c6 * (humidityOutdoor * humidityOutdoor)) +
   d4102:	ec41 0b18 	vmov	d8, r0, r1
    double outHeatIndex = c1 + (c2 * tempOutdoor) +
   d4106:	4630      	mov	r0, r6
   d4108:	4639      	mov	r1, r7
   d410a:	f005 fc65 	bl	d99d8 <__aeabi_dmul>
   d410e:	a344      	add	r3, pc, #272	; (adr r3, d4220 <_Z16outdoorHeatIndexff+0x168>)
   d4110:	e9d3 2300 	ldrd	r2, r3, [r3]
   d4114:	f005 faa8 	bl	d9668 <__aeabi_dsub>
                           (c3 * humidityOutdoor) +
   d4118:	a343      	add	r3, pc, #268	; (adr r3, d4228 <_Z16outdoorHeatIndexff+0x170>)
   d411a:	e9d3 2300 	ldrd	r2, r3, [r3]
    double outHeatIndex = c1 + (c2 * tempOutdoor) +
   d411e:	4680      	mov	r8, r0
   d4120:	4689      	mov	r9, r1
                           (c3 * humidityOutdoor) +
   d4122:	4650      	mov	r0, sl
   d4124:	4659      	mov	r1, fp
   d4126:	f005 fc57 	bl	d99d8 <__aeabi_dmul>
   d412a:	4602      	mov	r2, r0
   d412c:	460b      	mov	r3, r1
    double outHeatIndex = c1 + (c2 * tempOutdoor) +
   d412e:	4640      	mov	r0, r8
   d4130:	4649      	mov	r1, r9
   d4132:	f005 fa9b 	bl	d966c <__adddf3>
                           (c4 * tempOutdoor*humidityOutdoor) + 
   d4136:	a33e      	add	r3, pc, #248	; (adr r3, d4230 <_Z16outdoorHeatIndexff+0x178>)
   d4138:	e9d3 2300 	ldrd	r2, r3, [r3]
    double outHeatIndex = c1 + (c2 * tempOutdoor) +
   d413c:	4680      	mov	r8, r0
   d413e:	4689      	mov	r9, r1
                           (c4 * tempOutdoor*humidityOutdoor) + 
   d4140:	4630      	mov	r0, r6
   d4142:	4639      	mov	r1, r7
   d4144:	f005 fc48 	bl	d99d8 <__aeabi_dmul>
   d4148:	4652      	mov	r2, sl
   d414a:	465b      	mov	r3, fp
   d414c:	f005 fc44 	bl	d99d8 <__aeabi_dmul>
   d4150:	4602      	mov	r2, r0
   d4152:	460b      	mov	r3, r1
                           (c3 * humidityOutdoor) +
   d4154:	4640      	mov	r0, r8
   d4156:	4649      	mov	r1, r9
   d4158:	f005 fa88 	bl	d966c <__adddf3>
                           (c5 * (tempOutdoor*tempOutdoor)) +
   d415c:	a336      	add	r3, pc, #216	; (adr r3, d4238 <_Z16outdoorHeatIndexff+0x180>)
   d415e:	e9d3 2300 	ldrd	r2, r3, [r3]
                           (c3 * humidityOutdoor) +
   d4162:	4680      	mov	r8, r0
   d4164:	4689      	mov	r9, r1
                           (c5 * (tempOutdoor*tempOutdoor)) +
   d4166:	4620      	mov	r0, r4
   d4168:	4629      	mov	r1, r5
   d416a:	f005 fc35 	bl	d99d8 <__aeabi_dmul>
   d416e:	4602      	mov	r2, r0
   d4170:	460b      	mov	r3, r1
                           (c4 * tempOutdoor*humidityOutdoor) + 
   d4172:	4640      	mov	r0, r8
   d4174:	4649      	mov	r1, r9
   d4176:	f005 fa79 	bl	d966c <__adddf3>
                           (c6 * (humidityOutdoor * humidityOutdoor)) +
   d417a:	a331      	add	r3, pc, #196	; (adr r3, d4240 <_Z16outdoorHeatIndexff+0x188>)
   d417c:	e9d3 2300 	ldrd	r2, r3, [r3]
                           (c4 * tempOutdoor*humidityOutdoor) + 
   d4180:	4680      	mov	r8, r0
   d4182:	4689      	mov	r9, r1
                           (c6 * (humidityOutdoor * humidityOutdoor)) +
   d4184:	ec51 0b18 	vmov	r0, r1, d8
   d4188:	f005 fc26 	bl	d99d8 <__aeabi_dmul>
   d418c:	4602      	mov	r2, r0
   d418e:	460b      	mov	r3, r1
                           (c5 * (tempOutdoor*tempOutdoor)) +
   d4190:	4640      	mov	r0, r8
   d4192:	4649      	mov	r1, r9
   d4194:	f005 fa6a 	bl	d966c <__adddf3>
                           (c7 * (tempOutdoor * tempOutdoor) * humidityOutdoor) + 
   d4198:	a32b      	add	r3, pc, #172	; (adr r3, d4248 <_Z16outdoorHeatIndexff+0x190>)
   d419a:	e9d3 2300 	ldrd	r2, r3, [r3]
                           (c5 * (tempOutdoor*tempOutdoor)) +
   d419e:	4680      	mov	r8, r0
   d41a0:	4689      	mov	r9, r1
                           (c7 * (tempOutdoor * tempOutdoor) * humidityOutdoor) + 
   d41a2:	4620      	mov	r0, r4
   d41a4:	4629      	mov	r1, r5
   d41a6:	f005 fc17 	bl	d99d8 <__aeabi_dmul>
   d41aa:	4652      	mov	r2, sl
   d41ac:	465b      	mov	r3, fp
   d41ae:	f005 fc13 	bl	d99d8 <__aeabi_dmul>
   d41b2:	4602      	mov	r2, r0
   d41b4:	460b      	mov	r3, r1
                           (c6 * (humidityOutdoor * humidityOutdoor)) +
   d41b6:	4640      	mov	r0, r8
   d41b8:	4649      	mov	r1, r9
   d41ba:	f005 fa57 	bl	d966c <__adddf3>
                           (c8 * tempOutdoor * (humidityOutdoor * humidityOutdoor)) +
   d41be:	a324      	add	r3, pc, #144	; (adr r3, d4250 <_Z16outdoorHeatIndexff+0x198>)
   d41c0:	e9d3 2300 	ldrd	r2, r3, [r3]
                           (c6 * (humidityOutdoor * humidityOutdoor)) +
   d41c4:	4680      	mov	r8, r0
   d41c6:	4689      	mov	r9, r1
                           (c8 * tempOutdoor * (humidityOutdoor * humidityOutdoor)) +
   d41c8:	4630      	mov	r0, r6
   d41ca:	4639      	mov	r1, r7
   d41cc:	f005 fc04 	bl	d99d8 <__aeabi_dmul>
   d41d0:	ec53 2b18 	vmov	r2, r3, d8
   d41d4:	f005 fc00 	bl	d99d8 <__aeabi_dmul>
   d41d8:	4602      	mov	r2, r0
   d41da:	460b      	mov	r3, r1
                           (c7 * (tempOutdoor * tempOutdoor) * humidityOutdoor) + 
   d41dc:	4640      	mov	r0, r8
   d41de:	4649      	mov	r1, r9
   d41e0:	f005 fa44 	bl	d966c <__adddf3>
                           (c9 * (tempOutdoor * tempOutdoor) * (humidityOutdoor * humidityOutdoor));
   d41e4:	a31c      	add	r3, pc, #112	; (adr r3, d4258 <_Z16outdoorHeatIndexff+0x1a0>)
   d41e6:	e9d3 2300 	ldrd	r2, r3, [r3]
                           (c7 * (tempOutdoor * tempOutdoor) * humidityOutdoor) + 
   d41ea:	4606      	mov	r6, r0
   d41ec:	460f      	mov	r7, r1
                           (c9 * (tempOutdoor * tempOutdoor) * (humidityOutdoor * humidityOutdoor));
   d41ee:	4620      	mov	r0, r4
   d41f0:	4629      	mov	r1, r5
   d41f2:	f005 fbf1 	bl	d99d8 <__aeabi_dmul>
   d41f6:	ec53 2b18 	vmov	r2, r3, d8
   d41fa:	f005 fbed 	bl	d99d8 <__aeabi_dmul>
   d41fe:	4602      	mov	r2, r0
   d4200:	460b      	mov	r3, r1
    double outHeatIndex = c1 + (c2 * tempOutdoor) +
   d4202:	4630      	mov	r0, r6
   d4204:	4639      	mov	r1, r7
   d4206:	f005 fa31 	bl	d966c <__adddf3>

  return outHeatIndex;
   d420a:	ecbd 8b02 	vpop	{d8}
   d420e:	ec41 0b10 	vmov	d0, r0, r1
   d4212:	e8bd 8ff8 	ldmia.w	sp!, {r3, r4, r5, r6, r7, r8, r9, sl, fp, pc}
   d4216:	bf00      	nop
   d4218:	18ced8ec 	.word	0x18ced8ec
   d421c:	40006462 	.word	0x40006462
   d4220:	126e978d 	.word	0x126e978d
   d4224:	40453083 	.word	0x40453083
   d4228:	b75a49cd 	.word	0xb75a49cd
   d422c:	40244962 	.word	0x40244962
   d4230:	07c647f8 	.word	0x07c647f8
   d4234:	bfccc4c9 	.word	0xbfccc4c9
   d4238:	039c16cc 	.word	0x039c16cc
   d423c:	bf7c01fc 	.word	0xbf7c01fc
   d4240:	00d18c24 	.word	0x00d18c24
   d4244:	bfac10ff 	.word	0xbfac10ff
   d4248:	8760dce5 	.word	0x8760dce5
   d424c:	3f5421b5 	.word	0x3f5421b5
   d4250:	013330da 	.word	0x013330da
   d4254:	3f4bf1f9 	.word	0x3f4bf1f9
   d4258:	11d3bd01 	.word	0x11d3bd01
   d425c:	bec0b17e 	.word	0xbec0b17e

000d4260 <_Z15indoorHeatIndexff>:
   d4260:	f7ff bf2a 	b.w	d40b8 <_Z16outdoorHeatIndexff>

000d4264 <_ZN10CloudClass7publishEPKcS1_.isra.0>:

inline particle::Future<bool> CloudClass::publish(const char* name) {
    return publish(name, PUBLIC);
}

inline particle::Future<bool> CloudClass::publish(const char* name, const char* data) {
   d4264:	b513      	push	{r0, r1, r4, lr}
   d4266:	4b05      	ldr	r3, [pc, #20]	; (d427c <_ZN10CloudClass7publishEPKcS1_.isra.0+0x18>)
   d4268:	781b      	ldrb	r3, [r3, #0]
        return publish_event(eventName, eventData, ttl, flags1 | flags2);
   d426a:	f88d 3000 	strb.w	r3, [sp]
   d426e:	233c      	movs	r3, #60	; 0x3c
inline particle::Future<bool> CloudClass::publish(const char* name, const char* data) {
   d4270:	4604      	mov	r4, r0
        return publish_event(eventName, eventData, ttl, flags1 | flags2);
   d4272:	f003 f827 	bl	d72c4 <_ZN10CloudClass13publish_eventEPKcS1_iN8particle5FlagsI15PublishFlagTypehEE>
    return publish(name, data, PUBLIC);
}
   d4276:	4620      	mov	r0, r4
   d4278:	b002      	add	sp, #8
   d427a:	bd10      	pop	{r4, pc}
   d427c:	2003e474 	.word	0x2003e474

000d4280 <_ZNK5spark6Logger4infoEPKcz>:
    va_start(args, fmt);
    log(LOG_LEVEL_TRACE, fmt, args);
    va_end(args);
}

inline void spark::Logger::info(const char *fmt, ...) const {
   d4280:	b40e      	push	{r1, r2, r3}
   d4282:	b510      	push	{r4, lr}
   d4284:	b08d      	sub	sp, #52	; 0x34
   d4286:	aa0f      	add	r2, sp, #60	; 0x3c
    va_list args;
    va_start(args, fmt);
    log(LOG_LEVEL_INFO, fmt, args);
   d4288:	6801      	ldr	r1, [r0, #0]
inline void spark::Logger::info(const char *fmt, ...) const {
   d428a:	f852 4b04 	ldr.w	r4, [r2], #4
    va_start(args, fmt);
   d428e:	9203      	str	r2, [sp, #12]
}

inline void spark::Logger::log(LogLevel level, const char *fmt, va_list args) const {
    LogAttributes attr;
    attr.size = sizeof(LogAttributes);
    attr.flags = 0;
   d4290:	2300      	movs	r3, #0
   d4292:	2020      	movs	r0, #32
   d4294:	e9cd 0304 	strd	r0, r3, [sp, #16]
    log_message_v(level, name_, &attr, nullptr, fmt, args);
   d4298:	e9cd 4200 	strd	r4, r2, [sp]
   d429c:	201e      	movs	r0, #30
   d429e:	aa04      	add	r2, sp, #16
   d42a0:	f002 fd98 	bl	d6dd4 <log_message_v>
}
   d42a4:	b00d      	add	sp, #52	; 0x34
   d42a6:	e8bd 4010 	ldmia.w	sp!, {r4, lr}
   d42aa:	b003      	add	sp, #12
   d42ac:	4770      	bx	lr
	...

000d42b0 <setup>:
void setup() {
   d42b0:	b510      	push	{r4, lr}
   d42b2:	b08a      	sub	sp, #40	; 0x28
  Serial.begin(9600);
   d42b4:	f004 fe1c 	bl	d8ef0 <_Z16_fetch_usbserialv>
   d42b8:	f44f 5116 	mov.w	r1, #9600	; 0x2580
   d42bc:	f004 fe0c 	bl	d8ed8 <_ZN9USBSerial5beginEl>
  Serial.println("DHT11 test");
   d42c0:	f004 fe16 	bl	d8ef0 <_Z16_fetch_usbserialv>
   d42c4:	4927      	ldr	r1, [pc, #156]	; (d4364 <setup+0xb4>)
  SeeedOled.init();
   d42c6:	4c28      	ldr	r4, [pc, #160]	; (d4368 <setup+0xb8>)
  Serial.println("DHT11 test");
   d42c8:	f003 fdf5 	bl	d7eb6 <_ZN5Print7printlnEPKc>
  dht.begin();
   d42cc:	4827      	ldr	r0, [pc, #156]	; (d436c <setup+0xbc>)
   d42ce:	f000 faf3 	bl	d48b8 <_ZN3DHT5beginEv>
  leds.init();
   d42d2:	4827      	ldr	r0, [pc, #156]	; (d4370 <setup+0xc0>)
   d42d4:	f000 fdd4 	bl	d4e80 <_ZN12ChainableLED4initEv>
  Wire.begin();
   d42d8:	f004 ffc0 	bl	d925c <_Z19__fetch_global_Wirev>
   d42dc:	f003 f9e4 	bl	d76a8 <_ZN7TwoWire5beginEv>
  SeeedOled.init();
   d42e0:	4620      	mov	r0, r4
   d42e2:	f000 fe03 	bl	d4eec <_ZN9SeeedOLED4initEv>
  SeeedOled.clearDisplay();
   d42e6:	4620      	mov	r0, r4
   d42e8:	f000 fe62 	bl	d4fb0 <_ZN9SeeedOLED12clearDisplayEv>
  SeeedOled.setNormalDisplay();
   d42ec:	4620      	mov	r0, r4
   d42ee:	f000 fec4 	bl	d507a <_ZN9SeeedOLED16setNormalDisplayEv>
  SeeedOled.setPageMode();
   d42f2:	4620      	mov	r0, r4
   d42f4:	f000 fe0c 	bl	d4f10 <_ZN9SeeedOLED11setPageModeEv>
  SeeedOled.setTextXY(2, 0);
   d42f8:	2200      	movs	r2, #0
   d42fa:	4620      	mov	r0, r4
   d42fc:	2102      	movs	r1, #2
   d42fe:	f000 fe12 	bl	d4f26 <_ZN9SeeedOLED9setTextXYEhh>
  SeeedOled.putString("Particle");
   d4302:	4620      	mov	r0, r4
   d4304:	491b      	ldr	r1, [pc, #108]	; (d4374 <setup+0xc4>)
   d4306:	f000 fe74 	bl	d4ff2 <_ZN9SeeedOLED9putStringEPKc>
  SeeedOled.setTextXY(3, 0);
   d430a:	2200      	movs	r2, #0
   d430c:	4620      	mov	r0, r4
   d430e:	2103      	movs	r1, #3
   d4310:	f000 fe09 	bl	d4f26 <_ZN9SeeedOLED9setTextXYEhh>
  SeeedOled.putString("Weather");
   d4314:	4620      	mov	r0, r4
   d4316:	4918      	ldr	r1, [pc, #96]	; (d4378 <setup+0xc8>)
   d4318:	f000 fe6b 	bl	d4ff2 <_ZN9SeeedOLED9putStringEPKc>
  SeeedOled.setTextXY(4, 0);
   d431c:	2200      	movs	r2, #0
   d431e:	4620      	mov	r0, r4
   d4320:	2104      	movs	r1, #4
   d4322:	f000 fe00 	bl	d4f26 <_ZN9SeeedOLED9setTextXYEhh>
  SeeedOled.putString("Station");
   d4326:	4915      	ldr	r1, [pc, #84]	; (d437c <setup+0xcc>)
   d4328:	4620      	mov	r0, r4
   d432a:	f000 fe62 	bl	d4ff2 <_ZN9SeeedOLED9putStringEPKc>
    inline static SleepResult sleep(const pin_t* pins, size_t pinsSize, const InterruptMode* edgeTriggerMode, size_t edgeTriggerModeSize, SleepOptionFlags flag, std::chrono::seconds s) {
        return sleep(pins, pinsSize, edgeTriggerMode, edgeTriggerModeSize, flag, s.count());
    }

    static String deviceID(void) {
        return spark_deviceID();
   d432e:	a802      	add	r0, sp, #8
   d4330:	f002 fd9c 	bl	d6e6c <spark_deviceID>
};

class StringSumHelper : public String
{
public:
	StringSumHelper(const String &s) : String(s) {}
   d4334:	a902      	add	r1, sp, #8
   d4336:	a806      	add	r0, sp, #24
   d4338:	f003 febc 	bl	d80b4 <_ZN6StringC1ERKS_>
  Particle.subscribe(System.deviceID() + "/GetWeatherForecast/", setCurrentWeather, MY_DEVICES);
   d433c:	4910      	ldr	r1, [pc, #64]	; (d4380 <setup+0xd0>)
   d433e:	a806      	add	r0, sp, #24
   d4340:	f003 ff1a 	bl	d8178 <_ZplRK15StringSumHelperPKc>
        return spark_subscribe(eventName, handler, NULL, scope, NULL, NULL);
   d4344:	2300      	movs	r3, #0
   d4346:	e9cd 3300 	strd	r3, r3, [sp]
   d434a:	490e      	ldr	r1, [pc, #56]	; (d4384 <setup+0xd4>)
   d434c:	6800      	ldr	r0, [r0, #0]
   d434e:	461a      	mov	r2, r3
   d4350:	f002 fd9c 	bl	d6e8c <spark_subscribe>
class StringSumHelper : public String
   d4354:	a806      	add	r0, sp, #24
   d4356:	f003 fe53 	bl	d8000 <_ZN6StringD1Ev>
   d435a:	a802      	add	r0, sp, #8
   d435c:	f003 fe50 	bl	d8000 <_ZN6StringD1Ev>
}
   d4360:	b00a      	add	sp, #40	; 0x28
   d4362:	bd10      	pop	{r4, pc}
   d4364:	000dc1e4 	.word	0x000dc1e4
   d4368:	2003e4a8 	.word	0x2003e4a8
   d436c:	2003e478 	.word	0x2003e478
   d4370:	2003e48c 	.word	0x2003e48c
   d4374:	000dc1ef 	.word	0x000dc1ef
   d4378:	000dc1f8 	.word	0x000dc1f8
   d437c:	000dc200 	.word	0x000dc200
   d4380:	000dc208 	.word	0x000dc208
   d4384:	000d468d 	.word	0x000d468d

000d4388 <_Z13updateDisplayiiii>:
{
   d4388:	e92d 41f0 	stmdb	sp!, {r4, r5, r6, r7, r8, lr}
  SeeedOled.clearDisplay(), 
   d438c:	4c28      	ldr	r4, [pc, #160]	; (d4430 <_Z13updateDisplayiiii+0xa8>)
{
   d438e:	4680      	mov	r8, r0
  SeeedOled.clearDisplay(), 
   d4390:	4620      	mov	r0, r4
{
   d4392:	461d      	mov	r5, r3
   d4394:	460f      	mov	r7, r1
   d4396:	4616      	mov	r6, r2
  SeeedOled.clearDisplay(), 
   d4398:	f000 fe0a 	bl	d4fb0 <_ZN9SeeedOLED12clearDisplayEv>
  SeeedOled.setTextXY(1, 0);
   d439c:	2200      	movs	r2, #0
   d439e:	4620      	mov	r0, r4
   d43a0:	2101      	movs	r1, #1
   d43a2:	f000 fdc0 	bl	d4f26 <_ZN9SeeedOLED9setTextXYEhh>
  SeeedOled.putString("Indoor Temp: ");
   d43a6:	4620      	mov	r0, r4
   d43a8:	4922      	ldr	r1, [pc, #136]	; (d4434 <_Z13updateDisplayiiii+0xac>)
   d43aa:	f000 fe22 	bl	d4ff2 <_ZN9SeeedOLED9putStringEPKc>
  SeeedOled.putNumber(temp);
   d43ae:	4641      	mov	r1, r8
  SeeedOled.putString("F");
   d43b0:	f8df 8094 	ldr.w	r8, [pc, #148]	; d4448 <_Z13updateDisplayiiii+0xc0>
  SeeedOled.putNumber(temp);
   d43b4:	4620      	mov	r0, r4
   d43b6:	f000 fe29 	bl	d500c <_ZN9SeeedOLED9putNumberEl>
  SeeedOled.putString("F");
   d43ba:	4641      	mov	r1, r8
   d43bc:	4620      	mov	r0, r4
   d43be:	f000 fe18 	bl	d4ff2 <_ZN9SeeedOLED9putStringEPKc>
  SeeedOled.setTextXY(2, 0);
   d43c2:	2200      	movs	r2, #0
   d43c4:	4620      	mov	r0, r4
   d43c6:	2102      	movs	r1, #2
   d43c8:	f000 fdad 	bl	d4f26 <_ZN9SeeedOLED9setTextXYEhh>
  SeeedOled.putString("Indoor Humd: ");
   d43cc:	4620      	mov	r0, r4
   d43ce:	491a      	ldr	r1, [pc, #104]	; (d4438 <_Z13updateDisplayiiii+0xb0>)
   d43d0:	f000 fe0f 	bl	d4ff2 <_ZN9SeeedOLED9putStringEPKc>
  SeeedOled.putNumber(humidity);
   d43d4:	4639      	mov	r1, r7
  SeeedOled.putString("%");
   d43d6:	4f19      	ldr	r7, [pc, #100]	; (d443c <_Z13updateDisplayiiii+0xb4>)
  SeeedOled.putNumber(humidity);
   d43d8:	4620      	mov	r0, r4
   d43da:	f000 fe17 	bl	d500c <_ZN9SeeedOLED9putNumberEl>
  SeeedOled.putString("%");
   d43de:	4639      	mov	r1, r7
   d43e0:	4620      	mov	r0, r4
   d43e2:	f000 fe06 	bl	d4ff2 <_ZN9SeeedOLED9putStringEPKc>
  SeeedOled.setTextXY(4, 0);
   d43e6:	2200      	movs	r2, #0
   d43e8:	4620      	mov	r0, r4
   d43ea:	2104      	movs	r1, #4
   d43ec:	f000 fd9b 	bl	d4f26 <_ZN9SeeedOLED9setTextXYEhh>
  SeeedOled.putString("Otdoor Temp: ");
   d43f0:	4620      	mov	r0, r4
   d43f2:	4913      	ldr	r1, [pc, #76]	; (d4440 <_Z13updateDisplayiiii+0xb8>)
   d43f4:	f000 fdfd 	bl	d4ff2 <_ZN9SeeedOLED9putStringEPKc>
  SeeedOled.putNumber(tempOutdoor);
   d43f8:	4631      	mov	r1, r6
   d43fa:	4620      	mov	r0, r4
   d43fc:	f000 fe06 	bl	d500c <_ZN9SeeedOLED9putNumberEl>
  SeeedOled.putString("F");
   d4400:	4641      	mov	r1, r8
   d4402:	4620      	mov	r0, r4
   d4404:	f000 fdf5 	bl	d4ff2 <_ZN9SeeedOLED9putStringEPKc>
  SeeedOled.setTextXY(5, 0);
   d4408:	2200      	movs	r2, #0
   d440a:	4620      	mov	r0, r4
   d440c:	2105      	movs	r1, #5
   d440e:	f000 fd8a 	bl	d4f26 <_ZN9SeeedOLED9setTextXYEhh>
  SeeedOled.putString("Otdoor Humd: ");
   d4412:	4620      	mov	r0, r4
   d4414:	490b      	ldr	r1, [pc, #44]	; (d4444 <_Z13updateDisplayiiii+0xbc>)
   d4416:	f000 fdec 	bl	d4ff2 <_ZN9SeeedOLED9putStringEPKc>
  SeeedOled.putNumber(humidityOutdoor);
   d441a:	4629      	mov	r1, r5
   d441c:	4620      	mov	r0, r4
   d441e:	f000 fdf5 	bl	d500c <_ZN9SeeedOLED9putNumberEl>
  SeeedOled.putString("%");
   d4422:	4639      	mov	r1, r7
   d4424:	4620      	mov	r0, r4
}
   d4426:	e8bd 41f0 	ldmia.w	sp!, {r4, r5, r6, r7, r8, lr}
  SeeedOled.putString("%");
   d442a:	f000 bde2 	b.w	d4ff2 <_ZN9SeeedOLED9putStringEPKc>
   d442e:	bf00      	nop
   d4430:	2003e4a8 	.word	0x2003e4a8
   d4434:	000dc21d 	.word	0x000dc21d
   d4438:	000dc22b 	.word	0x000dc22b
   d443c:	000dc239 	.word	0x000dc239
   d4440:	000dc23b 	.word	0x000dc23b
   d4444:	000dc249 	.word	0x000dc249
   d4448:	000dc2c7 	.word	0x000dc2c7

000d444c <_ZNSt14__shared_countILN9__gnu_cxx12_Lock_policyE0EED1Ev>:
      explicit __shared_count(const __weak_count<_Lp>& __r);

      // Does not throw if __r._M_get_use_count() == 0, caller must check.
      explicit __shared_count(const __weak_count<_Lp>& __r, std::nothrow_t);

      ~__shared_count() noexcept
   d444c:	b538      	push	{r3, r4, r5, lr}
      {
	if (_M_pi != nullptr)
   d444e:	6804      	ldr	r4, [r0, #0]
      ~__shared_count() noexcept
   d4450:	4605      	mov	r5, r0
	if (_M_pi != nullptr)
   d4452:	b17c      	cbz	r4, d4474 <_ZNSt14__shared_countILN9__gnu_cxx12_Lock_policyE0EED1Ev+0x28>
      if (--_M_use_count == 0)
   d4454:	6863      	ldr	r3, [r4, #4]
   d4456:	3b01      	subs	r3, #1
   d4458:	6063      	str	r3, [r4, #4]
   d445a:	b95b      	cbnz	r3, d4474 <_ZNSt14__shared_countILN9__gnu_cxx12_Lock_policyE0EED1Ev+0x28>
          _M_dispose();
   d445c:	6823      	ldr	r3, [r4, #0]
   d445e:	4620      	mov	r0, r4
   d4460:	689b      	ldr	r3, [r3, #8]
   d4462:	4798      	blx	r3
          if (--_M_weak_count == 0)
   d4464:	68a3      	ldr	r3, [r4, #8]
   d4466:	3b01      	subs	r3, #1
   d4468:	60a3      	str	r3, [r4, #8]
   d446a:	b91b      	cbnz	r3, d4474 <_ZNSt14__shared_countILN9__gnu_cxx12_Lock_policyE0EED1Ev+0x28>
            _M_destroy();
   d446c:	6823      	ldr	r3, [r4, #0]
   d446e:	4620      	mov	r0, r4
   d4470:	68db      	ldr	r3, [r3, #12]
   d4472:	4798      	blx	r3
	  _M_pi->_M_release();
      }
   d4474:	4628      	mov	r0, r5
   d4476:	bd38      	pop	{r3, r4, r5, pc}

000d4478 <loop>:
void loop() {
   d4478:	b530      	push	{r4, r5, lr}
   d447a:	ed2d 8b02 	vpush	{d8}
  delay(50000);
   d447e:	f24c 3050 	movw	r0, #50000	; 0xc350
void loop() {
   d4482:	b089      	sub	sp, #36	; 0x24
  delay(50000);
   d4484:	f002 fdb2 	bl	d6fec <delay>
  float humidity = dht.getHumidity();
   d4488:	4866      	ldr	r0, [pc, #408]	; (d4624 <loop+0x1ac>)
  if (millis() - lastPublish >= publishPeriod) {
   d448a:	4c67      	ldr	r4, [pc, #412]	; (d4628 <loop+0x1b0>)
  float humidity = dht.getHumidity();
   d448c:	f000 fc44 	bl	d4d18 <_ZN3DHT11getHumidityEv>
  float temp = dht.getTempFarenheit();
   d4490:	4864      	ldr	r0, [pc, #400]	; (d4624 <loop+0x1ac>)
  float humidity = dht.getHumidity();
   d4492:	eef0 8a40 	vmov.f32	s17, s0
  float temp = dht.getTempFarenheit();
   d4496:	f000 fc01 	bl	d4c9c <_ZN3DHT16getTempFarenheitEv>
   d449a:	eeb0 8a40 	vmov.f32	s16, s0

#ifdef __cplusplus
extern "C" {
#endif

inline system_tick_t millis(void) { return HAL_Timer_Get_Milli_Seconds(); }
   d449e:	f002 fae9 	bl	d6a74 <HAL_Timer_Get_Milli_Seconds>
  if (millis() - lastPublish >= publishPeriod) {
   d44a2:	6823      	ldr	r3, [r4, #0]
   d44a4:	1ac0      	subs	r0, r0, r3
   d44a6:	4b61      	ldr	r3, [pc, #388]	; (d462c <loop+0x1b4>)
   d44a8:	4298      	cmp	r0, r3
   d44aa:	d90f      	bls.n	d44cc <loop+0x54>
   d44ac:	f002 fae2 	bl	d6a74 <HAL_Timer_Get_Milli_Seconds>
   d44b0:	4b5f      	ldr	r3, [pc, #380]	; (d4630 <loop+0x1b8>)
    lastPublish = millis();
   d44b2:	6020      	str	r0, [r4, #0]
inline particle::Flags<TagT, ValueT>::Flags(Flag<TagT, ValueT> flag) :
        val_(flag.value()) {
}

template<typename TagT, typename ValueT>
inline particle::Flags<TagT, ValueT>::Flags(ValueT val) :
   d44b4:	781b      	ldrb	r3, [r3, #0]
        return publish_event(eventName, eventData, ttl, flags1 | flags2);
   d44b6:	f88d 3000 	strb.w	r3, [sp]
   d44ba:	a804      	add	r0, sp, #16
   d44bc:	495d      	ldr	r1, [pc, #372]	; (d4634 <loop+0x1bc>)
   d44be:	233c      	movs	r3, #60	; 0x3c
   d44c0:	2200      	movs	r2, #0
   d44c2:	f002 feff 	bl	d72c4 <_ZN10CloudClass13publish_eventEPKcS1_iN8particle5FlagsI15PublishFlagTypehEE>
	: _M_ptr(__p), _M_refcount(__r._M_refcount) // never throws
	{ }

      __shared_ptr(const __shared_ptr&) noexcept = default;
      __shared_ptr& operator=(const __shared_ptr&) noexcept = default;
      ~__shared_ptr() = default;
   d44c6:	a805      	add	r0, sp, #20
   d44c8:	f7ff ffc0 	bl	d444c <_ZNSt14__shared_countILN9__gnu_cxx12_Lock_policyE0EED1Ev>
  if (isnan(humidity) || isnan(temp)){
   d44cc:	eef4 8a68 	vcmp.f32	s17, s17
   d44d0:	eef1 fa10 	vmrs	APSR_nzcv, fpscr
   d44d4:	d604      	bvs.n	d44e0 <loop+0x68>
   d44d6:	eeb4 8a48 	vcmp.f32	s16, s16
   d44da:	eef1 fa10 	vmrs	APSR_nzcv, fpscr
   d44de:	d708      	bvc.n	d44f2 <loop+0x7a>
    Serial.println("Failed to read from DHT sensor");
   d44e0:	f004 fd06 	bl	d8ef0 <_Z16_fetch_usbserialv>
   d44e4:	4954      	ldr	r1, [pc, #336]	; (d4638 <loop+0x1c0>)
   d44e6:	f003 fce6 	bl	d7eb6 <_ZN5Print7printlnEPKc>
}
   d44ea:	b009      	add	sp, #36	; 0x24
   d44ec:	ecbd 8b02 	vpop	{d8}
   d44f0:	bd30      	pop	{r4, r5, pc}
  if (indoorHeatIndex > outdoorHeatIndex){
   d44f2:	4d52      	ldr	r5, [pc, #328]	; (d463c <loop+0x1c4>)
   d44f4:	4c52      	ldr	r4, [pc, #328]	; (d4640 <loop+0x1c8>)
   d44f6:	42a5      	cmp	r5, r4
   d44f8:	d906      	bls.n	d4508 <loop+0x90>
  leds.setColorRGB(0,255,0,0);
   d44fa:	2300      	movs	r3, #0
   d44fc:	4851      	ldr	r0, [pc, #324]	; (d4644 <loop+0x1cc>)
   d44fe:	9300      	str	r3, [sp, #0]
   d4500:	22ff      	movs	r2, #255	; 0xff
   d4502:	4619      	mov	r1, r3
   d4504:	f000 fc74 	bl	d4df0 <_ZN12ChainableLED11setColorRGBEhhhh>
  if (indoorHeatIndex < outdoorHeatIndex){
   d4508:	42a5      	cmp	r5, r4
   d450a:	d207      	bcs.n	d451c <loop+0xa4>
    leds.setColorRGB(0,0,0,255);
   d450c:	23ff      	movs	r3, #255	; 0xff
   d450e:	9300      	str	r3, [sp, #0]
   d4510:	2300      	movs	r3, #0
   d4512:	484c      	ldr	r0, [pc, #304]	; (d4644 <loop+0x1cc>)
   d4514:	461a      	mov	r2, r3
   d4516:	4619      	mov	r1, r3
   d4518:	f000 fc6a 	bl	d4df0 <_ZN12ChainableLED11setColorRGBEhhhh>
  updateDisplay(temp, humidity, tempOutdoor, humidityOutdoor);
   d451c:	4c4a      	ldr	r4, [pc, #296]	; (d4648 <loop+0x1d0>)
   d451e:	4d4b      	ldr	r5, [pc, #300]	; (d464c <loop+0x1d4>)
   d4520:	edd4 7a00 	vldr	s15, [r4]
   d4524:	ed95 7a00 	vldr	s14, [r5]
   d4528:	eefd 7ae7 	vcvt.s32.f32	s15, s15
   d452c:	eebd 7ac7 	vcvt.s32.f32	s14, s14
   d4530:	ee17 2a90 	vmov	r2, s15
   d4534:	eefd 7ae8 	vcvt.s32.f32	s15, s17
   d4538:	ee17 3a10 	vmov	r3, s14
   d453c:	ee17 1a90 	vmov	r1, s15
   d4540:	eefd 7ac8 	vcvt.s32.f32	s15, s16
   d4544:	ee17 0a90 	vmov	r0, s15
   d4548:	f7ff ff1e 	bl	d4388 <_Z13updateDisplayiiii>
  ubidots.add("Indoor Temp", temp);
   d454c:	eeb0 0a48 	vmov.f32	s0, s16
   d4550:	493f      	ldr	r1, [pc, #252]	; (d4650 <loop+0x1d8>)
   d4552:	4840      	ldr	r0, [pc, #256]	; (d4654 <loop+0x1dc>)
   d4554:	f002 fa61 	bl	d6a1a <_ZN7Ubidots3addEPcf>
  ubidots.add("Indoor Humidity", humidity);
   d4558:	eeb0 0a68 	vmov.f32	s0, s17
   d455c:	493e      	ldr	r1, [pc, #248]	; (d4658 <loop+0x1e0>)
   d455e:	483d      	ldr	r0, [pc, #244]	; (d4654 <loop+0x1dc>)
   d4560:	f002 fa5b 	bl	d6a1a <_ZN7Ubidots3addEPcf>
  ubidots.add("Outdoor Temp", tempOutdoor);
   d4564:	ed94 0a00 	vldr	s0, [r4]
   d4568:	493c      	ldr	r1, [pc, #240]	; (d465c <loop+0x1e4>)
   d456a:	483a      	ldr	r0, [pc, #232]	; (d4654 <loop+0x1dc>)
   d456c:	f002 fa55 	bl	d6a1a <_ZN7Ubidots3addEPcf>
  ubidots.add("Outdoor Humidity", humidityOutdoor);
   d4570:	ed95 0a00 	vldr	s0, [r5]
   d4574:	493a      	ldr	r1, [pc, #232]	; (d4660 <loop+0x1e8>)
   d4576:	4837      	ldr	r0, [pc, #220]	; (d4654 <loop+0x1dc>)
   d4578:	f002 fa4f 	bl	d6a1a <_ZN7Ubidots3addEPcf>
  bufferSent = ubidots.send(WEBHOOK_NAME, PUBLIC); 
   d457c:	4b39      	ldr	r3, [pc, #228]	; (d4664 <loop+0x1ec>)
   d457e:	4835      	ldr	r0, [pc, #212]	; (d4654 <loop+0x1dc>)
   d4580:	781a      	ldrb	r2, [r3, #0]
   d4582:	4b39      	ldr	r3, [pc, #228]	; (d4668 <loop+0x1f0>)
   d4584:	6819      	ldr	r1, [r3, #0]
   d4586:	f002 fa51 	bl	d6a2c <_ZN7Ubidots4sendEPKcN8particle5FlagsI15PublishFlagTypehEE>
  Particle.publish("TempF",String (temp));
   d458a:	eeb0 0a48 	vmov.f32	s0, s16
   d458e:	2106      	movs	r1, #6
   d4590:	a804      	add	r0, sp, #16
   d4592:	f003 fdac 	bl	d80ee <_ZN6StringC1Efi>
   d4596:	9a04      	ldr	r2, [sp, #16]
   d4598:	4934      	ldr	r1, [pc, #208]	; (d466c <loop+0x1f4>)
   d459a:	a802      	add	r0, sp, #8
   d459c:	f7ff fe62 	bl	d4264 <_ZN10CloudClass7publishEPKcS1_.isra.0>
   d45a0:	a803      	add	r0, sp, #12
   d45a2:	f7ff ff53 	bl	d444c <_ZNSt14__shared_countILN9__gnu_cxx12_Lock_policyE0EED1Ev>
   d45a6:	a804      	add	r0, sp, #16
   d45a8:	f003 fd2a 	bl	d8000 <_ZN6StringD1Ev>
  Particle.publish("Humid", String (humidity));
   d45ac:	eeb0 0a68 	vmov.f32	s0, s17
   d45b0:	2106      	movs	r1, #6
   d45b2:	a804      	add	r0, sp, #16
   d45b4:	f003 fd9b 	bl	d80ee <_ZN6StringC1Efi>
   d45b8:	9a04      	ldr	r2, [sp, #16]
   d45ba:	492d      	ldr	r1, [pc, #180]	; (d4670 <loop+0x1f8>)
   d45bc:	a802      	add	r0, sp, #8
   d45be:	f7ff fe51 	bl	d4264 <_ZN10CloudClass7publishEPKcS1_.isra.0>
   d45c2:	a803      	add	r0, sp, #12
   d45c4:	f7ff ff42 	bl	d444c <_ZNSt14__shared_countILN9__gnu_cxx12_Lock_policyE0EED1Ev>
   d45c8:	a804      	add	r0, sp, #16
   d45ca:	f003 fd19 	bl	d8000 <_ZN6StringD1Ev>
  Particle.publish("Indoor Heat Index",String(indoorHeatIndex(temp, humidity)));
   d45ce:	eef0 0a68 	vmov.f32	s1, s17
   d45d2:	eeb0 0a48 	vmov.f32	s0, s16
   d45d6:	f7ff fd6f 	bl	d40b8 <_Z16outdoorHeatIndexff>
   d45da:	2106      	movs	r1, #6
   d45dc:	a804      	add	r0, sp, #16
   d45de:	f003 fda0 	bl	d8122 <_ZN6StringC1Edi>
   d45e2:	9a04      	ldr	r2, [sp, #16]
   d45e4:	4923      	ldr	r1, [pc, #140]	; (d4674 <loop+0x1fc>)
   d45e6:	a802      	add	r0, sp, #8
   d45e8:	f7ff fe3c 	bl	d4264 <_ZN10CloudClass7publishEPKcS1_.isra.0>
   d45ec:	a803      	add	r0, sp, #12
   d45ee:	f7ff ff2d 	bl	d444c <_ZNSt14__shared_countILN9__gnu_cxx12_Lock_policyE0EED1Ev>
   d45f2:	a804      	add	r0, sp, #16
   d45f4:	f003 fd04 	bl	d8000 <_ZN6StringD1Ev>
  Particle.publish("Outdoor Heat Index",String(outdoorHeatIndex(tempOutdoor, humidityOutdoor)));
   d45f8:	edd5 0a00 	vldr	s1, [r5]
   d45fc:	ed94 0a00 	vldr	s0, [r4]
   d4600:	f7ff fd5a 	bl	d40b8 <_Z16outdoorHeatIndexff>
   d4604:	2106      	movs	r1, #6
   d4606:	a804      	add	r0, sp, #16
   d4608:	f003 fd8b 	bl	d8122 <_ZN6StringC1Edi>
   d460c:	9a04      	ldr	r2, [sp, #16]
   d460e:	491a      	ldr	r1, [pc, #104]	; (d4678 <loop+0x200>)
   d4610:	a802      	add	r0, sp, #8
   d4612:	f7ff fe27 	bl	d4264 <_ZN10CloudClass7publishEPKcS1_.isra.0>
   d4616:	a803      	add	r0, sp, #12
   d4618:	f7ff ff18 	bl	d444c <_ZNSt14__shared_countILN9__gnu_cxx12_Lock_policyE0EED1Ev>
   d461c:	a804      	add	r0, sp, #16
   d461e:	f003 fcef 	bl	d8000 <_ZN6StringD1Ev>
   d4622:	e762      	b.n	d44ea <loop+0x72>
   d4624:	2003e478 	.word	0x2003e478
   d4628:	2003e28c 	.word	0x2003e28c
   d462c:	000dbb9f 	.word	0x000dbb9f
   d4630:	2003e475 	.word	0x2003e475
   d4634:	000dc257 	.word	0x000dc257
   d4638:	000dc26a 	.word	0x000dc26a
   d463c:	000d4261 	.word	0x000d4261
   d4640:	000d40b9 	.word	0x000d40b9
   d4644:	2003e48c 	.word	0x2003e48c
   d4648:	2003e294 	.word	0x2003e294
   d464c:	2003e290 	.word	0x2003e290
   d4650:	000dc289 	.word	0x000dc289
   d4654:	2003e494 	.word	0x2003e494
   d4658:	000dc295 	.word	0x000dc295
   d465c:	000dc2a5 	.word	0x000dc2a5
   d4660:	000dc2b2 	.word	0x000dc2b2
   d4664:	2003e474 	.word	0x2003e474
   d4668:	2003e288 	.word	0x2003e288
   d466c:	000dc2c3 	.word	0x000dc2c3
   d4670:	000dc2c9 	.word	0x000dc2c9
   d4674:	000dc2cf 	.word	0x000dc2cf
   d4678:	000dc2e1 	.word	0x000dc2e1

000d467c <_ZNSt14__shared_countILN9__gnu_cxx12_Lock_policyE0EEC1ERKS2_>:
      : _M_pi(__r._M_pi)
   d467c:	680b      	ldr	r3, [r1, #0]
   d467e:	6003      	str	r3, [r0, #0]
	if (_M_pi != 0)
   d4680:	b113      	cbz	r3, d4688 <_ZNSt14__shared_countILN9__gnu_cxx12_Lock_policyE0EEC1ERKS2_+0xc>
    { ++_M_use_count; }
   d4682:	685a      	ldr	r2, [r3, #4]
   d4684:	3201      	adds	r2, #1
   d4686:	605a      	str	r2, [r3, #4]
      }
   d4688:	4770      	bx	lr
	...

000d468c <_Z17setCurrentWeatherPKcS0_>:
void setCurrentWeather(const char *event, const char *data) {
   d468c:	b5f0      	push	{r4, r5, r6, r7, lr}
    Log.info("subscriptionHandler %s", data);
   d468e:	460a      	mov	r2, r1
void setCurrentWeather(const char *event, const char *data) {
   d4690:	b091      	sub	sp, #68	; 0x44
   d4692:	460c      	mov	r4, r1
    Log.info("subscriptionHandler %s", data);
   d4694:	4848      	ldr	r0, [pc, #288]	; (d47b8 <_Z17setCurrentWeatherPKcS0_+0x12c>)
   d4696:	4949      	ldr	r1, [pc, #292]	; (d47bc <_Z17setCurrentWeatherPKcS0_+0x130>)
inline bool spark::JSONString::isEmpty() const {
    return !n_;
}

inline bool spark::JSONString::operator==(const char *str) const {
    return strcmp(s_, str) == 0;
   d4698:	4d49      	ldr	r5, [pc, #292]	; (d47c0 <_Z17setCurrentWeatherPKcS0_+0x134>)
            tempOutdoor = iter.value().toDouble();
   d469a:	4e4a      	ldr	r6, [pc, #296]	; (d47c4 <_Z17setCurrentWeatherPKcS0_+0x138>)
    Log.info("subscriptionHandler %s", data);
   d469c:	f7ff fdf0 	bl	d4280 <_ZNK5spark6Logger4infoEPKcz>
    return parseCopy(json, strlen(json));
   d46a0:	4620      	mov	r0, r4
   d46a2:	f005 fef8 	bl	da496 <strlen>
   d46a6:	4621      	mov	r1, r4
   d46a8:	4602      	mov	r2, r0
   d46aa:	a803      	add	r0, sp, #12
   d46ac:	f003 fab4 	bl	d7c18 <_ZN5spark9JSONValue9parseCopyEPKcj>
        v_(nullptr),
        n_(0) {
}

inline spark::JSONObjectIterator::JSONObjectIterator(const JSONValue &value) :
        JSONObjectIterator(value.t_, value.d_) {
   d46b0:	9c05      	ldr	r4, [sp, #20]
      __shared_ptr(const __shared_ptr&) noexcept = default;
   d46b2:	9b03      	ldr	r3, [sp, #12]
   d46b4:	9306      	str	r3, [sp, #24]
   d46b6:	a904      	add	r1, sp, #16
   d46b8:	a807      	add	r0, sp, #28
   d46ba:	f7ff ffdf 	bl	d467c <_ZNSt14__shared_countILN9__gnu_cxx12_Lock_policyE0EEC1ERKS2_>
   d46be:	aa06      	add	r2, sp, #24
   d46c0:	4621      	mov	r1, r4
   d46c2:	a80a      	add	r0, sp, #40	; 0x28
   d46c4:	f003 fa68 	bl	d7b98 <_ZN5spark18JSONObjectIteratorC1EPK9jsmntok_tSt10shared_ptrINS_6detail8JSONDataEE>
      ~__shared_ptr() = default;
   d46c8:	a807      	add	r0, sp, #28
   d46ca:	f7ff febf 	bl	d444c <_ZNSt14__shared_countILN9__gnu_cxx12_Lock_policyE0EED1Ev>
    return strcmp(s_, str) == 0;
   d46ce:	4f3e      	ldr	r7, [pc, #248]	; (d47c8 <_Z17setCurrentWeatherPKcS0_+0x13c>)
    while (iter.next()) {
   d46d0:	a80a      	add	r0, sp, #40	; 0x28
   d46d2:	f003 fa79 	bl	d7bc8 <_ZN5spark18JSONObjectIterator4nextEv>
   d46d6:	2800      	cmp	r0, #0
   d46d8:	d066      	beq.n	d47a8 <_Z17setCurrentWeatherPKcS0_+0x11c>
}

inline spark::JSONString spark::JSONObjectIterator::name() const {
    return JSONString(k_, d_);
   d46da:	9c0d      	ldr	r4, [sp, #52]	; 0x34
      __shared_ptr(const __shared_ptr&) noexcept = default;
   d46dc:	9b0a      	ldr	r3, [sp, #40]	; 0x28
   d46de:	9301      	str	r3, [sp, #4]
   d46e0:	a90b      	add	r1, sp, #44	; 0x2c
   d46e2:	a802      	add	r0, sp, #8
   d46e4:	f7ff ffca 	bl	d467c <_ZNSt14__shared_countILN9__gnu_cxx12_Lock_policyE0EEC1ERKS2_>
   d46e8:	4621      	mov	r1, r4
   d46ea:	aa01      	add	r2, sp, #4
   d46ec:	a806      	add	r0, sp, #24
   d46ee:	f003 fa2f 	bl	d7b50 <_ZN5spark10JSONStringC1EPK9jsmntok_tSt10shared_ptrINS_6detail8JSONDataEE>
      ~__shared_ptr() = default;
   d46f2:	a802      	add	r0, sp, #8
   d46f4:	f7ff feaa 	bl	d444c <_ZNSt14__shared_countILN9__gnu_cxx12_Lock_policyE0EED1Ev>
    return strcmp(s_, str) == 0;
   d46f8:	9808      	ldr	r0, [sp, #32]
   d46fa:	4629      	mov	r1, r5
   d46fc:	f005 fe9b 	bl	da436 <strcmp>
   d4700:	4604      	mov	r4, r0
   d4702:	a807      	add	r0, sp, #28
   d4704:	f7ff fea2 	bl	d444c <_ZNSt14__shared_countILN9__gnu_cxx12_Lock_policyE0EED1Ev>
        if (iter.name() == "temp") {
   d4708:	b9cc      	cbnz	r4, d473e <_Z17setCurrentWeatherPKcS0_+0xb2>
}

inline spark::JSONValue spark::JSONObjectIterator::value() const {
    return JSONValue(v_, d_);
   d470a:	9c0e      	ldr	r4, [sp, #56]	; 0x38
      __shared_ptr(const __shared_ptr&) noexcept = default;
   d470c:	9b0a      	ldr	r3, [sp, #40]	; 0x28
   d470e:	9301      	str	r3, [sp, #4]
   d4710:	a90b      	add	r1, sp, #44	; 0x2c
   d4712:	a802      	add	r0, sp, #8
   d4714:	f7ff ffb2 	bl	d467c <_ZNSt14__shared_countILN9__gnu_cxx12_Lock_policyE0EEC1ERKS2_>
   d4718:	aa01      	add	r2, sp, #4
   d471a:	4621      	mov	r1, r4
   d471c:	a806      	add	r0, sp, #24
   d471e:	f003 f8d3 	bl	d78c8 <_ZN5spark9JSONValueC1EPK9jsmntok_tSt10shared_ptrINS_6detail8JSONDataEE>
      ~__shared_ptr() = default;
   d4722:	a802      	add	r0, sp, #8
   d4724:	f7ff fe92 	bl	d444c <_ZNSt14__shared_countILN9__gnu_cxx12_Lock_policyE0EED1Ev>
            tempOutdoor = iter.value().toDouble();
   d4728:	a806      	add	r0, sp, #24
   d472a:	f003 f905 	bl	d7938 <_ZNK5spark9JSONValue8toDoubleEv>
   d472e:	ec51 0b10 	vmov	r0, r1, d0
   d4732:	f005 fc0b 	bl	d9f4c <__aeabi_d2f>
   d4736:	6030      	str	r0, [r6, #0]
   d4738:	a807      	add	r0, sp, #28
   d473a:	f7ff fe87 	bl	d444c <_ZNSt14__shared_countILN9__gnu_cxx12_Lock_policyE0EED1Ev>
    return JSONString(k_, d_);
   d473e:	9c0d      	ldr	r4, [sp, #52]	; 0x34
      __shared_ptr(const __shared_ptr&) noexcept = default;
   d4740:	9b0a      	ldr	r3, [sp, #40]	; 0x28
   d4742:	9301      	str	r3, [sp, #4]
   d4744:	a90b      	add	r1, sp, #44	; 0x2c
   d4746:	a802      	add	r0, sp, #8
   d4748:	f7ff ff98 	bl	d467c <_ZNSt14__shared_countILN9__gnu_cxx12_Lock_policyE0EEC1ERKS2_>
   d474c:	4621      	mov	r1, r4
   d474e:	aa01      	add	r2, sp, #4
   d4750:	a806      	add	r0, sp, #24
   d4752:	f003 f9fd 	bl	d7b50 <_ZN5spark10JSONStringC1EPK9jsmntok_tSt10shared_ptrINS_6detail8JSONDataEE>
      ~__shared_ptr() = default;
   d4756:	a802      	add	r0, sp, #8
   d4758:	f7ff fe78 	bl	d444c <_ZNSt14__shared_countILN9__gnu_cxx12_Lock_policyE0EED1Ev>
    return strcmp(s_, str) == 0;
   d475c:	9808      	ldr	r0, [sp, #32]
   d475e:	4639      	mov	r1, r7
   d4760:	f005 fe69 	bl	da436 <strcmp>
   d4764:	4604      	mov	r4, r0
   d4766:	a807      	add	r0, sp, #28
   d4768:	f7ff fe70 	bl	d444c <_ZNSt14__shared_countILN9__gnu_cxx12_Lock_policyE0EED1Ev>
        if (iter.name() == "hum") {
   d476c:	2c00      	cmp	r4, #0
   d476e:	d1af      	bne.n	d46d0 <_Z17setCurrentWeatherPKcS0_+0x44>
    return JSONValue(v_, d_);
   d4770:	9c0e      	ldr	r4, [sp, #56]	; 0x38
      __shared_ptr(const __shared_ptr&) noexcept = default;
   d4772:	9b0a      	ldr	r3, [sp, #40]	; 0x28
   d4774:	9301      	str	r3, [sp, #4]
   d4776:	a90b      	add	r1, sp, #44	; 0x2c
   d4778:	a802      	add	r0, sp, #8
   d477a:	f7ff ff7f 	bl	d467c <_ZNSt14__shared_countILN9__gnu_cxx12_Lock_policyE0EEC1ERKS2_>
   d477e:	aa01      	add	r2, sp, #4
   d4780:	4621      	mov	r1, r4
   d4782:	a806      	add	r0, sp, #24
   d4784:	f003 f8a0 	bl	d78c8 <_ZN5spark9JSONValueC1EPK9jsmntok_tSt10shared_ptrINS_6detail8JSONDataEE>
      ~__shared_ptr() = default;
   d4788:	a802      	add	r0, sp, #8
   d478a:	f7ff fe5f 	bl	d444c <_ZNSt14__shared_countILN9__gnu_cxx12_Lock_policyE0EED1Ev>
            humidityOutdoor = iter.value().toDouble();
   d478e:	a806      	add	r0, sp, #24
   d4790:	f003 f8d2 	bl	d7938 <_ZNK5spark9JSONValue8toDoubleEv>
   d4794:	ec51 0b10 	vmov	r0, r1, d0
   d4798:	f005 fbd8 	bl	d9f4c <__aeabi_d2f>
   d479c:	4b0b      	ldr	r3, [pc, #44]	; (d47cc <_Z17setCurrentWeatherPKcS0_+0x140>)
   d479e:	6018      	str	r0, [r3, #0]
   d47a0:	a807      	add	r0, sp, #28
   d47a2:	f7ff fe53 	bl	d444c <_ZNSt14__shared_countILN9__gnu_cxx12_Lock_policyE0EED1Ev>
   d47a6:	e792      	b.n	d46ce <_Z17setCurrentWeatherPKcS0_+0x42>
   d47a8:	a80b      	add	r0, sp, #44	; 0x2c
   d47aa:	f7ff fe4f 	bl	d444c <_ZNSt14__shared_countILN9__gnu_cxx12_Lock_policyE0EED1Ev>
   d47ae:	a804      	add	r0, sp, #16
   d47b0:	f7ff fe4c 	bl	d444c <_ZNSt14__shared_countILN9__gnu_cxx12_Lock_policyE0EED1Ev>
    }}
   d47b4:	b011      	add	sp, #68	; 0x44
   d47b6:	bdf0      	pop	{r4, r5, r6, r7, pc}
   d47b8:	2003e650 	.word	0x2003e650
   d47bc:	000dc2f4 	.word	0x000dc2f4
   d47c0:	000dc30b 	.word	0x000dc30b
   d47c4:	2003e294 	.word	0x2003e294
   d47c8:	000dc310 	.word	0x000dc310
   d47cc:	2003e290 	.word	0x2003e290

000d47d0 <_GLOBAL__sub_I_WEBHOOK_NAME>:
        val_(val) {
   d47d0:	4b13      	ldr	r3, [pc, #76]	; (d4820 <_GLOBAL__sub_I_WEBHOOK_NAME+0x50>)
Ubidots ubidots("webhook", UBI_PARTICLE);
   d47d2:	4914      	ldr	r1, [pc, #80]	; (d4824 <_GLOBAL__sub_I_WEBHOOK_NAME+0x54>)
   d47d4:	2200      	movs	r2, #0
   d47d6:	b570      	push	{r4, r5, r6, lr}
   d47d8:	701a      	strb	r2, [r3, #0]
Ubidots ubidots("webhook", UBI_PARTICLE);
   d47da:	4c13      	ldr	r4, [pc, #76]	; (d4828 <_GLOBAL__sub_I_WEBHOOK_NAME+0x58>)
   d47dc:	4b13      	ldr	r3, [pc, #76]	; (d482c <_GLOBAL__sub_I_WEBHOOK_NAME+0x5c>)
   d47de:	4d14      	ldr	r5, [pc, #80]	; (d4830 <_GLOBAL__sub_I_WEBHOOK_NAME+0x60>)
   d47e0:	2601      	movs	r6, #1
   d47e2:	701e      	strb	r6, [r3, #0]
   d47e4:	2203      	movs	r2, #3
   d47e6:	4620      	mov	r0, r4
   d47e8:	f002 f8f6 	bl	d69d8 <_ZN7UbidotsC1EPc11IotProtocol>
   d47ec:	462a      	mov	r2, r5
   d47ee:	4911      	ldr	r1, [pc, #68]	; (d4834 <_GLOBAL__sub_I_WEBHOOK_NAME+0x64>)
   d47f0:	4620      	mov	r0, r4
ChainableLED leds (RX, TX, 1);
   d47f2:	4c11      	ldr	r4, [pc, #68]	; (d4838 <_GLOBAL__sub_I_WEBHOOK_NAME+0x68>)
Ubidots ubidots("webhook", UBI_PARTICLE);
   d47f4:	f004 fd5a 	bl	d92ac <__aeabi_atexit>
DHT dht(DHTPIN, DHTTYPE);
   d47f8:	2306      	movs	r3, #6
   d47fa:	220b      	movs	r2, #11
   d47fc:	2113      	movs	r1, #19
   d47fe:	480f      	ldr	r0, [pc, #60]	; (d483c <_GLOBAL__sub_I_WEBHOOK_NAME+0x6c>)
   d4800:	f000 f853 	bl	d48aa <_ZN3DHTC1Ehhh>
ChainableLED leds (RX, TX, 1);
   d4804:	4633      	mov	r3, r6
   d4806:	2209      	movs	r2, #9
   d4808:	210a      	movs	r1, #10
   d480a:	4620      	mov	r0, r4
   d480c:	f000 fa86 	bl	d4d1c <_ZN12ChainableLEDC1Ehhh>
   d4810:	462a      	mov	r2, r5
   d4812:	4620      	mov	r0, r4
   d4814:	490a      	ldr	r1, [pc, #40]	; (d4840 <_GLOBAL__sub_I_WEBHOOK_NAME+0x70>)
   d4816:	e8bd 4070 	ldmia.w	sp!, {r4, r5, r6, lr}
ChainableLED leds (RX, TX, 1);
   d481a:	f004 bd47 	b.w	d92ac <__aeabi_atexit>
   d481e:	bf00      	nop
   d4820:	2003e474 	.word	0x2003e474
   d4824:	000dc314 	.word	0x000dc314
   d4828:	2003e494 	.word	0x2003e494
   d482c:	2003e475 	.word	0x2003e475
   d4830:	2003e470 	.word	0x2003e470
   d4834:	000d69f5 	.word	0x000d69f5
   d4838:	2003e48c 	.word	0x2003e48c
   d483c:	2003e478 	.word	0x2003e478
   d4840:	000d4d37 	.word	0x000d4d37

000d4844 <nrf_gpio_pin_port_decode>:
 *
 * @return Pointer to port register set.
 *
 */
__STATIC_INLINE NRF_GPIO_Type * nrf_gpio_pin_port_decode(uint32_t * p_pin)
{
   d4844:	b510      	push	{r4, lr}
    NRFX_ASSERT(*p_pin < NUMBER_OF_PINS);
   d4846:	6803      	ldr	r3, [r0, #0]
   d4848:	2b2f      	cmp	r3, #47	; 0x2f
{
   d484a:	4604      	mov	r4, r0
    NRFX_ASSERT(*p_pin < NUMBER_OF_PINS);
   d484c:	d904      	bls.n	d4858 <nrf_gpio_pin_port_decode+0x14>
   d484e:	4a07      	ldr	r2, [pc, #28]	; (d486c <nrf_gpio_pin_port_decode+0x28>)
   d4850:	2100      	movs	r1, #0
   d4852:	200a      	movs	r0, #10
   d4854:	f002 fa9e 	bl	d6d94 <panic_>
#if (GPIO_COUNT == 1)
    return NRF_P0;
#else
    if (*p_pin < P0_PIN_NUM)
   d4858:	6823      	ldr	r3, [r4, #0]
   d485a:	2b1f      	cmp	r3, #31
    {
        return NRF_P0;
    }
    else
    {
        *p_pin = *p_pin & (P0_PIN_NUM - 1);
   d485c:	bf83      	ittte	hi
   d485e:	f003 031f 	andhi.w	r3, r3, #31
        return NRF_P1;
   d4862:	4803      	ldrhi	r0, [pc, #12]	; (d4870 <nrf_gpio_pin_port_decode+0x2c>)
        *p_pin = *p_pin & (P0_PIN_NUM - 1);
   d4864:	6023      	strhi	r3, [r4, #0]
        return NRF_P0;
   d4866:	f04f 40a0 	movls.w	r0, #1342177280	; 0x50000000
    }
#endif
}
   d486a:	bd10      	pop	{r4, pc}
   d486c:	000d6a65 	.word	0x000d6a65
   d4870:	50000300 	.word	0x50000300

000d4874 <nrf_gpio_pin_set>:
    }
}


__STATIC_INLINE void nrf_gpio_pin_set(uint32_t pin_number)
{
   d4874:	b507      	push	{r0, r1, r2, lr}
   d4876:	9001      	str	r0, [sp, #4]
    NRF_GPIO_Type * reg = nrf_gpio_pin_port_decode(&pin_number);
   d4878:	a801      	add	r0, sp, #4
   d487a:	f7ff ffe3 	bl	d4844 <nrf_gpio_pin_port_decode>

    nrf_gpio_port_out_set(reg, 1UL << pin_number);
   d487e:	9a01      	ldr	r2, [sp, #4]
   d4880:	2301      	movs	r3, #1
   d4882:	4093      	lsls	r3, r2
}


__STATIC_INLINE void nrf_gpio_port_out_set(NRF_GPIO_Type * p_reg, uint32_t set_mask)
{
    p_reg->OUTSET = set_mask;
   d4884:	f8c0 3508 	str.w	r3, [r0, #1288]	; 0x508
}
   d4888:	b003      	add	sp, #12
   d488a:	f85d fb04 	ldr.w	pc, [sp], #4

000d488e <nrf_gpio_pin_read>:
{
   d488e:	b507      	push	{r0, r1, r2, lr}
   d4890:	9001      	str	r0, [sp, #4]
    NRF_GPIO_Type * reg = nrf_gpio_pin_port_decode(&pin_number);
   d4892:	a801      	add	r0, sp, #4
   d4894:	f7ff ffd6 	bl	d4844 <nrf_gpio_pin_port_decode>
    return ((nrf_gpio_port_in_read(reg) >> pin_number) & 1UL);
   d4898:	9b01      	ldr	r3, [sp, #4]
    return p_reg->IN;
   d489a:	f8d0 0510 	ldr.w	r0, [r0, #1296]	; 0x510
    return ((nrf_gpio_port_in_read(reg) >> pin_number) & 1UL);
   d489e:	40d8      	lsrs	r0, r3
}
   d48a0:	f000 0001 	and.w	r0, r0, #1
   d48a4:	b003      	add	sp, #12
   d48a6:	f85d fb04 	ldr.w	pc, [sp], #4

000d48aa <_ZN3DHTC1Ehhh>:
 * modified for Spark Core by RussGrue
 * */

#include "Adafruit_DHT.h"

DHT::DHT(uint8_t pin, uint8_t type, uint8_t count) {
   d48aa:	b510      	push	{r4, lr}
	_pin = pin;
	_type = type;
	_count = count;
   d48ac:	7203      	strb	r3, [r0, #8]
	firstreading = true;
   d48ae:	2301      	movs	r3, #1
	_pin = pin;
   d48b0:	7181      	strb	r1, [r0, #6]
	_type = type;
   d48b2:	71c2      	strb	r2, [r0, #7]
	firstreading = true;
   d48b4:	7403      	strb	r3, [r0, #16]
}
   d48b6:	bd10      	pop	{r4, pc}

000d48b8 <_ZN3DHT5beginEv>:

void DHT::begin(void) {
   d48b8:	e92d 41f0 	stmdb	sp!, {r4, r5, r6, r7, r8, lr}
   d48bc:	4605      	mov	r5, r0
/* Disabling USE_BIT_BAND since bitbanding is much slower! as per comment
 * by @pkourany on PR: https://github.com/spark/firmware/pull/556 */
#define USE_BIT_BAND 0

__attribute__((always_inline)) inline const Hal_Pin_Info* fastPinGetPinmap() {
    static const Hal_Pin_Info* pinMap = HAL_Pin_Map();
   d48be:	4c1e      	ldr	r4, [pc, #120]	; (d4938 <_ZN3DHT5beginEv+0x80>)
// set up the pins!
	pinMode(_pin, INPUT);
   d48c0:	7980      	ldrb	r0, [r0, #6]
   d48c2:	f8df 8078 	ldr.w	r8, [pc, #120]	; d493c <_ZN3DHT5beginEv+0x84>
   d48c6:	2100      	movs	r1, #0
   d48c8:	f004 fc86 	bl	d91d8 <pinMode>
	pinSetFast(_pin);
   d48cc:	79ae      	ldrb	r6, [r5, #6]
   d48ce:	7823      	ldrb	r3, [r4, #0]
   d48d0:	f3bf 8f5b 	dmb	ish
   d48d4:	f013 0f01 	tst.w	r3, #1
   d48d8:	d10a      	bne.n	d48f0 <_ZN3DHT5beginEv+0x38>
   d48da:	4620      	mov	r0, r4
   d48dc:	f7ff fbe3 	bl	d40a6 <__cxa_guard_acquire>
   d48e0:	b130      	cbz	r0, d48f0 <_ZN3DHT5beginEv+0x38>
   d48e2:	f002 f8cf 	bl	d6a84 <HAL_Pin_Map>
   d48e6:	f8c8 0000 	str.w	r0, [r8]
   d48ea:	4620      	mov	r0, r4
   d48ec:	f7ff fbe0 	bl	d40b0 <__cxa_guard_release>
inline int32_t pinReadFast(pin_t _pin) __attribute__((always_inline));


inline void pinSetFast(pin_t _pin)
{
    uint32_t nrf_pin = NRF_GPIO_PIN_MAP(fastPinGetPinmap()[_pin].gpio_port, fastPinGetPinmap()[_pin].gpio_pin);
   d48f0:	f8d8 3000 	ldr.w	r3, [r8]
   d48f4:	0136      	lsls	r6, r6, #4
   d48f6:	5d9f      	ldrb	r7, [r3, r6]
    static const Hal_Pin_Info* pinMap = HAL_Pin_Map();
   d48f8:	7823      	ldrb	r3, [r4, #0]
   d48fa:	f3bf 8f5b 	dmb	ish
   d48fe:	07db      	lsls	r3, r3, #31
    uint32_t nrf_pin = NRF_GPIO_PIN_MAP(fastPinGetPinmap()[_pin].gpio_port, fastPinGetPinmap()[_pin].gpio_pin);
   d4900:	ea4f 1747 	mov.w	r7, r7, lsl #5
    static const Hal_Pin_Info* pinMap = HAL_Pin_Map();
   d4904:	d40a      	bmi.n	d491c <_ZN3DHT5beginEv+0x64>
   d4906:	480c      	ldr	r0, [pc, #48]	; (d4938 <_ZN3DHT5beginEv+0x80>)
   d4908:	f7ff fbcd 	bl	d40a6 <__cxa_guard_acquire>
   d490c:	b130      	cbz	r0, d491c <_ZN3DHT5beginEv+0x64>
   d490e:	f002 f8b9 	bl	d6a84 <HAL_Pin_Map>
   d4912:	f8c8 0000 	str.w	r0, [r8]
   d4916:	4808      	ldr	r0, [pc, #32]	; (d4938 <_ZN3DHT5beginEv+0x80>)
   d4918:	f7ff fbca 	bl	d40b0 <__cxa_guard_release>
    uint32_t nrf_pin = NRF_GPIO_PIN_MAP(fastPinGetPinmap()[_pin].gpio_port, fastPinGetPinmap()[_pin].gpio_pin);
   d491c:	f8d8 3000 	ldr.w	r3, [r8]
   d4920:	4433      	add	r3, r6
   d4922:	785b      	ldrb	r3, [r3, #1]
   d4924:	f003 031f 	and.w	r3, r3, #31
    nrf_gpio_pin_set(nrf_pin);
   d4928:	ea43 0007 	orr.w	r0, r3, r7
   d492c:	f7ff ffa2 	bl	d4874 <nrf_gpio_pin_set>
	_lastreadtime = 0;
   d4930:	2300      	movs	r3, #0
   d4932:	60eb      	str	r3, [r5, #12]
}
   d4934:	e8bd 81f0 	ldmia.w	sp!, {r4, r5, r6, r7, r8, pc}
   d4938:	2003e4a0 	.word	0x2003e4a0
   d493c:	2003e4a4 	.word	0x2003e4a4

000d4940 <_ZN3DHT4readEv>:
	double tC = (a * (float) tempCelcius) / (b + (float) tempCelcius) + log( (float) percentHumidity / 100);
	double Td = (b * tC) / (a - tC);
	return Td;
}

boolean DHT::read(void) {
   d4940:	e92d 4ff0 	stmdb	sp!, {r4, r5, r6, r7, r8, r9, sl, fp, lr}
   d4944:	4604      	mov	r4, r0
   d4946:	b085      	sub	sp, #20
   d4948:	f002 f894 	bl	d6a74 <HAL_Timer_Get_Milli_Seconds>
	unsigned long currenttime;

// Check if sensor was read less than two seconds ago and return early
// to use last reading.
	currenttime = millis();
	if (currenttime < _lastreadtime) {
   d494c:	68e3      	ldr	r3, [r4, #12]
   d494e:	4283      	cmp	r3, r0
// ie there was a rollover
		_lastreadtime = 0;
   d4950:	bf84      	itt	hi
   d4952:	2300      	movhi	r3, #0
   d4954:	60e3      	strhi	r3, [r4, #12]
	}
	if (!firstreading && ((currenttime - _lastreadtime) < 2000)) {
   d4956:	7c23      	ldrb	r3, [r4, #16]
   d4958:	b92b      	cbnz	r3, d4966 <_ZN3DHT4readEv+0x26>
   d495a:	68e3      	ldr	r3, [r4, #12]
   d495c:	1ac0      	subs	r0, r0, r3
   d495e:	f5b0 6ffa 	cmp.w	r0, #2000	; 0x7d0
   d4962:	f0c0 8160 	bcc.w	d4c26 <_ZN3DHT4readEv+0x2e6>
		return true; // return last correct measurement
//		delay(2000 - (currenttime - _lastreadtime));
	}
	firstreading = false;
   d4966:	2500      	movs	r5, #0
   d4968:	7425      	strb	r5, [r4, #16]
   d496a:	f002 f883 	bl	d6a74 <HAL_Timer_Get_Milli_Seconds>
    static const Hal_Pin_Info* pinMap = HAL_Pin_Map();
   d496e:	4eb0      	ldr	r6, [pc, #704]	; (d4c30 <_ZN3DHT4readEv+0x2f0>)
	Serial.print("Currtime: "); Serial.print(currenttime);
	Serial.print(" Lasttime: "); Serial.print(_lastreadtime);
*/
	_lastreadtime = millis();

	data[0] = data[1] = data[2] = data[3] = data[4] = 0;
   d4970:	6025      	str	r5, [r4, #0]
   d4972:	7125      	strb	r5, [r4, #4]
	_lastreadtime = millis();
   d4974:	60e0      	str	r0, [r4, #12]
  
// pull the pin high and wait 250 milliseconds
	pinSetFast(_pin);
   d4976:	79a7      	ldrb	r7, [r4, #6]
   d4978:	7833      	ldrb	r3, [r6, #0]
   d497a:	4dae      	ldr	r5, [pc, #696]	; (d4c34 <_ZN3DHT4readEv+0x2f4>)
   d497c:	f3bf 8f5b 	dmb	ish
   d4980:	f013 0f01 	tst.w	r3, #1
   d4984:	d109      	bne.n	d499a <_ZN3DHT4readEv+0x5a>
   d4986:	4630      	mov	r0, r6
   d4988:	f7ff fb8d 	bl	d40a6 <__cxa_guard_acquire>
   d498c:	b128      	cbz	r0, d499a <_ZN3DHT4readEv+0x5a>
   d498e:	f002 f879 	bl	d6a84 <HAL_Pin_Map>
   d4992:	6028      	str	r0, [r5, #0]
   d4994:	4630      	mov	r0, r6
   d4996:	f7ff fb8b 	bl	d40b0 <__cxa_guard_release>
    uint32_t nrf_pin = NRF_GPIO_PIN_MAP(fastPinGetPinmap()[_pin].gpio_port, fastPinGetPinmap()[_pin].gpio_pin);
   d499a:	682b      	ldr	r3, [r5, #0]
   d499c:	013f      	lsls	r7, r7, #4
   d499e:	f813 8007 	ldrb.w	r8, [r3, r7]
    static const Hal_Pin_Info* pinMap = HAL_Pin_Map();
   d49a2:	7833      	ldrb	r3, [r6, #0]
   d49a4:	f3bf 8f5b 	dmb	ish
   d49a8:	07d9      	lsls	r1, r3, #31
    uint32_t nrf_pin = NRF_GPIO_PIN_MAP(fastPinGetPinmap()[_pin].gpio_port, fastPinGetPinmap()[_pin].gpio_pin);
   d49aa:	ea4f 1848 	mov.w	r8, r8, lsl #5
    static const Hal_Pin_Info* pinMap = HAL_Pin_Map();
   d49ae:	d409      	bmi.n	d49c4 <_ZN3DHT4readEv+0x84>
   d49b0:	489f      	ldr	r0, [pc, #636]	; (d4c30 <_ZN3DHT4readEv+0x2f0>)
   d49b2:	f7ff fb78 	bl	d40a6 <__cxa_guard_acquire>
   d49b6:	b128      	cbz	r0, d49c4 <_ZN3DHT4readEv+0x84>
   d49b8:	f002 f864 	bl	d6a84 <HAL_Pin_Map>
   d49bc:	6028      	str	r0, [r5, #0]
   d49be:	489c      	ldr	r0, [pc, #624]	; (d4c30 <_ZN3DHT4readEv+0x2f0>)
   d49c0:	f7ff fb76 	bl	d40b0 <__cxa_guard_release>
    uint32_t nrf_pin = NRF_GPIO_PIN_MAP(fastPinGetPinmap()[_pin].gpio_port, fastPinGetPinmap()[_pin].gpio_pin);
   d49c4:	682b      	ldr	r3, [r5, #0]
   d49c6:	441f      	add	r7, r3
   d49c8:	7878      	ldrb	r0, [r7, #1]
   d49ca:	f000 001f 	and.w	r0, r0, #31
    nrf_gpio_pin_set(nrf_pin);
   d49ce:	ea40 0008 	orr.w	r0, r0, r8
   d49d2:	f7ff ff4f 	bl	d4874 <nrf_gpio_pin_set>
	delay(250);
   d49d6:	20fa      	movs	r0, #250	; 0xfa
   d49d8:	f002 fb08 	bl	d6fec <delay>

// now pull it low for ~20 milliseconds
	pinMode(_pin, OUTPUT);
   d49dc:	79a0      	ldrb	r0, [r4, #6]
   d49de:	2101      	movs	r1, #1
   d49e0:	f004 fbfa 	bl	d91d8 <pinMode>
	pinResetFast(_pin);
   d49e4:	79a7      	ldrb	r7, [r4, #6]
    static const Hal_Pin_Info* pinMap = HAL_Pin_Map();
   d49e6:	7833      	ldrb	r3, [r6, #0]
   d49e8:	f3bf 8f5b 	dmb	ish
   d49ec:	07da      	lsls	r2, r3, #31
   d49ee:	d409      	bmi.n	d4a04 <_ZN3DHT4readEv+0xc4>
   d49f0:	488f      	ldr	r0, [pc, #572]	; (d4c30 <_ZN3DHT4readEv+0x2f0>)
   d49f2:	f7ff fb58 	bl	d40a6 <__cxa_guard_acquire>
   d49f6:	b128      	cbz	r0, d4a04 <_ZN3DHT4readEv+0xc4>
   d49f8:	f002 f844 	bl	d6a84 <HAL_Pin_Map>
   d49fc:	6028      	str	r0, [r5, #0]
   d49fe:	488c      	ldr	r0, [pc, #560]	; (d4c30 <_ZN3DHT4readEv+0x2f0>)
   d4a00:	f7ff fb56 	bl	d40b0 <__cxa_guard_release>
}

inline void pinResetFast(pin_t _pin)
{
    uint32_t nrf_pin = NRF_GPIO_PIN_MAP(fastPinGetPinmap()[_pin].gpio_port, fastPinGetPinmap()[_pin].gpio_pin);
   d4a04:	682b      	ldr	r3, [r5, #0]
   d4a06:	013f      	lsls	r7, r7, #4
   d4a08:	5ddb      	ldrb	r3, [r3, r7]
   d4a0a:	ea4f 1843 	mov.w	r8, r3, lsl #5
    static const Hal_Pin_Info* pinMap = HAL_Pin_Map();
   d4a0e:	7833      	ldrb	r3, [r6, #0]
   d4a10:	f3bf 8f5b 	dmb	ish
   d4a14:	07db      	lsls	r3, r3, #31
   d4a16:	d409      	bmi.n	d4a2c <_ZN3DHT4readEv+0xec>
   d4a18:	4885      	ldr	r0, [pc, #532]	; (d4c30 <_ZN3DHT4readEv+0x2f0>)
   d4a1a:	f7ff fb44 	bl	d40a6 <__cxa_guard_acquire>
   d4a1e:	b128      	cbz	r0, d4a2c <_ZN3DHT4readEv+0xec>
   d4a20:	f002 f830 	bl	d6a84 <HAL_Pin_Map>
   d4a24:	6028      	str	r0, [r5, #0]
   d4a26:	4882      	ldr	r0, [pc, #520]	; (d4c30 <_ZN3DHT4readEv+0x2f0>)
   d4a28:	f7ff fb42 	bl	d40b0 <__cxa_guard_release>
    uint32_t nrf_pin = NRF_GPIO_PIN_MAP(fastPinGetPinmap()[_pin].gpio_port, fastPinGetPinmap()[_pin].gpio_pin);
   d4a2c:	682b      	ldr	r3, [r5, #0]
   d4a2e:	441f      	add	r7, r3
    NRF_GPIO_Type * reg = nrf_gpio_pin_port_decode(&pin_number);
   d4a30:	a803      	add	r0, sp, #12
   d4a32:	787b      	ldrb	r3, [r7, #1]
   d4a34:	f003 031f 	and.w	r3, r3, #31
   d4a38:	ea43 0308 	orr.w	r3, r3, r8
   d4a3c:	9303      	str	r3, [sp, #12]
   d4a3e:	f7ff ff01 	bl	d4844 <nrf_gpio_pin_port_decode>
    nrf_gpio_port_out_clear(reg, 1UL << pin_number);
   d4a42:	9a03      	ldr	r2, [sp, #12]
   d4a44:	2301      	movs	r3, #1
   d4a46:	4093      	lsls	r3, r2
}


__STATIC_INLINE void nrf_gpio_port_out_clear(NRF_GPIO_Type * p_reg, uint32_t clr_mask)
{
    p_reg->OUTCLR = clr_mask;
   d4a48:	f8c0 350c 	str.w	r3, [r0, #1292]	; 0x50c
	delay(20);
   d4a4c:	2014      	movs	r0, #20
   d4a4e:	f002 facd 	bl	d6fec <delay>
	noInterrupts();
   d4a52:	f002 fe3d 	bl	d76d0 <_Z12noInterruptsv>
	pinSetFast(_pin);
   d4a56:	79a7      	ldrb	r7, [r4, #6]
    static const Hal_Pin_Info* pinMap = HAL_Pin_Map();
   d4a58:	7833      	ldrb	r3, [r6, #0]
   d4a5a:	f3bf 8f5b 	dmb	ish
   d4a5e:	07d8      	lsls	r0, r3, #31
   d4a60:	d409      	bmi.n	d4a76 <_ZN3DHT4readEv+0x136>
   d4a62:	4873      	ldr	r0, [pc, #460]	; (d4c30 <_ZN3DHT4readEv+0x2f0>)
   d4a64:	f7ff fb1f 	bl	d40a6 <__cxa_guard_acquire>
   d4a68:	b128      	cbz	r0, d4a76 <_ZN3DHT4readEv+0x136>
   d4a6a:	f002 f80b 	bl	d6a84 <HAL_Pin_Map>
   d4a6e:	6028      	str	r0, [r5, #0]
   d4a70:	486f      	ldr	r0, [pc, #444]	; (d4c30 <_ZN3DHT4readEv+0x2f0>)
   d4a72:	f7ff fb1d 	bl	d40b0 <__cxa_guard_release>
    uint32_t nrf_pin = NRF_GPIO_PIN_MAP(fastPinGetPinmap()[_pin].gpio_port, fastPinGetPinmap()[_pin].gpio_pin);
   d4a76:	682b      	ldr	r3, [r5, #0]
   d4a78:	013f      	lsls	r7, r7, #4
   d4a7a:	f813 8007 	ldrb.w	r8, [r3, r7]
    static const Hal_Pin_Info* pinMap = HAL_Pin_Map();
   d4a7e:	7833      	ldrb	r3, [r6, #0]
   d4a80:	f3bf 8f5b 	dmb	ish
   d4a84:	07d9      	lsls	r1, r3, #31
    uint32_t nrf_pin = NRF_GPIO_PIN_MAP(fastPinGetPinmap()[_pin].gpio_port, fastPinGetPinmap()[_pin].gpio_pin);
   d4a86:	ea4f 1848 	mov.w	r8, r8, lsl #5
    static const Hal_Pin_Info* pinMap = HAL_Pin_Map();
   d4a8a:	d409      	bmi.n	d4aa0 <_ZN3DHT4readEv+0x160>
   d4a8c:	4868      	ldr	r0, [pc, #416]	; (d4c30 <_ZN3DHT4readEv+0x2f0>)
   d4a8e:	f7ff fb0a 	bl	d40a6 <__cxa_guard_acquire>
   d4a92:	b128      	cbz	r0, d4aa0 <_ZN3DHT4readEv+0x160>
   d4a94:	f001 fff6 	bl	d6a84 <HAL_Pin_Map>
   d4a98:	6028      	str	r0, [r5, #0]
   d4a9a:	4865      	ldr	r0, [pc, #404]	; (d4c30 <_ZN3DHT4readEv+0x2f0>)
   d4a9c:	f7ff fb08 	bl	d40b0 <__cxa_guard_release>
    uint32_t nrf_pin = NRF_GPIO_PIN_MAP(fastPinGetPinmap()[_pin].gpio_port, fastPinGetPinmap()[_pin].gpio_pin);
   d4aa0:	682b      	ldr	r3, [r5, #0]
   d4aa2:	441f      	add	r7, r3
   d4aa4:	7878      	ldrb	r0, [r7, #1]
   d4aa6:	f000 001f 	and.w	r0, r0, #31
    nrf_gpio_pin_set(nrf_pin);
   d4aaa:	ea40 0008 	orr.w	r0, r0, r8
   d4aae:	f7ff fee1 	bl	d4874 <nrf_gpio_pin_set>
inline unsigned long micros(void) { return HAL_Timer_Get_Micro_Seconds(); }
void delay(unsigned long ms);
inline void delayMicroseconds(unsigned int us) { HAL_Delay_Microseconds(us); }
   d4ab2:	2028      	movs	r0, #40	; 0x28
   d4ab4:	f001 ffd6 	bl	d6a64 <HAL_Delay_Microseconds>
	delayMicroseconds(40);
	pinMode(_pin, INPUT);
   d4ab8:	79a0      	ldrb	r0, [r4, #6]
    static const Hal_Pin_Info* pinMap = HAL_Pin_Map();
   d4aba:	f8df 8174 	ldr.w	r8, [pc, #372]	; d4c30 <_ZN3DHT4readEv+0x2f0>
   d4abe:	2100      	movs	r1, #0
   d4ac0:	f004 fb8a 	bl	d91d8 <pinMode>

// read in timings
	for ( i=0; i< MAXTIMINGS; i++) {
   d4ac4:	2700      	movs	r7, #0
	uint8_t laststate = HIGH;
   d4ac6:	2301      	movs	r3, #1
	uint8_t j = 0, i;
   d4ac8:	46ba      	mov	sl, r7
	uint8_t laststate = HIGH;
   d4aca:	9300      	str	r3, [sp, #0]
		counter = 0;
   d4acc:	f04f 0900 	mov.w	r9, #0
		while (pinReadFast(_pin) == laststate) {
   d4ad0:	f894 b006 	ldrb.w	fp, [r4, #6]
   d4ad4:	7833      	ldrb	r3, [r6, #0]
   d4ad6:	f3bf 8f5b 	dmb	ish
   d4ada:	07da      	lsls	r2, r3, #31
   d4adc:	d409      	bmi.n	d4af2 <_ZN3DHT4readEv+0x1b2>
   d4ade:	4640      	mov	r0, r8
   d4ae0:	f7ff fae1 	bl	d40a6 <__cxa_guard_acquire>
   d4ae4:	b128      	cbz	r0, d4af2 <_ZN3DHT4readEv+0x1b2>
   d4ae6:	f001 ffcd 	bl	d6a84 <HAL_Pin_Map>
   d4aea:	6028      	str	r0, [r5, #0]
   d4aec:	4640      	mov	r0, r8
   d4aee:	f7ff fadf 	bl	d40b0 <__cxa_guard_release>
    nrf_gpio_pin_clear(nrf_pin);
}

inline int32_t pinReadFast(pin_t _pin)
{
    uint32_t nrf_pin = NRF_GPIO_PIN_MAP(fastPinGetPinmap()[_pin].gpio_port, fastPinGetPinmap()[_pin].gpio_pin);
   d4af2:	682b      	ldr	r3, [r5, #0]
   d4af4:	ea4f 1b0b 	mov.w	fp, fp, lsl #4
   d4af8:	f813 300b 	ldrb.w	r3, [r3, fp]
   d4afc:	015b      	lsls	r3, r3, #5
   d4afe:	9301      	str	r3, [sp, #4]
    static const Hal_Pin_Info* pinMap = HAL_Pin_Map();
   d4b00:	7833      	ldrb	r3, [r6, #0]
   d4b02:	f3bf 8f5b 	dmb	ish
   d4b06:	07db      	lsls	r3, r3, #31
   d4b08:	d409      	bmi.n	d4b1e <_ZN3DHT4readEv+0x1de>
   d4b0a:	4640      	mov	r0, r8
   d4b0c:	f7ff facb 	bl	d40a6 <__cxa_guard_acquire>
   d4b10:	b128      	cbz	r0, d4b1e <_ZN3DHT4readEv+0x1de>
   d4b12:	f001 ffb7 	bl	d6a84 <HAL_Pin_Map>
   d4b16:	6028      	str	r0, [r5, #0]
   d4b18:	4640      	mov	r0, r8
   d4b1a:	f7ff fac9 	bl	d40b0 <__cxa_guard_release>
    uint32_t nrf_pin = NRF_GPIO_PIN_MAP(fastPinGetPinmap()[_pin].gpio_port, fastPinGetPinmap()[_pin].gpio_pin);
   d4b1e:	682b      	ldr	r3, [r5, #0]
   d4b20:	445b      	add	r3, fp
   d4b22:	f893 b001 	ldrb.w	fp, [r3, #1]
   d4b26:	9b01      	ldr	r3, [sp, #4]
   d4b28:	f00b 0b1f 	and.w	fp, fp, #31
   d4b2c:	ea4b 0b03 	orr.w	fp, fp, r3
    // Dummy read is needed because peripherals run at 16 MHz while the CPU runs at 64 MHz.
    (void)nrf_gpio_pin_read(nrf_pin);
   d4b30:	4658      	mov	r0, fp
   d4b32:	f7ff feac 	bl	d488e <nrf_gpio_pin_read>
    return nrf_gpio_pin_read(nrf_pin);
   d4b36:	4658      	mov	r0, fp
   d4b38:	f7ff fea9 	bl	d488e <nrf_gpio_pin_read>
   d4b3c:	9b00      	ldr	r3, [sp, #0]
   d4b3e:	4283      	cmp	r3, r0
   d4b40:	d109      	bne.n	d4b56 <_ZN3DHT4readEv+0x216>
			counter++;
   d4b42:	f109 0901 	add.w	r9, r9, #1
   d4b46:	fa5f f989 	uxtb.w	r9, r9
   d4b4a:	2001      	movs	r0, #1
   d4b4c:	f001 ff8a 	bl	d6a64 <HAL_Delay_Microseconds>
			delayMicroseconds(1);
			if (counter == 255) {
   d4b50:	f1b9 0fff 	cmp.w	r9, #255	; 0xff
   d4b54:	d1bc      	bne.n	d4ad0 <_ZN3DHT4readEv+0x190>
				break;
			}
		}
		laststate = pinReadFast(_pin);
   d4b56:	f894 b006 	ldrb.w	fp, [r4, #6]
    static const Hal_Pin_Info* pinMap = HAL_Pin_Map();
   d4b5a:	7833      	ldrb	r3, [r6, #0]
   d4b5c:	f3bf 8f5b 	dmb	ish
   d4b60:	07d8      	lsls	r0, r3, #31
   d4b62:	d409      	bmi.n	d4b78 <_ZN3DHT4readEv+0x238>
   d4b64:	4640      	mov	r0, r8
   d4b66:	f7ff fa9e 	bl	d40a6 <__cxa_guard_acquire>
   d4b6a:	b128      	cbz	r0, d4b78 <_ZN3DHT4readEv+0x238>
   d4b6c:	f001 ff8a 	bl	d6a84 <HAL_Pin_Map>
   d4b70:	6028      	str	r0, [r5, #0]
   d4b72:	4640      	mov	r0, r8
   d4b74:	f7ff fa9c 	bl	d40b0 <__cxa_guard_release>
    uint32_t nrf_pin = NRF_GPIO_PIN_MAP(fastPinGetPinmap()[_pin].gpio_port, fastPinGetPinmap()[_pin].gpio_pin);
   d4b78:	682b      	ldr	r3, [r5, #0]
   d4b7a:	ea4f 1b0b 	mov.w	fp, fp, lsl #4
   d4b7e:	f813 300b 	ldrb.w	r3, [r3, fp]
   d4b82:	015b      	lsls	r3, r3, #5
   d4b84:	9300      	str	r3, [sp, #0]
    static const Hal_Pin_Info* pinMap = HAL_Pin_Map();
   d4b86:	7833      	ldrb	r3, [r6, #0]
   d4b88:	f3bf 8f5b 	dmb	ish
   d4b8c:	07d9      	lsls	r1, r3, #31
   d4b8e:	d409      	bmi.n	d4ba4 <_ZN3DHT4readEv+0x264>
   d4b90:	4640      	mov	r0, r8
   d4b92:	f7ff fa88 	bl	d40a6 <__cxa_guard_acquire>
   d4b96:	b128      	cbz	r0, d4ba4 <_ZN3DHT4readEv+0x264>
   d4b98:	f001 ff74 	bl	d6a84 <HAL_Pin_Map>
   d4b9c:	6028      	str	r0, [r5, #0]
   d4b9e:	4640      	mov	r0, r8
   d4ba0:	f7ff fa86 	bl	d40b0 <__cxa_guard_release>
    uint32_t nrf_pin = NRF_GPIO_PIN_MAP(fastPinGetPinmap()[_pin].gpio_port, fastPinGetPinmap()[_pin].gpio_pin);
   d4ba4:	682b      	ldr	r3, [r5, #0]
   d4ba6:	445b      	add	r3, fp
   d4ba8:	f893 b001 	ldrb.w	fp, [r3, #1]
   d4bac:	9b00      	ldr	r3, [sp, #0]
   d4bae:	f00b 0b1f 	and.w	fp, fp, #31
   d4bb2:	ea4b 0b03 	orr.w	fp, fp, r3
    (void)nrf_gpio_pin_read(nrf_pin);
   d4bb6:	4658      	mov	r0, fp
   d4bb8:	f7ff fe69 	bl	d488e <nrf_gpio_pin_read>
    return nrf_gpio_pin_read(nrf_pin);
   d4bbc:	4658      	mov	r0, fp
   d4bbe:	f7ff fe66 	bl	d488e <nrf_gpio_pin_read>

		if (counter == 255) break;
   d4bc2:	f1b9 0fff 	cmp.w	r9, #255	; 0xff
		laststate = pinReadFast(_pin);
   d4bc6:	b2c3      	uxtb	r3, r0
   d4bc8:	9300      	str	r3, [sp, #0]
		if (counter == 255) break;
   d4bca:	d018      	beq.n	d4bfe <_ZN3DHT4readEv+0x2be>

// ignore first 3 transitions
		if ((i >= 4) && (i%2 == 0)) {
   d4bcc:	2f03      	cmp	r7, #3
   d4bce:	d911      	bls.n	d4bf4 <_ZN3DHT4readEv+0x2b4>
   d4bd0:	07fa      	lsls	r2, r7, #31
   d4bd2:	d40f      	bmi.n	d4bf4 <_ZN3DHT4readEv+0x2b4>
// shove each bit into the storage bytes
			data[j/8] <<= 1;
   d4bd4:	ea4f 02da 	mov.w	r2, sl, lsr #3
			if (counter > _count)
				data[j/8] |= 1;
			j++;
   d4bd8:	f10a 0a01 	add.w	sl, sl, #1
			data[j/8] <<= 1;
   d4bdc:	5ca3      	ldrb	r3, [r4, r2]
   d4bde:	005b      	lsls	r3, r3, #1
   d4be0:	b2db      	uxtb	r3, r3
   d4be2:	54a3      	strb	r3, [r4, r2]
			if (counter > _count)
   d4be4:	7a21      	ldrb	r1, [r4, #8]
   d4be6:	4549      	cmp	r1, r9
				data[j/8] |= 1;
   d4be8:	bf3c      	itt	cc
   d4bea:	f043 0301 	orrcc.w	r3, r3, #1
   d4bee:	54a3      	strbcc	r3, [r4, r2]
			j++;
   d4bf0:	fa5f fa8a 	uxtb.w	sl, sl
	for ( i=0; i< MAXTIMINGS; i++) {
   d4bf4:	3701      	adds	r7, #1
   d4bf6:	b2ff      	uxtb	r7, r7
   d4bf8:	2f55      	cmp	r7, #85	; 0x55
   d4bfa:	f47f af67 	bne.w	d4acc <_ZN3DHT4readEv+0x18c>
		}
	}

	interrupts();
   d4bfe:	f002 fd69 	bl	d76d4 <_Z10interruptsv>
	Serial.print(data[4], HEX); Serial.print(" =? ");
	Serial.println(data[0] + data[1] + data[2] + data[3], HEX);
*/

// check we read 40 bits and that the checksum matches
	if ((j >= 40) && 
   d4c02:	f1ba 0f27 	cmp.w	sl, #39	; 0x27
   d4c06:	d910      	bls.n	d4c2a <_ZN3DHT4readEv+0x2ea>
	   (data[4] == ((data[0] + data[1] + data[2] + data[3]) & 0xFF)) ) {
   d4c08:	7863      	ldrb	r3, [r4, #1]
   d4c0a:	7820      	ldrb	r0, [r4, #0]
   d4c0c:	4418      	add	r0, r3
   d4c0e:	78a3      	ldrb	r3, [r4, #2]
   d4c10:	4418      	add	r0, r3
   d4c12:	78e3      	ldrb	r3, [r4, #3]
   d4c14:	4418      	add	r0, r3
   d4c16:	7923      	ldrb	r3, [r4, #4]
   d4c18:	b2c0      	uxtb	r0, r0
	if ((j >= 40) && 
   d4c1a:	1ac3      	subs	r3, r0, r3
   d4c1c:	4258      	negs	r0, r3
   d4c1e:	4158      	adcs	r0, r3
		return true;
	}
 
	return false;

}
   d4c20:	b005      	add	sp, #20
   d4c22:	e8bd 8ff0 	ldmia.w	sp!, {r4, r5, r6, r7, r8, r9, sl, fp, pc}
		return true; // return last correct measurement
   d4c26:	2001      	movs	r0, #1
   d4c28:	e7fa      	b.n	d4c20 <_ZN3DHT4readEv+0x2e0>
	return false;
   d4c2a:	2000      	movs	r0, #0
   d4c2c:	e7f8      	b.n	d4c20 <_ZN3DHT4readEv+0x2e0>
   d4c2e:	bf00      	nop
   d4c30:	2003e4a0 	.word	0x2003e4a0
   d4c34:	2003e4a4 	.word	0x2003e4a4

000d4c38 <_ZN3DHT15readTemperatureEv>:
float DHT::readTemperature() {
   d4c38:	b510      	push	{r4, lr}
   d4c3a:	4604      	mov	r4, r0
	if (read()) {
   d4c3c:	f7ff fe80 	bl	d4940 <_ZN3DHT4readEv>
   d4c40:	b320      	cbz	r0, d4c8c <_ZN3DHT15readTemperatureEv+0x54>
		switch (_type) {
   d4c42:	79e3      	ldrb	r3, [r4, #7]
   d4c44:	2b0b      	cmp	r3, #11
   d4c46:	d01b      	beq.n	d4c80 <_ZN3DHT15readTemperatureEv+0x48>
   d4c48:	3b15      	subs	r3, #21
   d4c4a:	2b01      	cmp	r3, #1
   d4c4c:	d81e      	bhi.n	d4c8c <_ZN3DHT15readTemperatureEv+0x54>
				f = data[2] & 0x7F;
   d4c4e:	78a3      	ldrb	r3, [r4, #2]
				f += data[3];
   d4c50:	eddf 6a10 	vldr	s13, [pc, #64]	; d4c94 <_ZN3DHT15readTemperatureEv+0x5c>
				f = data[2] & 0x7F;
   d4c54:	f003 027f 	and.w	r2, r3, #127	; 0x7f
   d4c58:	ee07 2a10 	vmov	s14, r2
				f += data[3];
   d4c5c:	78e2      	ldrb	r2, [r4, #3]
   d4c5e:	ee07 2a90 	vmov	s15, r2
				f = data[2] & 0x7F;
   d4c62:	eeb8 7ac7 	vcvt.f32.s32	s14, s14
				f += data[3];
   d4c66:	eef8 7ae7 	vcvt.f32.s32	s15, s15
				if (data[2] & 0x80)
   d4c6a:	061b      	lsls	r3, r3, #24
				f += data[3];
   d4c6c:	eee7 7a26 	vfma.f32	s15, s14, s13
				f /= 10;
   d4c70:	eeb2 7a04 	vmov.f32	s14, #36	; 0x41200000  10.0
   d4c74:	ee87 0a87 	vdiv.f32	s0, s15, s14
				if (data[2] & 0x80)
   d4c78:	d507      	bpl.n	d4c8a <_ZN3DHT15readTemperatureEv+0x52>
					f *= -1;
   d4c7a:	eeb1 0a40 	vneg.f32	s0, s0
   d4c7e:	e004      	b.n	d4c8a <_ZN3DHT15readTemperatureEv+0x52>
				f = data[2];
   d4c80:	78a3      	ldrb	r3, [r4, #2]
   d4c82:	ee00 3a10 	vmov	s0, r3
   d4c86:	eeb8 0a40 	vcvt.f32.u32	s0, s0
}
   d4c8a:	bd10      	pop	{r4, pc}
		switch (_type) {
   d4c8c:	ed9f 0a02 	vldr	s0, [pc, #8]	; d4c98 <_ZN3DHT15readTemperatureEv+0x60>
   d4c90:	e7fb      	b.n	d4c8a <_ZN3DHT15readTemperatureEv+0x52>
   d4c92:	bf00      	nop
   d4c94:	43800000 	.word	0x43800000
   d4c98:	7fc00000 	.word	0x7fc00000

000d4c9c <_ZN3DHT16getTempFarenheitEv>:
float DHT::getTempFarenheit() {
   d4c9c:	b508      	push	{r3, lr}
	return convertCtoF(readTemperature());
   d4c9e:	f7ff ffcb 	bl	d4c38 <_ZN3DHT15readTemperatureEv>
	return c * 9 / 5 + 32;
   d4ca2:	eef2 7a02 	vmov.f32	s15, #34	; 0x41100000  9.0
   d4ca6:	ee20 0a27 	vmul.f32	s0, s0, s15
   d4caa:	eef1 7a04 	vmov.f32	s15, #20	; 0x40a00000  5.0
   d4cae:	ee80 7a27 	vdiv.f32	s14, s0, s15
}
   d4cb2:	ed9f 0a02 	vldr	s0, [pc, #8]	; d4cbc <_ZN3DHT16getTempFarenheitEv+0x20>
   d4cb6:	ee37 0a00 	vadd.f32	s0, s14, s0
   d4cba:	bd08      	pop	{r3, pc}
   d4cbc:	42000000 	.word	0x42000000

000d4cc0 <_ZN3DHT12readHumidityEv>:
float DHT::readHumidity(void) {
   d4cc0:	b510      	push	{r4, lr}
   d4cc2:	4604      	mov	r4, r0
	if (read()) {
   d4cc4:	f7ff fe3c 	bl	d4940 <_ZN3DHT4readEv>
   d4cc8:	b1f0      	cbz	r0, d4d08 <_ZN3DHT12readHumidityEv+0x48>
		switch (_type) {
   d4cca:	79e3      	ldrb	r3, [r4, #7]
   d4ccc:	2b0b      	cmp	r3, #11
   d4cce:	d015      	beq.n	d4cfc <_ZN3DHT12readHumidityEv+0x3c>
   d4cd0:	3b15      	subs	r3, #21
   d4cd2:	2b01      	cmp	r3, #1
   d4cd4:	d818      	bhi.n	d4d08 <_ZN3DHT12readHumidityEv+0x48>
				f = data[0];
   d4cd6:	7823      	ldrb	r3, [r4, #0]
				f += data[1];
   d4cd8:	eddf 6a0d 	vldr	s13, [pc, #52]	; d4d10 <_ZN3DHT12readHumidityEv+0x50>
				f = data[0];
   d4cdc:	ee07 3a10 	vmov	s14, r3
				f += data[1];
   d4ce0:	7863      	ldrb	r3, [r4, #1]
   d4ce2:	ee07 3a90 	vmov	s15, r3
				f = data[0];
   d4ce6:	eeb8 7a47 	vcvt.f32.u32	s14, s14
				f += data[1];
   d4cea:	eef8 7ae7 	vcvt.f32.s32	s15, s15
   d4cee:	eee7 7a26 	vfma.f32	s15, s14, s13
				f /= 10;
   d4cf2:	eeb2 7a04 	vmov.f32	s14, #36	; 0x41200000  10.0
   d4cf6:	ee87 0a87 	vdiv.f32	s0, s15, s14
}
   d4cfa:	bd10      	pop	{r4, pc}
				f = data[0];
   d4cfc:	7823      	ldrb	r3, [r4, #0]
   d4cfe:	ee00 3a10 	vmov	s0, r3
   d4d02:	eeb8 0a40 	vcvt.f32.u32	s0, s0
				return f;
   d4d06:	e7f8      	b.n	d4cfa <_ZN3DHT12readHumidityEv+0x3a>
		switch (_type) {
   d4d08:	ed9f 0a02 	vldr	s0, [pc, #8]	; d4d14 <_ZN3DHT12readHumidityEv+0x54>
   d4d0c:	e7f5      	b.n	d4cfa <_ZN3DHT12readHumidityEv+0x3a>
   d4d0e:	bf00      	nop
   d4d10:	43800000 	.word	0x43800000
   d4d14:	7fc00000 	.word	0x7fc00000

000d4d18 <_ZN3DHT11getHumidityEv>:
	return readHumidity();
   d4d18:	f7ff bfd2 	b.w	d4cc0 <_ZN3DHT12readHumidityEv>

000d4d1c <_ZN12ChainableLEDC1Ehhh>:
// Forward declaration
float hue2rgb(float p, float q, float t);

// --------------------------------------------------------------------------------------

ChainableLED::ChainableLED(byte clk_pin, byte data_pin, byte number_of_leds) :
   d4d1c:	b510      	push	{r4, lr}
   d4d1e:	4604      	mov	r4, r0
    _clk_pin(clk_pin), _data_pin(data_pin), _num_leds(number_of_leds)
   d4d20:	7001      	strb	r1, [r0, #0]
   d4d22:	7042      	strb	r2, [r0, #1]
   d4d24:	7083      	strb	r3, [r0, #2]
{
    _led_state = (byte*) calloc(_num_leds*3, sizeof(byte));
   d4d26:	2101      	movs	r1, #1
   d4d28:	eb03 0043 	add.w	r0, r3, r3, lsl #1
   d4d2c:	f005 fafc 	bl	da328 <calloc>
   d4d30:	6060      	str	r0, [r4, #4]
}
   d4d32:	4620      	mov	r0, r4
   d4d34:	bd10      	pop	{r4, pc}

000d4d36 <_ZN12ChainableLEDD1Ev>:

ChainableLED::~ChainableLED()
   d4d36:	b510      	push	{r4, lr}
   d4d38:	4604      	mov	r4, r0
{
    free(_led_state);
   d4d3a:	6840      	ldr	r0, [r0, #4]
   d4d3c:	f002 f91e 	bl	d6f7c <free>
}
   d4d40:	4620      	mov	r0, r4
   d4d42:	bd10      	pop	{r4, pc}

000d4d44 <_ZN12ChainableLED3clkEv>:
    for (byte i=0; i<_num_leds; i++)
        setColorRGB(i, 0, 0, 0);
}

void ChainableLED::clk(void)
{
   d4d44:	b510      	push	{r4, lr}
    digitalWrite(_clk_pin, LOW);
   d4d46:	2100      	movs	r1, #0
{
   d4d48:	4604      	mov	r4, r0
    digitalWrite(_clk_pin, LOW);
   d4d4a:	7800      	ldrb	r0, [r0, #0]
   d4d4c:	f004 fa55 	bl	d91fa <digitalWrite>
   d4d50:	2014      	movs	r0, #20
   d4d52:	f001 fe87 	bl	d6a64 <HAL_Delay_Microseconds>
    delayMicroseconds(_CLK_PULSE_DELAY);
    digitalWrite(_clk_pin, HIGH);
   d4d56:	7820      	ldrb	r0, [r4, #0]
   d4d58:	2101      	movs	r1, #1
   d4d5a:	f004 fa4e 	bl	d91fa <digitalWrite>
    delayMicroseconds(_CLK_PULSE_DELAY);
}
   d4d5e:	e8bd 4010 	ldmia.w	sp!, {r4, lr}
   d4d62:	2014      	movs	r0, #20
   d4d64:	f001 be7e 	b.w	d6a64 <HAL_Delay_Microseconds>

000d4d68 <_ZN12ChainableLED8sendByteEh>:

void ChainableLED::sendByte(byte b)
{
   d4d68:	b570      	push	{r4, r5, r6, lr}
   d4d6a:	4606      	mov	r6, r0
   d4d6c:	460c      	mov	r4, r1
   d4d6e:	2508      	movs	r5, #8
    // Send one bit at a time, starting with the MSB
    for (byte i=0; i<8; i++)
    {
        // If MSB is 1, write one and clock it, else write 0 and clock
        if ((b & 0x80) != 0)
   d4d70:	0623      	lsls	r3, r4, #24
            digitalWrite(_data_pin, HIGH);
   d4d72:	bf4c      	ite	mi
   d4d74:	2101      	movmi	r1, #1
        else
            digitalWrite(_data_pin, LOW);
   d4d76:	2100      	movpl	r1, #0
   d4d78:	7870      	ldrb	r0, [r6, #1]
   d4d7a:	f004 fa3e 	bl	d91fa <digitalWrite>
        clk();
   d4d7e:	3d01      	subs	r5, #1
   d4d80:	4630      	mov	r0, r6
   d4d82:	f7ff ffdf 	bl	d4d44 <_ZN12ChainableLED3clkEv>

        // Advance to the next bit to send
        b <<= 1;
   d4d86:	0064      	lsls	r4, r4, #1
    for (byte i=0; i<8; i++)
   d4d88:	f015 05ff 	ands.w	r5, r5, #255	; 0xff
        b <<= 1;
   d4d8c:	b2e4      	uxtb	r4, r4
    for (byte i=0; i<8; i++)
   d4d8e:	d1ef      	bne.n	d4d70 <_ZN12ChainableLED8sendByteEh+0x8>
    }
}
   d4d90:	bd70      	pop	{r4, r5, r6, pc}

000d4d92 <_ZN12ChainableLED9sendColorEhhh>:

void ChainableLED::sendColor(byte red, byte green, byte blue)
{
   d4d92:	b573      	push	{r0, r1, r4, r5, r6, lr}
    // Start by sending a byte with the format "1 1 /B7 /B6 /G7 /G6 /R7 /R6"
    byte prefix = 0b11000000;
    if ((blue & 0x80) == 0)     prefix|= 0b00100000;
   d4d94:	f013 0f80 	tst.w	r3, #128	; 0x80
{
   d4d98:	461e      	mov	r6, r3
   d4d9a:	460c      	mov	r4, r1
   d4d9c:	4615      	mov	r5, r2
    if ((blue & 0x80) == 0)     prefix|= 0b00100000;
   d4d9e:	bf14      	ite	ne
   d4da0:	21c0      	movne	r1, #192	; 0xc0
   d4da2:	21e0      	moveq	r1, #224	; 0xe0
    if ((blue & 0x40) == 0)     prefix|= 0b00010000;
   d4da4:	0673      	lsls	r3, r6, #25
   d4da6:	bf58      	it	pl
   d4da8:	f041 0110 	orrpl.w	r1, r1, #16
    if ((green & 0x80) == 0)    prefix|= 0b00001000;
   d4dac:	062a      	lsls	r2, r5, #24
   d4dae:	bf58      	it	pl
   d4db0:	f041 0108 	orrpl.w	r1, r1, #8
    if ((green & 0x40) == 0)    prefix|= 0b00000100;
   d4db4:	066b      	lsls	r3, r5, #25
   d4db6:	bf58      	it	pl
   d4db8:	f041 0104 	orrpl.w	r1, r1, #4
    if ((red & 0x80) == 0)      prefix|= 0b00000010;
   d4dbc:	0622      	lsls	r2, r4, #24
   d4dbe:	bf58      	it	pl
   d4dc0:	f041 0102 	orrpl.w	r1, r1, #2
    if ((red & 0x40) == 0)      prefix|= 0b00000001;
   d4dc4:	0663      	lsls	r3, r4, #25
   d4dc6:	bf58      	it	pl
   d4dc8:	f041 0101 	orrpl.w	r1, r1, #1
    sendByte(prefix);
   d4dcc:	9001      	str	r0, [sp, #4]
   d4dce:	f7ff ffcb 	bl	d4d68 <_ZN12ChainableLED8sendByteEh>

    // Now must send the 3 colors
    sendByte(blue);
   d4dd2:	9801      	ldr	r0, [sp, #4]
   d4dd4:	4631      	mov	r1, r6
   d4dd6:	f7ff ffc7 	bl	d4d68 <_ZN12ChainableLED8sendByteEh>
    sendByte(green);
   d4dda:	9801      	ldr	r0, [sp, #4]
   d4ddc:	4629      	mov	r1, r5
   d4dde:	f7ff ffc3 	bl	d4d68 <_ZN12ChainableLED8sendByteEh>
    sendByte(red);
   d4de2:	9801      	ldr	r0, [sp, #4]
   d4de4:	4621      	mov	r1, r4
}
   d4de6:	b002      	add	sp, #8
   d4de8:	e8bd 4070 	ldmia.w	sp!, {r4, r5, r6, lr}
    sendByte(red);
   d4dec:	f7ff bfbc 	b.w	d4d68 <_ZN12ChainableLED8sendByteEh>

000d4df0 <_ZN12ChainableLED11setColorRGBEhhhh>:

void ChainableLED::setColorRGB(byte led, byte red, byte green, byte blue)
{
   d4df0:	e92d 47f0 	stmdb	sp!, {r4, r5, r6, r7, r8, r9, sl, lr}
   d4df4:	4604      	mov	r4, r0
   d4df6:	460f      	mov	r7, r1
    // Send data frame prefix (32x "0")
    sendByte(0x00);
   d4df8:	2100      	movs	r1, #0
{
   d4dfa:	4690      	mov	r8, r2
   d4dfc:	4699      	mov	r9, r3
   d4dfe:	f89d a020 	ldrb.w	sl, [sp, #32]
    sendByte(0x00);
   d4e02:	f7ff ffb1 	bl	d4d68 <_ZN12ChainableLED8sendByteEh>
    sendByte(0x00);
   d4e06:	2100      	movs	r1, #0
   d4e08:	4620      	mov	r0, r4
   d4e0a:	f7ff ffad 	bl	d4d68 <_ZN12ChainableLED8sendByteEh>
    sendByte(0x00);
   d4e0e:	2100      	movs	r1, #0
   d4e10:	4620      	mov	r0, r4
   d4e12:	f7ff ffa9 	bl	d4d68 <_ZN12ChainableLED8sendByteEh>
    sendByte(0x00);
   d4e16:	2100      	movs	r1, #0
   d4e18:	4620      	mov	r0, r4
   d4e1a:	f7ff ffa5 	bl	d4d68 <_ZN12ChainableLED8sendByteEh>
   d4e1e:	2600      	movs	r6, #0

    // Send color data for each one of the leds
    for (byte i=0; i<_num_leds; i++)
   d4e20:	78a3      	ldrb	r3, [r4, #2]
   d4e22:	b2f5      	uxtb	r5, r6
   d4e24:	42ab      	cmp	r3, r5
   d4e26:	d919      	bls.n	d4e5c <_ZN12ChainableLED11setColorRGBEhhhh+0x6c>
    {
        if (i == led)
   d4e28:	eb05 0045 	add.w	r0, r5, r5, lsl #1
   d4e2c:	42af      	cmp	r7, r5
   d4e2e:	f100 0201 	add.w	r2, r0, #1
   d4e32:	f100 0302 	add.w	r3, r0, #2
   d4e36:	d108      	bne.n	d4e4a <_ZN12ChainableLED11setColorRGBEhhhh+0x5a>
        {
            _led_state[i*3 + _CL_RED] = red;
   d4e38:	6861      	ldr	r1, [r4, #4]
   d4e3a:	f801 8000 	strb.w	r8, [r1, r0]
            _led_state[i*3 + _CL_GREEN] = green;
   d4e3e:	6861      	ldr	r1, [r4, #4]
   d4e40:	f801 9002 	strb.w	r9, [r1, r2]
            _led_state[i*3 + _CL_BLUE] = blue;
   d4e44:	6861      	ldr	r1, [r4, #4]
   d4e46:	f801 a003 	strb.w	sl, [r1, r3]
        }

        sendColor(_led_state[i*3 + _CL_RED],
   d4e4a:	6861      	ldr	r1, [r4, #4]
   d4e4c:	5ccb      	ldrb	r3, [r1, r3]
   d4e4e:	5c8a      	ldrb	r2, [r1, r2]
   d4e50:	5c09      	ldrb	r1, [r1, r0]
   d4e52:	4620      	mov	r0, r4
   d4e54:	f7ff ff9d 	bl	d4d92 <_ZN12ChainableLED9sendColorEhhh>
    for (byte i=0; i<_num_leds; i++)
   d4e58:	3601      	adds	r6, #1
   d4e5a:	e7e1      	b.n	d4e20 <_ZN12ChainableLED11setColorRGBEhhhh+0x30>
                  _led_state[i*3 + _CL_GREEN],
                  _led_state[i*3 + _CL_BLUE]);
    }

    // Terminate data frame (32x "0")
    sendByte(0x00);
   d4e5c:	4620      	mov	r0, r4
   d4e5e:	2100      	movs	r1, #0
   d4e60:	f7ff ff82 	bl	d4d68 <_ZN12ChainableLED8sendByteEh>
    sendByte(0x00);
   d4e64:	4620      	mov	r0, r4
   d4e66:	2100      	movs	r1, #0
   d4e68:	f7ff ff7e 	bl	d4d68 <_ZN12ChainableLED8sendByteEh>
    sendByte(0x00);
   d4e6c:	4620      	mov	r0, r4
   d4e6e:	2100      	movs	r1, #0
   d4e70:	f7ff ff7a 	bl	d4d68 <_ZN12ChainableLED8sendByteEh>
    sendByte(0x00);
   d4e74:	4620      	mov	r0, r4
   d4e76:	2100      	movs	r1, #0
}
   d4e78:	e8bd 47f0 	ldmia.w	sp!, {r4, r5, r6, r7, r8, r9, sl, lr}
    sendByte(0x00);
   d4e7c:	f7ff bf74 	b.w	d4d68 <_ZN12ChainableLED8sendByteEh>

000d4e80 <_ZN12ChainableLED4initEv>:
{
   d4e80:	b573      	push	{r0, r1, r4, r5, r6, lr}
   d4e82:	4604      	mov	r4, r0
    pinMode(_clk_pin, OUTPUT);
   d4e84:	2101      	movs	r1, #1
   d4e86:	7800      	ldrb	r0, [r0, #0]
   d4e88:	f004 f9a6 	bl	d91d8 <pinMode>
    pinMode(_data_pin, OUTPUT);
   d4e8c:	7860      	ldrb	r0, [r4, #1]
   d4e8e:	2101      	movs	r1, #1
   d4e90:	f004 f9a2 	bl	d91d8 <pinMode>
   d4e94:	2500      	movs	r5, #0
        setColorRGB(i, 0, 0, 0);
   d4e96:	462e      	mov	r6, r5
    for (byte i=0; i<_num_leds; i++)
   d4e98:	78a3      	ldrb	r3, [r4, #2]
   d4e9a:	b2e9      	uxtb	r1, r5
   d4e9c:	428b      	cmp	r3, r1
   d4e9e:	d907      	bls.n	d4eb0 <_ZN12ChainableLED4initEv+0x30>
        setColorRGB(i, 0, 0, 0);
   d4ea0:	2300      	movs	r3, #0
   d4ea2:	9600      	str	r6, [sp, #0]
   d4ea4:	461a      	mov	r2, r3
   d4ea6:	4620      	mov	r0, r4
   d4ea8:	f7ff ffa2 	bl	d4df0 <_ZN12ChainableLED11setColorRGBEhhhh>
    for (byte i=0; i<_num_leds; i++)
   d4eac:	3501      	adds	r5, #1
   d4eae:	e7f3      	b.n	d4e98 <_ZN12ChainableLED4initEv+0x18>
}
   d4eb0:	b002      	add	sp, #8
   d4eb2:	bd70      	pop	{r4, r5, r6, pc}

000d4eb4 <_ZN7TwoWire5writeEi>:
  bool unlock();

  inline size_t write(unsigned long n) { return write((uint8_t)n); }
  inline size_t write(long n) { return write((uint8_t)n); }
  inline size_t write(unsigned int n) { return write((uint8_t)n); }
  inline size_t write(int n) { return write((uint8_t)n); }
   d4eb4:	6803      	ldr	r3, [r0, #0]
   d4eb6:	b2c9      	uxtb	r1, r1
   d4eb8:	689b      	ldr	r3, [r3, #8]
   d4eba:	4718      	bx	r3

000d4ebc <_ZN9SeeedOLED11sendCommandEh.constprop.0>:
    sendCommand(SeeedOLED_Display_On_Cmd); 	//display on
    delay(5);
    sendCommand(SeeedOLED_Normal_Display_Cmd);  //Set Normal Display (default)
}

void SeeedOLED::sendCommand(unsigned char command)
   d4ebc:	b510      	push	{r4, lr}
   d4ebe:	4604      	mov	r4, r0
{
  Wire.beginTransmission(SeeedOLED_Address); // begin I2C communication
   d4ec0:	f004 f9cc 	bl	d925c <_Z19__fetch_global_Wirev>
   d4ec4:	213c      	movs	r1, #60	; 0x3c
   d4ec6:	f002 fbf9 	bl	d76bc <_ZN7TwoWire17beginTransmissionEi>
#if ARDUINO >= 100 || defined (SPARK)
  Wire.write(SeeedOLED_Command_Mode);	     // Set OLED Command mode
   d4eca:	f004 f9c7 	bl	d925c <_Z19__fetch_global_Wirev>
   d4ece:	2180      	movs	r1, #128	; 0x80
   d4ed0:	f7ff fff0 	bl	d4eb4 <_ZN7TwoWire5writeEi>
  Wire.write(command);
   d4ed4:	f004 f9c2 	bl	d925c <_Z19__fetch_global_Wirev>
   d4ed8:	6803      	ldr	r3, [r0, #0]
   d4eda:	4621      	mov	r1, r4
   d4edc:	689b      	ldr	r3, [r3, #8]
   d4ede:	4798      	blx	r3
#else
  Wire.send(SeeedOLED_Command_Mode);	     // Set OLED Command mode
  Wire.send(command);
#endif
  Wire.endTransmission();    		     // End I2C communication
   d4ee0:	f004 f9bc 	bl	d925c <_Z19__fetch_global_Wirev>
}
   d4ee4:	e8bd 4010 	ldmia.w	sp!, {r4, lr}
  Wire.endTransmission();    		     // End I2C communication
   d4ee8:	f002 bbef 	b.w	d76ca <_ZN7TwoWire15endTransmissionEv>

000d4eec <_ZN9SeeedOLED4initEv>:
{
   d4eec:	b508      	push	{r3, lr}
    sendCommand(SeeedOLED_Display_Off_Cmd); 	//display off
   d4eee:	20ae      	movs	r0, #174	; 0xae
   d4ef0:	f7ff ffe4 	bl	d4ebc <_ZN9SeeedOLED11sendCommandEh.constprop.0>
    delay(5);
   d4ef4:	2005      	movs	r0, #5
   d4ef6:	f002 f879 	bl	d6fec <delay>
    sendCommand(SeeedOLED_Display_On_Cmd); 	//display on
   d4efa:	20af      	movs	r0, #175	; 0xaf
   d4efc:	f7ff ffde 	bl	d4ebc <_ZN9SeeedOLED11sendCommandEh.constprop.0>
    delay(5);
   d4f00:	2005      	movs	r0, #5
   d4f02:	f002 f873 	bl	d6fec <delay>
}
   d4f06:	e8bd 4008 	ldmia.w	sp!, {r3, lr}
    sendCommand(SeeedOLED_Normal_Display_Cmd);  //Set Normal Display (default)
   d4f0a:	20a6      	movs	r0, #166	; 0xa6
   d4f0c:	f7ff bfd6 	b.w	d4ebc <_ZN9SeeedOLED11sendCommandEh.constprop.0>

000d4f10 <_ZN9SeeedOLED11setPageModeEv>:
    sendCommand(0x20); 			//set addressing mode
    sendCommand(0x00); 			//set horizontal addressing mode
}

void SeeedOLED::setPageMode()
{
   d4f10:	b508      	push	{r3, lr}
    addressingMode = PAGE_MODE;
   d4f12:	2301      	movs	r3, #1
   d4f14:	7003      	strb	r3, [r0, #0]
    sendCommand(0x20); 			//set addressing mode
   d4f16:	2020      	movs	r0, #32
   d4f18:	f7ff ffd0 	bl	d4ebc <_ZN9SeeedOLED11sendCommandEh.constprop.0>
    sendCommand(0x02); 			//set page addressing mode
}
   d4f1c:	e8bd 4008 	ldmia.w	sp!, {r3, lr}
    sendCommand(0x02); 			//set page addressing mode
   d4f20:	2002      	movs	r0, #2
   d4f22:	f7ff bfcb 	b.w	d4ebc <_ZN9SeeedOLED11sendCommandEh.constprop.0>

000d4f26 <_ZN9SeeedOLED9setTextXYEhh>:


void SeeedOLED::setTextXY(unsigned char Row, unsigned char Column)
{
   d4f26:	b510      	push	{r4, lr}
    sendCommand(0xB0 + Row); 			//set page address
   d4f28:	3950      	subs	r1, #80	; 0x50
{
   d4f2a:	4614      	mov	r4, r2
    sendCommand(0xB0 + Row); 			//set page address
   d4f2c:	b2c8      	uxtb	r0, r1
   d4f2e:	f7ff ffc5 	bl	d4ebc <_ZN9SeeedOLED11sendCommandEh.constprop.0>
    sendCommand(0x00 + (8*Column & 0x0F)); 	//set column lower address
   d4f32:	00e0      	lsls	r0, r4, #3
   d4f34:	f000 0008 	and.w	r0, r0, #8
   d4f38:	f7ff ffc0 	bl	d4ebc <_ZN9SeeedOLED11sendCommandEh.constprop.0>
    sendCommand(0x10 + ((8*Column>>4)&0x0F)); 	//set column higher address
   d4f3c:	f3c4 0043 	ubfx	r0, r4, #1, #4
   d4f40:	3010      	adds	r0, #16
}
   d4f42:	e8bd 4010 	ldmia.w	sp!, {r4, lr}
    sendCommand(0x10 + ((8*Column>>4)&0x0F)); 	//set column higher address
   d4f46:	f7ff bfb9 	b.w	d4ebc <_ZN9SeeedOLED11sendCommandEh.constprop.0>

000d4f4a <_ZN9SeeedOLED8sendDataEh>:
  sendCommand(SeeedOLED_Display_On_Cmd); 	//display on
  setTextXY(0,0);
}

void SeeedOLED::sendData(unsigned char Data)
{
   d4f4a:	b510      	push	{r4, lr}
   d4f4c:	460c      	mov	r4, r1
     Wire.beginTransmission(SeeedOLED_Address); // begin I2C transmission
   d4f4e:	f004 f985 	bl	d925c <_Z19__fetch_global_Wirev>
   d4f52:	213c      	movs	r1, #60	; 0x3c
   d4f54:	f002 fbb2 	bl	d76bc <_ZN7TwoWire17beginTransmissionEi>
#if ARDUINO >= 100 || defined (SPARK)
     Wire.write(SeeedOLED_Data_Mode);            // data mode
   d4f58:	f004 f980 	bl	d925c <_Z19__fetch_global_Wirev>
   d4f5c:	2140      	movs	r1, #64	; 0x40
   d4f5e:	f7ff ffa9 	bl	d4eb4 <_ZN7TwoWire5writeEi>
     Wire.write(Data);
   d4f62:	f004 f97b 	bl	d925c <_Z19__fetch_global_Wirev>
   d4f66:	6803      	ldr	r3, [r0, #0]
   d4f68:	4621      	mov	r1, r4
   d4f6a:	689b      	ldr	r3, [r3, #8]
   d4f6c:	4798      	blx	r3
#else
     Wire.send(SeeedOLED_Data_Mode);            // data mode
     Wire.send(Data);
#endif
     Wire.endTransmission();                    // stop I2C transmission
   d4f6e:	f004 f975 	bl	d925c <_Z19__fetch_global_Wirev>
}
   d4f72:	e8bd 4010 	ldmia.w	sp!, {r4, lr}
     Wire.endTransmission();                    // stop I2C transmission
   d4f76:	f002 bba8 	b.w	d76ca <_ZN7TwoWire15endTransmissionEv>
	...

000d4f7c <_ZN9SeeedOLED7putCharEh>:

void SeeedOLED::putChar(unsigned char C)
{
    if(C < 32 || C > 127) //Ignore non-printable ASCII characters. This can be modified for multilingual font.
   d4f7c:	f1a1 0320 	sub.w	r3, r1, #32
    {
    C=' '; //Space
   d4f80:	2b5f      	cmp	r3, #95	; 0x5f
   d4f82:	bf88      	it	hi
   d4f84:	2120      	movhi	r1, #32
{
   d4f86:	b570      	push	{r4, r5, r6, lr}
   d4f88:	f101 5100 	add.w	r1, r1, #536870912	; 0x20000000
   d4f8c:	4d07      	ldr	r5, [pc, #28]	; (d4fac <_ZN9SeeedOLED7putCharEh+0x30>)
   d4f8e:	3920      	subs	r1, #32
   d4f90:	4606      	mov	r6, r0
    }
    unsigned char i=0;
    for(i=0;i<8;i++)
   d4f92:	eb05 05c1 	add.w	r5, r5, r1, lsl #3
    C=' '; //Space
   d4f96:	2408      	movs	r4, #8
    {
       //read bytes from code memory
       sendData(pgm_read_byte(&BasicFont[C-32][i])); //font array starts at 0, ASCII starts at 32. Hence the translation
   d4f98:	f815 1b01 	ldrb.w	r1, [r5], #1
   d4f9c:	4630      	mov	r0, r6
   d4f9e:	3c01      	subs	r4, #1
   d4fa0:	f7ff ffd3 	bl	d4f4a <_ZN9SeeedOLED8sendDataEh>
    for(i=0;i<8;i++)
   d4fa4:	f014 04ff 	ands.w	r4, r4, #255	; 0xff
   d4fa8:	d1f6      	bne.n	d4f98 <_ZN9SeeedOLED7putCharEh+0x1c>
    }
}
   d4faa:	bd70      	pop	{r4, r5, r6, pc}
   d4fac:	000dc324 	.word	0x000dc324

000d4fb0 <_ZN9SeeedOLED12clearDisplayEv>:
{
   d4fb0:	b570      	push	{r4, r5, r6, lr}
   d4fb2:	4605      	mov	r5, r0
  sendCommand(SeeedOLED_Display_Off_Cmd); 	//display off
   d4fb4:	20ae      	movs	r0, #174	; 0xae
   d4fb6:	f7ff ff81 	bl	d4ebc <_ZN9SeeedOLED11sendCommandEh.constprop.0>
   d4fba:	2600      	movs	r6, #0
    setTextXY(j,0);
   d4fbc:	2200      	movs	r2, #0
   d4fbe:	b2f1      	uxtb	r1, r6
   d4fc0:	4628      	mov	r0, r5
   d4fc2:	f7ff ffb0 	bl	d4f26 <_ZN9SeeedOLED9setTextXYEhh>
   d4fc6:	2410      	movs	r4, #16
        putChar(' ');
   d4fc8:	2120      	movs	r1, #32
   d4fca:	4628      	mov	r0, r5
   d4fcc:	3c01      	subs	r4, #1
   d4fce:	f7ff ffd5 	bl	d4f7c <_ZN9SeeedOLED7putCharEh>
      for(i=0;i<16;i++)  //clear all columns
   d4fd2:	f014 04ff 	ands.w	r4, r4, #255	; 0xff
   d4fd6:	d1f7      	bne.n	d4fc8 <_ZN9SeeedOLED12clearDisplayEv+0x18>
  for(j=0;j<8;j++)
   d4fd8:	3601      	adds	r6, #1
   d4fda:	2e08      	cmp	r6, #8
   d4fdc:	d1ee      	bne.n	d4fbc <_ZN9SeeedOLED12clearDisplayEv+0xc>
  sendCommand(SeeedOLED_Display_On_Cmd); 	//display on
   d4fde:	20af      	movs	r0, #175	; 0xaf
   d4fe0:	f7ff ff6c 	bl	d4ebc <_ZN9SeeedOLED11sendCommandEh.constprop.0>
  setTextXY(0,0);
   d4fe4:	4622      	mov	r2, r4
   d4fe6:	4621      	mov	r1, r4
   d4fe8:	4628      	mov	r0, r5
}
   d4fea:	e8bd 4070 	ldmia.w	sp!, {r4, r5, r6, lr}
  setTextXY(0,0);
   d4fee:	f7ff bf9a 	b.w	d4f26 <_ZN9SeeedOLED9setTextXYEhh>

000d4ff2 <_ZN9SeeedOLED9putStringEPKc>:

void SeeedOLED::putString(const char *String)
{
   d4ff2:	b570      	push	{r4, r5, r6, lr}
   d4ff4:	4606      	mov	r6, r0
   d4ff6:	460d      	mov	r5, r1
   d4ff8:	2400      	movs	r4, #0
    unsigned char i=0;
    while(String[i])
   d4ffa:	b2e3      	uxtb	r3, r4
   d4ffc:	3401      	adds	r4, #1
   d4ffe:	5ce9      	ldrb	r1, [r5, r3]
   d5000:	b119      	cbz	r1, d500a <_ZN9SeeedOLED9putStringEPKc+0x18>
    {
        putChar(String[i]);
   d5002:	4630      	mov	r0, r6
   d5004:	f7ff ffba 	bl	d4f7c <_ZN9SeeedOLED7putCharEh>
    while(String[i])
   d5008:	e7f7      	b.n	d4ffa <_ZN9SeeedOLED9putStringEPKc+0x8>
        i++;
    }
}
   d500a:	bd70      	pop	{r4, r5, r6, pc}

000d500c <_ZN9SeeedOLED9putNumberEl>:

unsigned char SeeedOLED::putNumber(long long_num)
{
   d500c:	b5f0      	push	{r4, r5, r6, r7, lr}
   d500e:	b085      	sub	sp, #20
  unsigned char char_buffer[10]="";
   d5010:	2300      	movs	r3, #0
  unsigned char i = 0;
  unsigned char f = 0;

  if (long_num < 0)
   d5012:	1e0c      	subs	r4, r1, #0
  unsigned char char_buffer[10]="";
   d5014:	e9cd 3301 	strd	r3, r3, [sp, #4]
{
   d5018:	4606      	mov	r6, r0
  unsigned char char_buffer[10]="";
   d501a:	f8ad 300c 	strh.w	r3, [sp, #12]
  if (long_num < 0)
   d501e:	da24      	bge.n	d506a <_ZN9SeeedOLED9putNumberEl+0x5e>
  {
    f=1;
    putChar('-');
   d5020:	212d      	movs	r1, #45	; 0x2d
   d5022:	f7ff ffab 	bl	d4f7c <_ZN9SeeedOLED7putCharEh>
    long_num = -long_num;
   d5026:	4264      	negs	r4, r4
    f=1;
   d5028:	2301      	movs	r3, #1
  unsigned char f = 0;
   d502a:	2500      	movs	r5, #0
    return f;
  }

  while (long_num > 0)
  {
    char_buffer[i++] = long_num % 10;
   d502c:	200a      	movs	r0, #10
   d502e:	462a      	mov	r2, r5
   d5030:	a904      	add	r1, sp, #16
   d5032:	440a      	add	r2, r1
   d5034:	3501      	adds	r5, #1
   d5036:	fbb4 f1f0 	udiv	r1, r4, r0
   d503a:	fb00 4411 	mls	r4, r0, r1, r4
   d503e:	f802 4c0c 	strb.w	r4, [r2, #-12]
   d5042:	b2ed      	uxtb	r5, r5
  while (long_num > 0)
   d5044:	460c      	mov	r4, r1
   d5046:	2900      	cmp	r1, #0
   d5048:	d1f1      	bne.n	d502e <_ZN9SeeedOLED9putNumberEl+0x22>
    long_num /= 10;
  }

  f=f+i;
   d504a:	442b      	add	r3, r5
   d504c:	b2dc      	uxtb	r4, r3
   d504e:	ab04      	add	r3, sp, #16
   d5050:	195f      	adds	r7, r3, r5
   d5052:	3f0d      	subs	r7, #13
  for(; i > 0; i--)
   d5054:	b175      	cbz	r5, d5074 <_ZN9SeeedOLED9putNumberEl+0x68>
  {
    putChar('0'+ char_buffer[i - 1]);
   d5056:	f817 1901 	ldrb.w	r1, [r7], #-1
   d505a:	3130      	adds	r1, #48	; 0x30
   d505c:	b2c9      	uxtb	r1, r1
   d505e:	4630      	mov	r0, r6
  for(; i > 0; i--)
   d5060:	3d01      	subs	r5, #1
    putChar('0'+ char_buffer[i - 1]);
   d5062:	f7ff ff8b 	bl	d4f7c <_ZN9SeeedOLED7putCharEh>
  for(; i > 0; i--)
   d5066:	b2ed      	uxtb	r5, r5
   d5068:	e7f4      	b.n	d5054 <_ZN9SeeedOLED9putNumberEl+0x48>
  else if (long_num == 0)
   d506a:	d1de      	bne.n	d502a <_ZN9SeeedOLED9putNumberEl+0x1e>
    putChar('0');
   d506c:	2130      	movs	r1, #48	; 0x30
   d506e:	f7ff ff85 	bl	d4f7c <_ZN9SeeedOLED7putCharEh>
    return f;
   d5072:	2401      	movs	r4, #1
  }
  return f;

}
   d5074:	4620      	mov	r0, r4
   d5076:	b005      	add	sp, #20
   d5078:	bdf0      	pop	{r4, r5, r6, r7, pc}

000d507a <_ZN9SeeedOLED16setNormalDisplayEv>:
    sendCommand(SeeedOLED_Dectivate_Scroll_Cmd);
}

void SeeedOLED::setNormalDisplay()
{
    sendCommand(SeeedOLED_Normal_Display_Cmd);
   d507a:	20a6      	movs	r0, #166	; 0xa6
   d507c:	f7ff bf1e 	b.w	d4ebc <_ZN9SeeedOLED11sendCommandEh.constprop.0>

000d5080 <_ZNSt17_Function_handlerIFP11UbiProtocolvEPS2_E9_M_invokeERKSt9_Any_data>:

    public:
      static _Res
      _M_invoke(const _Any_data& __functor, _ArgTypes&&... __args)
      {
	return (*_Base::_M_get_pointer(__functor))(
   d5080:	6803      	ldr	r3, [r0, #0]
   d5082:	4718      	bx	r3

000d5084 <_ZNSt14_Function_base13_Base_managerIPFP11UbiProtocolvEE10_M_managerERSt9_Any_dataRKS6_St18_Manager_operation>:
	  switch (__op)
   d5084:	2a01      	cmp	r2, #1
   d5086:	d003      	beq.n	d5090 <_ZNSt14_Function_base13_Base_managerIPFP11UbiProtocolvEE10_M_managerERSt9_Any_dataRKS6_St18_Manager_operation+0xc>
   d5088:	2a02      	cmp	r2, #2
   d508a:	d003      	beq.n	d5094 <_ZNSt14_Function_base13_Base_managerIPFP11UbiProtocolvEE10_M_managerERSt9_Any_dataRKS6_St18_Manager_operation+0x10>
	}
   d508c:	2000      	movs	r0, #0
   d508e:	4770      	bx	lr
	      __dest._M_access<_Functor*>() = _M_get_pointer(__source);
   d5090:	6001      	str	r1, [r0, #0]
	      break;
   d5092:	e7fb      	b.n	d508c <_ZNSt14_Function_base13_Base_managerIPFP11UbiProtocolvEE10_M_managerERSt9_Any_dataRKS6_St18_Manager_operation+0x8>
	  ::new (__dest._M_access()) _Functor(__source._M_access<_Functor>());
   d5094:	680b      	ldr	r3, [r1, #0]
   d5096:	6003      	str	r3, [r0, #0]
	}
   d5098:	e7f8      	b.n	d508c <_ZNSt14_Function_base13_Base_managerIPFP11UbiProtocolvEE10_M_managerERSt9_Any_dataRKS6_St18_Manager_operation+0x8>
	...

000d509c <_Z10builderTcpv>:
  mapProtocol::iterator i = command_list.find(_iot_protocol);
  UbiProtocol* ubiBuilder = (i->second)();
  return ubiBuilder;
}

UbiProtocol* builderTcp() {
   d509c:	b513      	push	{r0, r1, r4, lr}
  UbiProtocol* tcpInstance = new UbiTCP(_host, UBIDOTS_TCP_PORT, USER_AGENT, _token);
   d509e:	201c      	movs	r0, #28
   d50a0:	f7fe fff9 	bl	d4096 <_Znwj>
   d50a4:	4604      	mov	r4, r0
   d50a6:	b148      	cbz	r0, d50bc <_Z10builderTcpv+0x20>
   d50a8:	4b06      	ldr	r3, [pc, #24]	; (d50c4 <_Z10builderTcpv+0x28>)
   d50aa:	4907      	ldr	r1, [pc, #28]	; (d50c8 <_Z10builderTcpv+0x2c>)
   d50ac:	681b      	ldr	r3, [r3, #0]
   d50ae:	9300      	str	r3, [sp, #0]
   d50b0:	6809      	ldr	r1, [r1, #0]
   d50b2:	4b06      	ldr	r3, [pc, #24]	; (d50cc <_Z10builderTcpv+0x30>)
   d50b4:	f242 3234 	movw	r2, #9012	; 0x2334
   d50b8:	f001 f878 	bl	d61ac <_ZN6UbiTCPC1EPKciS1_S1_>
  return tcpInstance;
}
   d50bc:	4620      	mov	r0, r4
   d50be:	b002      	add	sp, #8
   d50c0:	bd10      	pop	{r4, pc}
   d50c2:	bf00      	nop
   d50c4:	2003e534 	.word	0x2003e534
   d50c8:	2003e530 	.word	0x2003e530
   d50cc:	000dc624 	.word	0x000dc624

000d50d0 <_Z11builderHttpv>:

UbiProtocol* builderHttp() {
   d50d0:	b513      	push	{r0, r1, r4, lr}
  UbiProtocol* httpInstance = new UbiHTTP(_host, UBIDOTS_HTTP_PORT, USER_AGENT, _token);
   d50d2:	2020      	movs	r0, #32
   d50d4:	f7fe ffdf 	bl	d4096 <_Znwj>
   d50d8:	4604      	mov	r4, r0
   d50da:	b140      	cbz	r0, d50ee <_Z11builderHttpv+0x1e>
   d50dc:	4b05      	ldr	r3, [pc, #20]	; (d50f4 <_Z11builderHttpv+0x24>)
   d50de:	4906      	ldr	r1, [pc, #24]	; (d50f8 <_Z11builderHttpv+0x28>)
   d50e0:	681b      	ldr	r3, [r3, #0]
   d50e2:	9300      	str	r3, [sp, #0]
   d50e4:	6809      	ldr	r1, [r1, #0]
   d50e6:	4b05      	ldr	r3, [pc, #20]	; (d50fc <_Z11builderHttpv+0x2c>)
   d50e8:	2250      	movs	r2, #80	; 0x50
   d50ea:	f000 fa5f 	bl	d55ac <_ZN7UbiHTTPC1EPKciS1_S1_>
  return httpInstance;
}
   d50ee:	4620      	mov	r0, r4
   d50f0:	b002      	add	sp, #8
   d50f2:	bd10      	pop	{r4, pc}
   d50f4:	2003e534 	.word	0x2003e534
   d50f8:	2003e530 	.word	0x2003e530
   d50fc:	000dc624 	.word	0x000dc624

000d5100 <_Z10builderUdpv>:

UbiProtocol* builderUdp() {
   d5100:	b513      	push	{r0, r1, r4, lr}
  UbiProtocol* udpInstance = new UbiUDP(_host, UBIDOTS_TCP_PORT, USER_AGENT, _token);
   d5102:	201c      	movs	r0, #28
   d5104:	f7fe ffc7 	bl	d4096 <_Znwj>
   d5108:	4604      	mov	r4, r0
   d510a:	b148      	cbz	r0, d5120 <_Z10builderUdpv+0x20>
   d510c:	4b06      	ldr	r3, [pc, #24]	; (d5128 <_Z10builderUdpv+0x28>)
   d510e:	4907      	ldr	r1, [pc, #28]	; (d512c <_Z10builderUdpv+0x2c>)
   d5110:	681b      	ldr	r3, [r3, #0]
   d5112:	9300      	str	r3, [sp, #0]
   d5114:	6809      	ldr	r1, [r1, #0]
   d5116:	4b06      	ldr	r3, [pc, #24]	; (d5130 <_Z10builderUdpv+0x30>)
   d5118:	f242 3234 	movw	r2, #9012	; 0x2334
   d511c:	f001 fbb0 	bl	d6880 <_ZN6UbiUDPC1EPKciS1_S1_>
  return udpInstance;
}
   d5120:	4620      	mov	r0, r4
   d5122:	b002      	add	sp, #8
   d5124:	bd10      	pop	{r4, pc}
   d5126:	bf00      	nop
   d5128:	2003e534 	.word	0x2003e534
   d512c:	2003e530 	.word	0x2003e530
   d5130:	000dc624 	.word	0x000dc624

000d5134 <_Z15builderParticlev>:

UbiProtocol* builderParticle() {
   d5134:	b513      	push	{r0, r1, r4, lr}
  UbiProtocol* particleInstance = new UbiParticle(_host, NULL, NULL, _token);
   d5136:	2014      	movs	r0, #20
   d5138:	f7fe ffad 	bl	d4096 <_Znwj>
   d513c:	4604      	mov	r4, r0
   d513e:	b140      	cbz	r0, d5152 <_Z15builderParticlev+0x1e>
   d5140:	4b05      	ldr	r3, [pc, #20]	; (d5158 <_Z15builderParticlev+0x24>)
   d5142:	4906      	ldr	r1, [pc, #24]	; (d515c <_Z15builderParticlev+0x28>)
   d5144:	681b      	ldr	r3, [r3, #0]
   d5146:	9300      	str	r3, [sp, #0]
   d5148:	2300      	movs	r3, #0
   d514a:	6809      	ldr	r1, [r1, #0]
   d514c:	461a      	mov	r2, r3
   d514e:	f000 fd59 	bl	d5c04 <_ZN11UbiParticleC1EPKciS1_S1_>
  return particleInstance;
}
   d5152:	4620      	mov	r0, r4
   d5154:	b002      	add	sp, #8
   d5156:	bd10      	pop	{r4, pc}
   d5158:	2003e534 	.word	0x2003e534
   d515c:	2003e530 	.word	0x2003e530

000d5160 <_ZN3UDPD1Ev>:



public:
    UDP();
    virtual ~UDP() { stop(); releaseBuffer(); }
   d5160:	b510      	push	{r4, lr}
   d5162:	4b06      	ldr	r3, [pc, #24]	; (d517c <_ZN3UDPD1Ev+0x1c>)
   d5164:	6003      	str	r3, [r0, #0]
   d5166:	3364      	adds	r3, #100	; 0x64
   d5168:	4604      	mov	r4, r0
   d516a:	6103      	str	r3, [r0, #16]
   d516c:	f003 fbb8 	bl	d88e0 <_ZN3UDP4stopEv>
   d5170:	4620      	mov	r0, r4
   d5172:	f003 fcaf 	bl	d8ad4 <_ZN3UDP13releaseBufferEv>
   d5176:	4620      	mov	r0, r4
   d5178:	bd10      	pop	{r4, pc}
   d517a:	bf00      	nop
   d517c:	000dcc6c 	.word	0x000dcc6c

000d5180 <_ZN9TCPClientD1Ev>:
class TCPClient : public Client {

public:
    TCPClient();
    TCPClient(sock_handle_t sock);
    virtual ~TCPClient() {};
   d5180:	b538      	push	{r3, r4, r5, lr}
	if (_M_pi != nullptr)
   d5182:	6984      	ldr	r4, [r0, #24]
   d5184:	4b0a      	ldr	r3, [pc, #40]	; (d51b0 <_ZN9TCPClientD1Ev+0x30>)
   d5186:	6003      	str	r3, [r0, #0]
   d5188:	4605      	mov	r5, r0
   d518a:	b17c      	cbz	r4, d51ac <_ZN9TCPClientD1Ev+0x2c>
      if (--_M_use_count == 0)
   d518c:	6863      	ldr	r3, [r4, #4]
   d518e:	3b01      	subs	r3, #1
   d5190:	6063      	str	r3, [r4, #4]
   d5192:	b95b      	cbnz	r3, d51ac <_ZN9TCPClientD1Ev+0x2c>
          _M_dispose();
   d5194:	6823      	ldr	r3, [r4, #0]
   d5196:	4620      	mov	r0, r4
   d5198:	689b      	ldr	r3, [r3, #8]
   d519a:	4798      	blx	r3
          if (--_M_weak_count == 0)
   d519c:	68a3      	ldr	r3, [r4, #8]
   d519e:	3b01      	subs	r3, #1
   d51a0:	60a3      	str	r3, [r4, #8]
   d51a2:	b91b      	cbnz	r3, d51ac <_ZN9TCPClientD1Ev+0x2c>
            _M_destroy();
   d51a4:	6823      	ldr	r3, [r4, #0]
   d51a6:	4620      	mov	r0, r4
   d51a8:	68db      	ldr	r3, [r3, #12]
   d51aa:	4798      	blx	r3
   d51ac:	4628      	mov	r0, r5
   d51ae:	bd38      	pop	{r3, r4, r5, pc}
   d51b0:	000dcc04 	.word	0x000dcc04

000d51b4 <_ZNSt14_Function_baseD1Ev>:
    ~_Function_base()
   d51b4:	b510      	push	{r4, lr}
      if (_M_manager)
   d51b6:	6883      	ldr	r3, [r0, #8]
    ~_Function_base()
   d51b8:	4604      	mov	r4, r0
      if (_M_manager)
   d51ba:	b113      	cbz	r3, d51c2 <_ZNSt14_Function_baseD1Ev+0xe>
	_M_manager(_M_functor, _M_functor, __destroy_functor);
   d51bc:	2203      	movs	r2, #3
   d51be:	4601      	mov	r1, r0
   d51c0:	4798      	blx	r3
    }
   d51c2:	4620      	mov	r0, r4
   d51c4:	bd10      	pop	{r4, pc}
	...

000d51c8 <_ZNSt8functionIFP11UbiProtocolvEEaSIPS2_EENSt9enable_ifIXsrNS3_9_CallableINSt5decayIT_E4typeESt15__invoke_resultIRSB_JEEEE5valueERS3_E4typeEOS9_.isra.0>:
       *  If @a __f is a non-NULL function pointer or an object of type @c
       *  reference_wrapper<F>, this function will not throw.
       */
      template<typename _Functor>
	_Requires<_Callable<typename decay<_Functor>::type>, function&>
	operator=(_Functor&& __f)
   d51c8:	b510      	push	{r4, lr}
   d51ca:	b086      	sub	sp, #24
#endif
    {
      // concept requirements
      __glibcxx_function_requires(_SGIAssignableConcept<_Tp>)

      _Tp __tmp = _GLIBCXX_MOVE(__a);
   d51cc:	ab02      	add	r3, sp, #8
	{ ::new (__functor._M_access()) _Functor(std::move(__f)); }
   d51ce:	9102      	str	r1, [sp, #8]
	operator=(_Functor&& __f)
   d51d0:	4604      	mov	r4, r0
   d51d2:	e893 0003 	ldmia.w	r3, {r0, r1}
   d51d6:	466a      	mov	r2, sp
   d51d8:	e882 0003 	stmia.w	r2, {r0, r1}
      __a = _GLIBCXX_MOVE(__b);
   d51dc:	e894 0003 	ldmia.w	r4, {r0, r1}
   d51e0:	e883 0003 	stmia.w	r3, {r0, r1}
      __b = _GLIBCXX_MOVE(__tmp);
   d51e4:	e892 0003 	ldmia.w	r2, {r0, r1}
      __a = _GLIBCXX_MOVE(__b);
   d51e8:	68a2      	ldr	r2, [r4, #8]
   d51ea:	9204      	str	r2, [sp, #16]
      __b = _GLIBCXX_MOVE(__tmp);
   d51ec:	4a06      	ldr	r2, [pc, #24]	; (d5208 <_ZNSt8functionIFP11UbiProtocolvEEaSIPS2_EENSt9enable_ifIXsrNS3_9_CallableINSt5decayIT_E4typeESt15__invoke_resultIRSB_JEEEE5valueERS3_E4typeEOS9_.isra.0+0x40>)
   d51ee:	60a2      	str	r2, [r4, #8]
      __a = _GLIBCXX_MOVE(__b);
   d51f0:	68e2      	ldr	r2, [r4, #12]
   d51f2:	9205      	str	r2, [sp, #20]
      __b = _GLIBCXX_MOVE(__tmp);
   d51f4:	4a05      	ldr	r2, [pc, #20]	; (d520c <_ZNSt8functionIFP11UbiProtocolvEEaSIPS2_EENSt9enable_ifIXsrNS3_9_CallableINSt5decayIT_E4typeESt15__invoke_resultIRSB_JEEEE5valueERS3_E4typeEOS9_.isra.0+0x44>)
   d51f6:	60e2      	str	r2, [r4, #12]
   d51f8:	e884 0003 	stmia.w	r4, {r0, r1}
    class function<_Res(_ArgTypes...)>
   d51fc:	4618      	mov	r0, r3
   d51fe:	f7ff ffd9 	bl	d51b4 <_ZNSt14_Function_baseD1Ev>
	{
	  function(std::forward<_Functor>(__f)).swap(*this);
	  return *this;
	}
   d5202:	4620      	mov	r0, r4
   d5204:	b006      	add	sp, #24
   d5206:	bd10      	pop	{r4, pc}
   d5208:	000d5085 	.word	0x000d5085
   d520c:	000d5081 	.word	0x000d5081

000d5210 <_ZN9TCPClientD0Ev>:
   d5210:	b510      	push	{r4, lr}
   d5212:	4604      	mov	r4, r0
   d5214:	f7ff ffb4 	bl	d5180 <_ZN9TCPClientD1Ev>
   d5218:	4620      	mov	r0, r4
   d521a:	211c      	movs	r1, #28
   d521c:	f004 f84b 	bl	d92b6 <_ZdlPvj>
   d5220:	4620      	mov	r0, r4
   d5222:	bd10      	pop	{r4, pc}

000d5224 <_ZN3UDPD0Ev>:
   d5224:	b510      	push	{r4, lr}
   d5226:	4604      	mov	r4, r0
   d5228:	f7ff ff9a 	bl	d5160 <_ZN3UDPD1Ev>
   d522c:	4620      	mov	r0, r4
   d522e:	214c      	movs	r1, #76	; 0x4c
   d5230:	f004 f841 	bl	d92b6 <_ZdlPvj>
   d5234:	4620      	mov	r0, r4
   d5236:	bd10      	pop	{r4, pc}

000d5238 <_ZN10UbiBuilder7builderEv>:
UbiProtocol* UbiBuilder::builder() {
   d5238:	b570      	push	{r4, r5, r6, lr}
	  (this->_M_impl._M_header._M_parent);
      }

      _Base_ptr
      _M_end() _GLIBCXX_NOEXCEPT
      { return &this->_M_impl._M_header; }
   d523a:	f100 0108 	add.w	r1, r0, #8
    typename _Rb_tree<_Key, _Val, _KeyOfValue,
		      _Compare, _Alloc>::iterator
    _Rb_tree<_Key, _Val, _KeyOfValue, _Compare, _Alloc>::
    find(const _Key& __k)
    {
      iterator __j = _M_lower_bound(_M_begin(), _M_end(), __k);
   d523e:	68c2      	ldr	r2, [r0, #12]
      { return &this->_M_impl._M_header; }
   d5240:	460b      	mov	r3, r1
      while (__x != 0)
   d5242:	b13a      	cbz	r2, d5254 <_ZN10UbiBuilder7builderEv+0x1c>
	if (!_M_impl._M_key_compare(_S_key(__x), __k))
   d5244:	7c15      	ldrb	r5, [r2, #16]
   d5246:	7804      	ldrb	r4, [r0, #0]
   d5248:	42a5      	cmp	r5, r4
   d524a:	bf2a      	itet	cs
   d524c:	4613      	movcs	r3, r2
	  __x = _S_right(__x);
   d524e:	68d2      	ldrcc	r2, [r2, #12]
	  __y = __x, __x = _S_left(__x);
   d5250:	6892      	ldrcs	r2, [r2, #8]
   d5252:	e7f6      	b.n	d5242 <_ZN10UbiBuilder7builderEv+0xa>
      return (__j == end()
	      || _M_impl._M_key_compare(__k,
					_S_key(__j._M_node))) ? end() : __j;
   d5254:	4299      	cmp	r1, r3
   d5256:	d004      	beq.n	d5262 <_ZN10UbiBuilder7builderEv+0x2a>
	      || _M_impl._M_key_compare(__k,
   d5258:	7800      	ldrb	r0, [r0, #0]
   d525a:	7c1a      	ldrb	r2, [r3, #16]
   d525c:	4290      	cmp	r0, r2
   d525e:	bf38      	it	cc
   d5260:	460b      	movcc	r3, r1
  template<typename _Res, typename... _ArgTypes>
    _Res
    function<_Res(_ArgTypes...)>::
    operator()(_ArgTypes... __args) const
    {
      if (_M_empty())
   d5262:	69da      	ldr	r2, [r3, #28]
   d5264:	b90a      	cbnz	r2, d526a <_ZN10UbiBuilder7builderEv+0x32>
	__throw_bad_function_call();
   d5266:	f004 f8de 	bl	d9426 <_ZSt25__throw_bad_function_callv>
}
   d526a:	e8bd 4070 	ldmia.w	sp!, {r4, r5, r6, lr}
      return _M_invoker(_M_functor, std::forward<_ArgTypes>(__args)...);
   d526e:	6a1a      	ldr	r2, [r3, #32]
   d5270:	f103 0014 	add.w	r0, r3, #20
   d5274:	4710      	bx	r2

000d5276 <_ZNSt8_Rb_treeI11IotProtocolSt4pairIKS0_St8functionIFP11UbiProtocolvEEESt10_Select1stIS8_ESt4lessIS0_ESaIS8_EE24_M_get_insert_unique_posERS2_>:
      _Link_type __x = _M_begin();
   d5276:	688b      	ldr	r3, [r1, #8]
    _Rb_tree<_Key, _Val, _KeyOfValue, _Compare, _Alloc>::
   d5278:	b570      	push	{r4, r5, r6, lr}
   d527a:	4616      	mov	r6, r2
   d527c:	4604      	mov	r4, r0
      { return &this->_M_impl._M_header; }
   d527e:	1d0d      	adds	r5, r1, #4
      bool __comp = true;
   d5280:	2201      	movs	r2, #1
      while (__x != 0)
   d5282:	b15b      	cbz	r3, d529c <_ZNSt8_Rb_treeI11IotProtocolSt4pairIKS0_St8functionIFP11UbiProtocolvEEESt10_Select1stIS8_ESt4lessIS0_ESaIS8_EE24_M_get_insert_unique_posERS2_+0x26>
	  __x = __comp ? _S_left(__x) : _S_right(__x);
   d5284:	7830      	ldrb	r0, [r6, #0]
   d5286:	7c1a      	ldrb	r2, [r3, #16]
   d5288:	4290      	cmp	r0, r2
   d528a:	bf34      	ite	cc
   d528c:	6898      	ldrcc	r0, [r3, #8]
   d528e:	68d8      	ldrcs	r0, [r3, #12]
   d5290:	461d      	mov	r5, r3
   d5292:	bf34      	ite	cc
   d5294:	2201      	movcc	r2, #1
   d5296:	2200      	movcs	r2, #0
   d5298:	4603      	mov	r3, r0
   d529a:	e7f2      	b.n	d5282 <_ZNSt8_Rb_treeI11IotProtocolSt4pairIKS0_St8functionIFP11UbiProtocolvEEESt10_Select1stIS8_ESt4lessIS0_ESaIS8_EE24_M_get_insert_unique_posERS2_+0xc>
      if (__comp)
   d529c:	b192      	cbz	r2, d52c4 <_ZNSt8_Rb_treeI11IotProtocolSt4pairIKS0_St8functionIFP11UbiProtocolvEEESt10_Select1stIS8_ESt4lessIS0_ESaIS8_EE24_M_get_insert_unique_posERS2_+0x4e>
	  if (__j == begin())
   d529e:	68ca      	ldr	r2, [r1, #12]
   d52a0:	42aa      	cmp	r2, r5
   d52a2:	d103      	bne.n	d52ac <_ZNSt8_Rb_treeI11IotProtocolSt4pairIKS0_St8functionIFP11UbiProtocolvEEESt10_Select1stIS8_ESt4lessIS0_ESaIS8_EE24_M_get_insert_unique_posERS2_+0x36>
			   _MoveConstructiblePair<_U1, _U2>()
			  && _PCCP::template
			   _ImplicitlyMoveConvertiblePair<_U1, _U2>(),
                         bool>::type=true>
	constexpr pair(_U1&& __x, _U2&& __y)
	: first(std::forward<_U1>(__x)), second(std::forward<_U2>(__y)) { }
   d52a4:	e9c4 3500 	strd	r3, r5, [r4]
    }
   d52a8:	4620      	mov	r0, r4
   d52aa:	bd70      	pop	{r4, r5, r6, pc}
	_M_node = _Rb_tree_decrement(_M_node);
   d52ac:	4628      	mov	r0, r5
   d52ae:	f004 f85c 	bl	d936a <_ZSt18_Rb_tree_decrementPSt18_Rb_tree_node_base>
      if (_M_impl._M_key_compare(_S_key(__j._M_node), __k))
   d52b2:	7833      	ldrb	r3, [r6, #0]
   d52b4:	7c02      	ldrb	r2, [r0, #16]
   d52b6:	429a      	cmp	r2, r3
   d52b8:	f04f 0300 	mov.w	r3, #0
   d52bc:	d3f2      	bcc.n	d52a4 <_ZNSt8_Rb_treeI11IotProtocolSt4pairIKS0_St8functionIFP11UbiProtocolvEEESt10_Select1stIS8_ESt4lessIS0_ESaIS8_EE24_M_get_insert_unique_posERS2_+0x2e>
       : first(std::forward<_U1>(__x)), second(__y) { }
   d52be:	e9c4 0300 	strd	r0, r3, [r4]
   d52c2:	e7f1      	b.n	d52a8 <_ZNSt8_Rb_treeI11IotProtocolSt4pairIKS0_St8functionIFP11UbiProtocolvEEESt10_Select1stIS8_ESt4lessIS0_ESaIS8_EE24_M_get_insert_unique_posERS2_+0x32>
   d52c4:	4628      	mov	r0, r5
   d52c6:	e7f4      	b.n	d52b2 <_ZNSt8_Rb_treeI11IotProtocolSt4pairIKS0_St8functionIFP11UbiProtocolvEEESt10_Select1stIS8_ESt4lessIS0_ESaIS8_EE24_M_get_insert_unique_posERS2_+0x3c>

000d52c8 <_ZNSt3mapI11IotProtocolSt8functionIFP11UbiProtocolvEESt4lessIS0_ESaISt4pairIKS0_S5_EEEixEOS0_>:
	return (*__i).second;
      }

#if __cplusplus >= 201103L
      mapped_type&
      operator[](key_type&& __k)
   d52c8:	e92d 43f0 	stmdb	sp!, {r4, r5, r6, r7, r8, r9, lr}
      { return &this->_M_impl._M_header; }
   d52cc:	f100 0804 	add.w	r8, r0, #4
      { return _M_lower_bound(_M_begin(), _M_end(), __k); }
   d52d0:	6885      	ldr	r5, [r0, #8]
   d52d2:	b085      	sub	sp, #20
   d52d4:	4606      	mov	r6, r0
   d52d6:	4689      	mov	r9, r1
      { return &this->_M_impl._M_header; }
   d52d8:	4644      	mov	r4, r8
      while (__x != 0)
   d52da:	b155      	cbz	r5, d52f2 <_ZNSt3mapI11IotProtocolSt8functionIFP11UbiProtocolvEESt4lessIS0_ESaISt4pairIKS0_S5_EEEixEOS0_+0x2a>
	if (!_M_impl._M_key_compare(_S_key(__x), __k))
   d52dc:	f899 3000 	ldrb.w	r3, [r9]
   d52e0:	7c2a      	ldrb	r2, [r5, #16]
   d52e2:	429a      	cmp	r2, r3
	  __x = _S_right(__x);
   d52e4:	bf36      	itet	cc
   d52e6:	68eb      	ldrcc	r3, [r5, #12]
	  __y = __x, __x = _S_left(__x);
   d52e8:	68ab      	ldrcs	r3, [r5, #8]
	  __x = _S_right(__x);
   d52ea:	4625      	movcc	r5, r4
   d52ec:	462c      	mov	r4, r5
   d52ee:	461d      	mov	r5, r3
   d52f0:	e7f3      	b.n	d52da <_ZNSt3mapI11IotProtocolSt8functionIFP11UbiProtocolvEESt4lessIS0_ESaISt4pairIKS0_S5_EEEixEOS0_+0x12>
	// concept requirements
	__glibcxx_function_requires(_DefaultConstructibleConcept<mapped_type>)

	iterator __i = lower_bound(__k);
	// __i->first is greater than or equivalent to __k.
	if (__i == end() || key_comp()(__k, (*__i).first))
   d52f2:	45a0      	cmp	r8, r4
   d52f4:	d004      	beq.n	d5300 <_ZNSt3mapI11IotProtocolSt8functionIFP11UbiProtocolvEESt4lessIS0_ESaISt4pairIKS0_S5_EEEixEOS0_+0x38>
   d52f6:	f899 2000 	ldrb.w	r2, [r9]
   d52fa:	7c23      	ldrb	r3, [r4, #16]
   d52fc:	429a      	cmp	r2, r3
   d52fe:	d22e      	bcs.n	d535e <_ZNSt3mapI11IotProtocolSt8functionIFP11UbiProtocolvEESt4lessIS0_ESaISt4pairIKS0_S5_EEEixEOS0_+0x96>
	  {
	    std::align_val_t __al = std::align_val_t(alignof(_Tp));
	    return static_cast<_Tp*>(::operator new(__n * sizeof(_Tp), __al));
	  }
#endif
	return static_cast<_Tp*>(::operator new(__n * sizeof(_Tp)));
   d5300:	2024      	movs	r0, #36	; 0x24
   d5302:	f7fe fec8 	bl	d4096 <_Znwj>
      inline
      pair<_T1, _T2>::
      pair(tuple<_Args1...>& __tuple1, tuple<_Args2...>& __tuple2,
	   _Index_tuple<_Indexes1...>, _Index_tuple<_Indexes2...>)
      : first(std::forward<_Args1>(std::get<_Indexes1>(__tuple1))...),
        second(std::forward<_Args2>(std::get<_Indexes2>(__tuple2))...)
   d5306:	f899 9000 	ldrb.w	r9, [r9]
   d530a:	f880 9010 	strb.w	r9, [r0, #16]
    _Function_base() : _M_manager(nullptr) { }
   d530e:	2300      	movs	r3, #0
      if (__pos._M_node == _M_end())
   d5310:	45a0      	cmp	r8, r4
   d5312:	4607      	mov	r7, r0
      // Can be used to avoid value-initialization zeroing _M_storage.
      __aligned_membuf(std::nullptr_t) { }

      void*
      _M_addr() noexcept
      { return static_cast<void*>(&_M_storage); }
   d5314:	f100 0210 	add.w	r2, r0, #16
   d5318:	61c3      	str	r3, [r0, #28]
   d531a:	d125      	bne.n	d5368 <_ZNSt3mapI11IotProtocolSt8functionIFP11UbiProtocolvEESt4lessIS0_ESaISt4pairIKS0_S5_EEEixEOS0_+0xa0>
	      && _M_impl._M_key_compare(_S_key(_M_rightmost()), __k))
   d531c:	6973      	ldr	r3, [r6, #20]
   d531e:	b11b      	cbz	r3, d5328 <_ZNSt3mapI11IotProtocolSt8functionIFP11UbiProtocolvEESt4lessIS0_ESaISt4pairIKS0_S5_EEEixEOS0_+0x60>
   d5320:	6931      	ldr	r1, [r6, #16]
   d5322:	7c0b      	ldrb	r3, [r1, #16]
   d5324:	454b      	cmp	r3, r9
   d5326:	d309      	bcc.n	d533c <_ZNSt3mapI11IotProtocolSt8functionIFP11UbiProtocolvEESt4lessIS0_ESaISt4pairIKS0_S5_EEEixEOS0_+0x74>
	    return _M_get_insert_unique_pos(__k);
   d5328:	4631      	mov	r1, r6
   d532a:	a802      	add	r0, sp, #8
   d532c:	f7ff ffa3 	bl	d5276 <_ZNSt8_Rb_treeI11IotProtocolSt4pairIKS0_St8functionIFP11UbiProtocolvEEESt10_Select1stIS8_ESt4lessIS0_ESaIS8_EE24_M_get_insert_unique_posERS2_>
   d5330:	e9dd 4102 	ldrd	r4, r1, [sp, #8]
	    if (__res.second)
   d5334:	2900      	cmp	r1, #0
   d5336:	d051      	beq.n	d53dc <_ZNSt3mapI11IotProtocolSt8functionIFP11UbiProtocolvEESt4lessIS0_ESaISt4pairIKS0_S5_EEEixEOS0_+0x114>
			    || _M_impl._M_key_compare(_S_key(__z),
   d5338:	2c00      	cmp	r4, #0
   d533a:	d14d      	bne.n	d53d8 <_ZNSt3mapI11IotProtocolSt8functionIFP11UbiProtocolvEESt4lessIS0_ESaISt4pairIKS0_S5_EEEixEOS0_+0x110>
      bool __insert_left = (__x != 0 || __p == _M_end()
   d533c:	4588      	cmp	r8, r1
   d533e:	d04b      	beq.n	d53d8 <_ZNSt3mapI11IotProtocolSt8functionIFP11UbiProtocolvEESt4lessIS0_ESaISt4pairIKS0_S5_EEEixEOS0_+0x110>
			    || _M_impl._M_key_compare(_S_key(__z),
   d5340:	7c38      	ldrb	r0, [r7, #16]
   d5342:	7c0b      	ldrb	r3, [r1, #16]
   d5344:	4298      	cmp	r0, r3
   d5346:	bf2c      	ite	cs
   d5348:	2000      	movcs	r0, #0
   d534a:	2001      	movcc	r0, #1
      _Rb_tree_insert_and_rebalance(__insert_left, __z, __p,
   d534c:	4643      	mov	r3, r8
   d534e:	460a      	mov	r2, r1
   d5350:	4639      	mov	r1, r7
   d5352:	f004 f80c 	bl	d936e <_ZSt29_Rb_tree_insert_and_rebalancebPSt18_Rb_tree_node_baseS0_RS_>
      ++_M_impl._M_node_count;
   d5356:	6973      	ldr	r3, [r6, #20]
   d5358:	3301      	adds	r3, #1
   d535a:	6173      	str	r3, [r6, #20]
	  __i = _M_t._M_emplace_hint_unique(__i, std::piecewise_construct,
   d535c:	463c      	mov	r4, r7
					std::forward_as_tuple(std::move(__k)),
					std::tuple<>());
	return (*__i).second;
      }
   d535e:	f104 0014 	add.w	r0, r4, #20
   d5362:	b005      	add	sp, #20
   d5364:	e8bd 83f0 	ldmia.w	sp!, {r4, r5, r6, r7, r8, r9, pc}
      else if (_M_impl._M_key_compare(__k, _S_key(__pos._M_node)))
   d5368:	7c23      	ldrb	r3, [r4, #16]
   d536a:	9201      	str	r2, [sp, #4]
   d536c:	454b      	cmp	r3, r9
   d536e:	d918      	bls.n	d53a2 <_ZNSt3mapI11IotProtocolSt8functionIFP11UbiProtocolvEESt4lessIS0_ESaISt4pairIKS0_S5_EEEixEOS0_+0xda>
	  if (__pos._M_node == _M_leftmost()) // begin()
   d5370:	68f3      	ldr	r3, [r6, #12]
   d5372:	429c      	cmp	r4, r3
   d5374:	d009      	beq.n	d538a <_ZNSt3mapI11IotProtocolSt8functionIFP11UbiProtocolvEESt4lessIS0_ESaISt4pairIKS0_S5_EEEixEOS0_+0xc2>
	_M_node = _Rb_tree_decrement(_M_node);
   d5376:	4620      	mov	r0, r4
   d5378:	f003 fff7 	bl	d936a <_ZSt18_Rb_tree_decrementPSt18_Rb_tree_node_base>
	  else if (_M_impl._M_key_compare(_S_key((--__before)._M_node), __k))
   d537c:	7c03      	ldrb	r3, [r0, #16]
   d537e:	9a01      	ldr	r2, [sp, #4]
   d5380:	454b      	cmp	r3, r9
   d5382:	d205      	bcs.n	d5390 <_ZNSt3mapI11IotProtocolSt8functionIFP11UbiProtocolvEESt4lessIS0_ESaISt4pairIKS0_S5_EEEixEOS0_+0xc8>
	      if (_S_right(__before._M_node) == 0)
   d5384:	68c3      	ldr	r3, [r0, #12]
   d5386:	b953      	cbnz	r3, d539e <_ZNSt3mapI11IotProtocolSt8functionIFP11UbiProtocolvEESt4lessIS0_ESaISt4pairIKS0_S5_EEEixEOS0_+0xd6>
   d5388:	4604      	mov	r4, r0
       : first(__x), second(std::forward<_U2>(__y)) { }
   d538a:	4621      	mov	r1, r4
   d538c:	461c      	mov	r4, r3
   d538e:	e7d1      	b.n	d5334 <_ZNSt3mapI11IotProtocolSt8functionIFP11UbiProtocolvEESt4lessIS0_ESaISt4pairIKS0_S5_EEEixEOS0_+0x6c>
	    return _M_get_insert_unique_pos(__k);
   d5390:	4631      	mov	r1, r6
   d5392:	a802      	add	r0, sp, #8
   d5394:	f7ff ff6f 	bl	d5276 <_ZNSt8_Rb_treeI11IotProtocolSt4pairIKS0_St8functionIFP11UbiProtocolvEEESt10_Select1stIS8_ESt4lessIS0_ESaIS8_EE24_M_get_insert_unique_posERS2_>
   d5398:	e9dd 3402 	ldrd	r3, r4, [sp, #8]
   d539c:	e7f5      	b.n	d538a <_ZNSt3mapI11IotProtocolSt8functionIFP11UbiProtocolvEESt4lessIS0_ESaISt4pairIKS0_S5_EEEixEOS0_+0xc2>
   d539e:	4623      	mov	r3, r4
   d53a0:	e7f3      	b.n	d538a <_ZNSt3mapI11IotProtocolSt8functionIFP11UbiProtocolvEESt4lessIS0_ESaISt4pairIKS0_S5_EEEixEOS0_+0xc2>
      else if (_M_impl._M_key_compare(_S_key(__pos._M_node), __k))
   d53a2:	d21b      	bcs.n	d53dc <_ZNSt3mapI11IotProtocolSt8functionIFP11UbiProtocolvEESt4lessIS0_ESaISt4pairIKS0_S5_EEEixEOS0_+0x114>
	  if (__pos._M_node == _M_rightmost())
   d53a4:	6931      	ldr	r1, [r6, #16]
   d53a6:	428c      	cmp	r4, r1
   d53a8:	d00b      	beq.n	d53c2 <_ZNSt3mapI11IotProtocolSt8functionIFP11UbiProtocolvEESt4lessIS0_ESaISt4pairIKS0_S5_EEEixEOS0_+0xfa>
	_M_node = _Rb_tree_increment(_M_node);
   d53aa:	4620      	mov	r0, r4
   d53ac:	f003 ffca 	bl	d9344 <_ZSt18_Rb_tree_incrementPSt18_Rb_tree_node_base>
	  else if (_M_impl._M_key_compare(__k, _S_key((++__after)._M_node)))
   d53b0:	7c03      	ldrb	r3, [r0, #16]
   d53b2:	9a01      	ldr	r2, [sp, #4]
   d53b4:	454b      	cmp	r3, r9
	_M_node = _Rb_tree_increment(_M_node);
   d53b6:	4605      	mov	r5, r0
	  else if (_M_impl._M_key_compare(__k, _S_key((++__after)._M_node)))
   d53b8:	d905      	bls.n	d53c6 <_ZNSt3mapI11IotProtocolSt8functionIFP11UbiProtocolvEESt4lessIS0_ESaISt4pairIKS0_S5_EEEixEOS0_+0xfe>
	      if (_S_right(__pos._M_node) == 0)
   d53ba:	68e3      	ldr	r3, [r4, #12]
   d53bc:	b953      	cbnz	r3, d53d4 <_ZNSt3mapI11IotProtocolSt8functionIFP11UbiProtocolvEESt4lessIS0_ESaISt4pairIKS0_S5_EEEixEOS0_+0x10c>
   d53be:	4621      	mov	r1, r4
   d53c0:	461d      	mov	r5, r3
   d53c2:	462c      	mov	r4, r5
   d53c4:	e7b6      	b.n	d5334 <_ZNSt3mapI11IotProtocolSt8functionIFP11UbiProtocolvEESt4lessIS0_ESaISt4pairIKS0_S5_EEEixEOS0_+0x6c>
	    return _M_get_insert_unique_pos(__k);
   d53c6:	4631      	mov	r1, r6
   d53c8:	a802      	add	r0, sp, #8
   d53ca:	f7ff ff54 	bl	d5276 <_ZNSt8_Rb_treeI11IotProtocolSt4pairIKS0_St8functionIFP11UbiProtocolvEEESt10_Select1stIS8_ESt4lessIS0_ESaIS8_EE24_M_get_insert_unique_posERS2_>
   d53ce:	e9dd 5102 	ldrd	r5, r1, [sp, #8]
   d53d2:	e7f6      	b.n	d53c2 <_ZNSt3mapI11IotProtocolSt8functionIFP11UbiProtocolvEESt4lessIS0_ESaISt4pairIKS0_S5_EEEixEOS0_+0xfa>
   d53d4:	4601      	mov	r1, r0
   d53d6:	e7f4      	b.n	d53c2 <_ZNSt3mapI11IotProtocolSt8functionIFP11UbiProtocolvEESt4lessIS0_ESaISt4pairIKS0_S5_EEEixEOS0_+0xfa>
			    || _M_impl._M_key_compare(_S_key(__z),
   d53d8:	2001      	movs	r0, #1
   d53da:	e7b7      	b.n	d534c <_ZNSt3mapI11IotProtocolSt8functionIFP11UbiProtocolvEESt4lessIS0_ESaISt4pairIKS0_S5_EEEixEOS0_+0x84>
    class function<_Res(_ArgTypes...)>
   d53dc:	f107 0014 	add.w	r0, r7, #20
   d53e0:	f7ff fee8 	bl	d51b4 <_ZNSt14_Function_baseD1Ev>
	  {
	    ::operator delete(__p, std::align_val_t(alignof(_Tp)));
	    return;
	  }
#endif
	::operator delete(__p);
   d53e4:	4638      	mov	r0, r7
   d53e6:	f7fe fe5a 	bl	d409e <_ZdlPv>
   d53ea:	4627      	mov	r7, r4
   d53ec:	e7b6      	b.n	d535c <_ZNSt3mapI11IotProtocolSt8functionIFP11UbiProtocolvEESt4lessIS0_ESaISt4pairIKS0_S5_EEEixEOS0_+0x94>
	...

000d53f0 <_ZN10UbiBuilderC1EPKcS1_11IotProtocol>:
UbiBuilder::UbiBuilder(const char* host, const char* token, IotProtocol iot_protocol) {
   d53f0:	e92d 41f3 	stmdb	sp!, {r0, r1, r4, r5, r6, r7, r8, lr}
   d53f4:	1d05      	adds	r5, r0, #4
      _M_header._M_color = _S_red;
   d53f6:	2600      	movs	r6, #0
   d53f8:	4617      	mov	r7, r2
	  : _Node_allocator()
   d53fa:	f100 0208 	add.w	r2, r0, #8
      _M_header._M_left = &_M_header;
   d53fe:	e9c0 6203 	strd	r6, r2, [r0, #12]
      _M_node_count = 0;
   d5402:	e9c0 2605 	strd	r2, r6, [r0, #20]
   d5406:	4604      	mov	r4, r0
   d5408:	4688      	mov	r8, r1
      _M_header._M_color = _S_red;
   d540a:	7206      	strb	r6, [r0, #8]
  _iot_protocol = iot_protocol;
   d540c:	7003      	strb	r3, [r0, #0]
  command_list[UBI_TCP] = &builderTcp;
   d540e:	f10d 0107 	add.w	r1, sp, #7
   d5412:	2301      	movs	r3, #1
   d5414:	4628      	mov	r0, r5
   d5416:	f88d 3007 	strb.w	r3, [sp, #7]
   d541a:	f7ff ff55 	bl	d52c8 <_ZNSt3mapI11IotProtocolSt8functionIFP11UbiProtocolvEESt4lessIS0_ESaISt4pairIKS0_S5_EEEixEOS0_>
   d541e:	4916      	ldr	r1, [pc, #88]	; (d5478 <_ZN10UbiBuilderC1EPKcS1_11IotProtocol+0x88>)
   d5420:	f7ff fed2 	bl	d51c8 <_ZNSt8functionIFP11UbiProtocolvEEaSIPS2_EENSt9enable_ifIXsrNS3_9_CallableINSt5decayIT_E4typeESt15__invoke_resultIRSB_JEEEE5valueERS3_E4typeEOS9_.isra.0>
  command_list[UBI_HTTP] = &builderHttp;
   d5424:	f10d 0107 	add.w	r1, sp, #7
   d5428:	4628      	mov	r0, r5
   d542a:	f88d 6007 	strb.w	r6, [sp, #7]
   d542e:	f7ff ff4b 	bl	d52c8 <_ZNSt3mapI11IotProtocolSt8functionIFP11UbiProtocolvEESt4lessIS0_ESaISt4pairIKS0_S5_EEEixEOS0_>
   d5432:	4912      	ldr	r1, [pc, #72]	; (d547c <_ZN10UbiBuilderC1EPKcS1_11IotProtocol+0x8c>)
   d5434:	f7ff fec8 	bl	d51c8 <_ZNSt8functionIFP11UbiProtocolvEEaSIPS2_EENSt9enable_ifIXsrNS3_9_CallableINSt5decayIT_E4typeESt15__invoke_resultIRSB_JEEEE5valueERS3_E4typeEOS9_.isra.0>
  command_list[UBI_UDP] = &builderUdp;
   d5438:	2302      	movs	r3, #2
   d543a:	f10d 0107 	add.w	r1, sp, #7
   d543e:	4628      	mov	r0, r5
   d5440:	f88d 3007 	strb.w	r3, [sp, #7]
   d5444:	f7ff ff40 	bl	d52c8 <_ZNSt3mapI11IotProtocolSt8functionIFP11UbiProtocolvEESt4lessIS0_ESaISt4pairIKS0_S5_EEEixEOS0_>
   d5448:	490d      	ldr	r1, [pc, #52]	; (d5480 <_ZN10UbiBuilderC1EPKcS1_11IotProtocol+0x90>)
   d544a:	f7ff febd 	bl	d51c8 <_ZNSt8functionIFP11UbiProtocolvEEaSIPS2_EENSt9enable_ifIXsrNS3_9_CallableINSt5decayIT_E4typeESt15__invoke_resultIRSB_JEEEE5valueERS3_E4typeEOS9_.isra.0>
  command_list[UBI_PARTICLE] = &builderParticle;
   d544e:	2303      	movs	r3, #3
   d5450:	f10d 0107 	add.w	r1, sp, #7
   d5454:	4628      	mov	r0, r5
   d5456:	f88d 3007 	strb.w	r3, [sp, #7]
   d545a:	f7ff ff35 	bl	d52c8 <_ZNSt3mapI11IotProtocolSt8functionIFP11UbiProtocolvEESt4lessIS0_ESaISt4pairIKS0_S5_EEEixEOS0_>
   d545e:	4909      	ldr	r1, [pc, #36]	; (d5484 <_ZN10UbiBuilderC1EPKcS1_11IotProtocol+0x94>)
   d5460:	f7ff feb2 	bl	d51c8 <_ZNSt8functionIFP11UbiProtocolvEEaSIPS2_EENSt9enable_ifIXsrNS3_9_CallableINSt5decayIT_E4typeESt15__invoke_resultIRSB_JEEEE5valueERS3_E4typeEOS9_.isra.0>
  _host = host;
   d5464:	4b08      	ldr	r3, [pc, #32]	; (d5488 <_ZN10UbiBuilderC1EPKcS1_11IotProtocol+0x98>)
   d5466:	f8c3 8000 	str.w	r8, [r3]
  _token = token;
   d546a:	4b08      	ldr	r3, [pc, #32]	; (d548c <_ZN10UbiBuilderC1EPKcS1_11IotProtocol+0x9c>)
}
   d546c:	4620      	mov	r0, r4
  _token = token;
   d546e:	601f      	str	r7, [r3, #0]
}
   d5470:	b002      	add	sp, #8
   d5472:	e8bd 81f0 	ldmia.w	sp!, {r4, r5, r6, r7, r8, pc}
   d5476:	bf00      	nop
   d5478:	000d509d 	.word	0x000d509d
   d547c:	000d50d1 	.word	0x000d50d1
   d5480:	000d5101 	.word	0x000d5101
   d5484:	000d5135 	.word	0x000d5135
   d5488:	2003e530 	.word	0x2003e530
   d548c:	2003e534 	.word	0x2003e534

000d5490 <_GLOBAL__sub_I__ZN10UbiBuilderC2EPKcS1_11IotProtocol>:
}
   d5490:	b510      	push	{r4, lr}
#define _UbiHttp_H_

#include "UbiConstants.h"
#include "UbiProtocol.h"

static TCPClient _client_http_ubi;
   d5492:	4c0e      	ldr	r4, [pc, #56]	; (d54cc <_GLOBAL__sub_I__ZN10UbiBuilderC2EPKcS1_11IotProtocol+0x3c>)
   d5494:	4620      	mov	r0, r4
   d5496:	f003 f8e1 	bl	d865c <_ZN9TCPClientC1Ev>
   d549a:	4620      	mov	r0, r4
#include <map>

#include "UbiConstants.h"
#include "UbiProtocol.h"

static TCPClient _client_tcp_ubi;
   d549c:	4c0c      	ldr	r4, [pc, #48]	; (d54d0 <_GLOBAL__sub_I__ZN10UbiBuilderC2EPKcS1_11IotProtocol+0x40>)
   d549e:	4a0d      	ldr	r2, [pc, #52]	; (d54d4 <_GLOBAL__sub_I__ZN10UbiBuilderC2EPKcS1_11IotProtocol+0x44>)
   d54a0:	490d      	ldr	r1, [pc, #52]	; (d54d8 <_GLOBAL__sub_I__ZN10UbiBuilderC2EPKcS1_11IotProtocol+0x48>)
   d54a2:	f003 ff03 	bl	d92ac <__aeabi_atexit>
   d54a6:	4620      	mov	r0, r4
   d54a8:	f003 f8d8 	bl	d865c <_ZN9TCPClientC1Ev>
   d54ac:	4620      	mov	r0, r4
#define _UbiUdp_H_

#include "UbiConstants.h"
#include "UbiProtocol.h"

static UDP _client_udp_ubi;
   d54ae:	4c0b      	ldr	r4, [pc, #44]	; (d54dc <_GLOBAL__sub_I__ZN10UbiBuilderC2EPKcS1_11IotProtocol+0x4c>)
   d54b0:	4a08      	ldr	r2, [pc, #32]	; (d54d4 <_GLOBAL__sub_I__ZN10UbiBuilderC2EPKcS1_11IotProtocol+0x44>)
   d54b2:	4909      	ldr	r1, [pc, #36]	; (d54d8 <_GLOBAL__sub_I__ZN10UbiBuilderC2EPKcS1_11IotProtocol+0x48>)
   d54b4:	f003 fefa 	bl	d92ac <__aeabi_atexit>
   d54b8:	4620      	mov	r0, r4
   d54ba:	f003 faeb 	bl	d8a94 <_ZN3UDPC1Ev>
   d54be:	4620      	mov	r0, r4
   d54c0:	4a04      	ldr	r2, [pc, #16]	; (d54d4 <_GLOBAL__sub_I__ZN10UbiBuilderC2EPKcS1_11IotProtocol+0x44>)
   d54c2:	4907      	ldr	r1, [pc, #28]	; (d54e0 <_GLOBAL__sub_I__ZN10UbiBuilderC2EPKcS1_11IotProtocol+0x50>)
   d54c4:	e8bd 4010 	ldmia.w	sp!, {r4, lr}
   d54c8:	f003 bef0 	b.w	d92ac <__aeabi_atexit>
   d54cc:	2003e514 	.word	0x2003e514
   d54d0:	2003e4ac 	.word	0x2003e4ac
   d54d4:	2003e470 	.word	0x2003e470
   d54d8:	000d5181 	.word	0x000d5181
   d54dc:	2003e4c8 	.word	0x2003e4c8
   d54e0:	000d5161 	.word	0x000d5161

000d54e4 <_ZN7UbiHTTP8setDebugEb>:

/**
 * Makes available debug traces
 */

void UbiHTTP::setDebug(bool debug) { _debug = debug; }
   d54e4:	7501      	strb	r1, [r0, #20]
   d54e6:	4770      	bx	lr

000d54e8 <_ZN7UbiHTTP17getMultipleValuesEPKcS1_>:
   d54e8:	2200      	movs	r2, #0
	  : _Node_allocator()
   d54ea:	1d01      	adds	r1, r0, #4
      _M_header._M_left = &_M_header;
   d54ec:	e9c0 2102 	strd	r2, r1, [r0, #8]
      _M_node_count = 0;
   d54f0:	e9c0 1204 	strd	r1, r2, [r0, #16]
      _M_header._M_color = _S_red;
   d54f4:	7102      	strb	r2, [r0, #4]

tcpMap UbiHTTP::getMultipleValues(const char* deviceLabel, const char* variableLabels) {
  tcpMap results;
  return results;
}
   d54f6:	4770      	bx	lr

000d54f8 <_ZN7UbiHTTP15parseHttpAnswerEPKcPc.part.0>:
float UbiHTTP::parseHttpAnswer(const char* request_type, char* data) {
   d54f8:	b570      	push	{r4, r5, r6, lr}
   d54fa:	4606      	mov	r6, r0
   d54fc:	ed2d 8b02 	vpush	{d8}
    char* parsed = (char*)malloc(sizeof(char) * 20);
   d5500:	2014      	movs	r0, #20
   d5502:	f001 fd33 	bl	d6f6c <malloc>
   d5506:	4605      	mov	r5, r0
    char* dst = (char*)malloc(sizeof(char) * 20);
   d5508:	2014      	movs	r0, #20
   d550a:	f001 fd2f 	bl	d6f6c <malloc>
   d550e:	4604      	mov	r4, r0
    int len = strlen(data);  // Length of the answer char array from the server
   d5510:	4630      	mov	r0, r6
   d5512:	f004 ffc0 	bl	da496 <strlen>
    for (int i = 0; i < len - 2; i++) {
   d5516:	4632      	mov	r2, r6
   d5518:	2300      	movs	r3, #0
   d551a:	3802      	subs	r0, #2
   d551c:	4298      	cmp	r0, r3
   d551e:	dd14      	ble.n	d554a <_ZN7UbiHTTP15parseHttpAnswerEPKcPc.part.0+0x52>
      if ((data[i] == '\r') && (data[i + 1] == '\n') && (data[i + 2] == '\r') && (data[i + 3] == '\n')) {
   d5520:	f812 1b01 	ldrb.w	r1, [r2], #1
   d5524:	290d      	cmp	r1, #13
   d5526:	d13a      	bne.n	d559e <_ZN7UbiHTTP15parseHttpAnswerEPKcPc.part.0+0xa6>
   d5528:	7811      	ldrb	r1, [r2, #0]
   d552a:	290a      	cmp	r1, #10
   d552c:	d137      	bne.n	d559e <_ZN7UbiHTTP15parseHttpAnswerEPKcPc.part.0+0xa6>
   d552e:	7851      	ldrb	r1, [r2, #1]
   d5530:	290d      	cmp	r1, #13
   d5532:	d134      	bne.n	d559e <_ZN7UbiHTTP15parseHttpAnswerEPKcPc.part.0+0xa6>
   d5534:	7891      	ldrb	r1, [r2, #2]
   d5536:	290a      	cmp	r1, #10
   d5538:	d131      	bne.n	d559e <_ZN7UbiHTTP15parseHttpAnswerEPKcPc.part.0+0xa6>
        strncpy(parsed, data + i + 4, 20);  // Copies the result to the parsed
   d553a:	3304      	adds	r3, #4
   d553c:	18f1      	adds	r1, r6, r3
   d553e:	2214      	movs	r2, #20
   d5540:	4628      	mov	r0, r5
   d5542:	f004 ffc2 	bl	da4ca <strncpy>
        parsed[20] = '\0';
   d5546:	2300      	movs	r3, #0
   d5548:	752b      	strb	r3, [r5, #20]
    char* pch = strchr(parsed, '\n');
   d554a:	210a      	movs	r1, #10
   d554c:	4628      	mov	r0, r5
   d554e:	f004 ff65 	bl	da41c <strchr>
    if (pch == NULL) {
   d5552:	4606      	mov	r6, r0
   d5554:	b328      	cbz	r0, d55a2 <_ZN7UbiHTTP15parseHttpAnswerEPKcPc.part.0+0xaa>
    char* pch2 = strchr(pch + 1, '\n');
   d5556:	210a      	movs	r1, #10
   d5558:	3001      	adds	r0, #1
   d555a:	f004 ff5f 	bl	da41c <strchr>
    if (pch2 == NULL) {
   d555e:	b300      	cbz	r0, d55a2 <_ZN7UbiHTTP15parseHttpAnswerEPKcPc.part.0+0xaa>
    sprintf(dst, "%s", pch);
   d5560:	4631      	mov	r1, r6
   d5562:	4620      	mov	r0, r4
   d5564:	f004 ff71 	bl	da44a <strcpy>
    dst[strlen(dst) - 1] = '\0';
   d5568:	4620      	mov	r0, r4
   d556a:	f004 ff94 	bl	da496 <strlen>
   d556e:	4420      	add	r0, r4
   d5570:	2300      	movs	r3, #0
   d5572:	f800 3c01 	strb.w	r3, [r0, #-1]
    float result = atof(dst);
   d5576:	4620      	mov	r0, r4
   d5578:	f004 fed2 	bl	da320 <atof>
   d557c:	ec51 0b10 	vmov	r0, r1, d0
   d5580:	f004 fce4 	bl	d9f4c <__aeabi_d2f>
   d5584:	ee08 0a10 	vmov	s16, r0
    free(dst);
   d5588:	4620      	mov	r0, r4
   d558a:	f001 fcf7 	bl	d6f7c <free>
    free(parsed);
   d558e:	4628      	mov	r0, r5
   d5590:	f001 fcf4 	bl	d6f7c <free>
}
   d5594:	eeb0 0a48 	vmov.f32	s0, s16
   d5598:	ecbd 8b02 	vpop	{d8}
   d559c:	bd70      	pop	{r4, r5, r6, pc}
    for (int i = 0; i < len - 2; i++) {
   d559e:	3301      	adds	r3, #1
   d55a0:	e7bc      	b.n	d551c <_ZN7UbiHTTP15parseHttpAnswerEPKcPc.part.0+0x24>
      return result;
   d55a2:	ed9f 8a01 	vldr	s16, [pc, #4]	; d55a8 <_ZN7UbiHTTP15parseHttpAnswerEPKcPc.part.0+0xb0>
   d55a6:	e7f5      	b.n	d5594 <_ZN7UbiHTTP15parseHttpAnswerEPKcPc.part.0+0x9c>
   d55a8:	cda2425f 	.word	0xcda2425f

000d55ac <_ZN7UbiHTTPC1EPKciS1_S1_>:
UbiHTTP::UbiHTTP(const char* host, const int port, const char* user_agent, const char* token) {
   d55ac:	b530      	push	{r4, r5, lr}
   d55ae:	4d07      	ldr	r5, [pc, #28]	; (d55cc <_ZN7UbiHTTPC1EPKciS1_S1_+0x20>)
   d55b0:	6005      	str	r5, [r0, #0]
   d55b2:	2500      	movs	r5, #0
  _user_agent = user_agent;
   d55b4:	e9c0 1301 	strd	r1, r3, [r0, #4]
UbiHTTP::UbiHTTP(const char* host, const int port, const char* user_agent, const char* token) {
   d55b8:	7505      	strb	r5, [r0, #20]
  _token = token;
   d55ba:	9b03      	ldr	r3, [sp, #12]
UbiHTTP::UbiHTTP(const char* host, const int port, const char* user_agent, const char* token) {
   d55bc:	f241 3588 	movw	r5, #5000	; 0x1388
   d55c0:	6185      	str	r5, [r0, #24]
   d55c2:	2505      	movs	r5, #5
  _port = port;
   d55c4:	e9c0 3203 	strd	r3, r2, [r0, #12]
UbiHTTP::UbiHTTP(const char* host, const int port, const char* user_agent, const char* token) {
   d55c8:	7705      	strb	r5, [r0, #28]
}
   d55ca:	bd30      	pop	{r4, r5, pc}
   d55cc:	000dc840 	.word	0x000dc840

000d55d0 <_ZN7UbiHTTP9reconnectEPKci>:
void UbiHTTP::reconnect(const char* host, const int port) {
   d55d0:	e92d 4ff7 	stmdb	sp!, {r0, r1, r2, r4, r5, r6, r7, r8, r9, sl, fp, lr}
  while (!_client_http_ubi.connected() && attempts < _maxReconnectAttempts) {
   d55d4:	f8df 808c 	ldr.w	r8, [pc, #140]	; d5664 <_ZN7UbiHTTP9reconnectEPKci+0x94>
      Serial.print("Trying to connect to ");
   d55d8:	f8df a08c 	ldr.w	sl, [pc, #140]	; d5668 <_ZN7UbiHTTP9reconnectEPKci+0x98>
      Serial.print(" , attempt number: ");
   d55dc:	f8df b08c 	ldr.w	fp, [pc, #140]	; d566c <_ZN7UbiHTTP9reconnectEPKci+0x9c>
void UbiHTTP::reconnect(const char* host, const int port) {
   d55e0:	4604      	mov	r4, r0
   d55e2:	460d      	mov	r5, r1
   d55e4:	4617      	mov	r7, r2
   d55e6:	2600      	movs	r6, #0
  while (!_client_http_ubi.connected() && attempts < _maxReconnectAttempts) {
   d55e8:	4640      	mov	r0, r8
   d55ea:	fa5f f986 	uxtb.w	r9, r6
   d55ee:	f002 fe28 	bl	d8242 <_ZN9TCPClient9connectedEv>
   d55f2:	bb88      	cbnz	r0, d5658 <_ZN7UbiHTTP9reconnectEPKci+0x88>
   d55f4:	7f23      	ldrb	r3, [r4, #28]
   d55f6:	454b      	cmp	r3, r9
   d55f8:	d92e      	bls.n	d5658 <_ZN7UbiHTTP9reconnectEPKci+0x88>
    if (_debug) {
   d55fa:	7d23      	ldrb	r3, [r4, #20]
   d55fc:	b1cb      	cbz	r3, d5632 <_ZN7UbiHTTP9reconnectEPKci+0x62>
      Serial.print("Trying to connect to ");
   d55fe:	f003 fc77 	bl	d8ef0 <_Z16_fetch_usbserialv>
   d5602:	4651      	mov	r1, sl
   d5604:	f002 fc44 	bl	d7e90 <_ZN5Print5printEPKc>
      Serial.print(host);
   d5608:	f003 fc72 	bl	d8ef0 <_Z16_fetch_usbserialv>
   d560c:	4629      	mov	r1, r5
   d560e:	f002 fc3f 	bl	d7e90 <_ZN5Print5printEPKc>
      Serial.print(" , attempt number: ");
   d5612:	f003 fc6d 	bl	d8ef0 <_Z16_fetch_usbserialv>
   d5616:	4659      	mov	r1, fp
   d5618:	f002 fc3a 	bl	d7e90 <_ZN5Print5printEPKc>
      Serial.println(attempts);
   d561c:	f003 fc68 	bl	d8ef0 <_Z16_fetch_usbserialv>
            val = n;
        }
#if __GNUC__ >= 9
#pragma GCC diagnostic pop
#endif // __GNUC__ >= 9
        return printNumber(val, base) + t;
   d5620:	220a      	movs	r2, #10
   d5622:	4649      	mov	r1, r9
   d5624:	9001      	str	r0, [sp, #4]
   d5626:	f002 fc50 	bl	d7eca <_ZN5Print11printNumberEmh>
        n += println();
   d562a:	9b01      	ldr	r3, [sp, #4]
   d562c:	4618      	mov	r0, r3
   d562e:	f002 fc36 	bl	d7e9e <_ZN5Print7printlnEv>
    _client_http_ubi.connect(host, port);
   d5632:	2300      	movs	r3, #0
   d5634:	b2ba      	uxth	r2, r7
   d5636:	4629      	mov	r1, r5
   d5638:	4640      	mov	r0, r8
   d563a:	f003 f833 	bl	d86a4 <_ZN9TCPClient7connectEPKctm>
    if (_debug) {
   d563e:	7d23      	ldrb	r3, [r4, #20]
   d5640:	b123      	cbz	r3, d564c <_ZN7UbiHTTP9reconnectEPKci+0x7c>
      Serial.println("Attempt finished");
   d5642:	f003 fc55 	bl	d8ef0 <_Z16_fetch_usbserialv>
   d5646:	4906      	ldr	r1, [pc, #24]	; (d5660 <_ZN7UbiHTTP9reconnectEPKci+0x90>)
   d5648:	f002 fc35 	bl	d7eb6 <_ZN5Print7printlnEPKc>
    delay(1000);
   d564c:	f44f 707a 	mov.w	r0, #1000	; 0x3e8
   d5650:	f001 fccc 	bl	d6fec <delay>
   d5654:	3601      	adds	r6, #1
  while (!_client_http_ubi.connected() && attempts < _maxReconnectAttempts) {
   d5656:	e7c7      	b.n	d55e8 <_ZN7UbiHTTP9reconnectEPKci+0x18>
}
   d5658:	b003      	add	sp, #12
   d565a:	e8bd 8ff0 	ldmia.w	sp!, {r4, r5, r6, r7, r8, r9, sl, fp, pc}
   d565e:	bf00      	nop
   d5660:	000dc662 	.word	0x000dc662
   d5664:	2003e538 	.word	0x2003e538
   d5668:	000dc638 	.word	0x000dc638
   d566c:	000dc64e 	.word	0x000dc64e

000d5670 <_ZN7UbiHTTP16readServerAnswerEPc>:
void UbiHTTP::readServerAnswer(char* response) {
   d5670:	e92d 41f0 	stmdb	sp!, {r4, r5, r6, r7, r8, lr}
   d5674:	1e4b      	subs	r3, r1, #1
   d5676:	460c      	mov	r4, r1
   d5678:	f501 722f 	add.w	r2, r1, #700	; 0x2bc
   d567c:	4605      	mov	r5, r0
    response[i] = '\0';
   d567e:	2100      	movs	r1, #0
   d5680:	f803 1f01 	strb.w	r1, [r3, #1]!
  for (int i = 0; i <= MAX_BUFFER_SIZE; i++) {
   d5684:	4293      	cmp	r3, r2
   d5686:	d1fb      	bne.n	d5680 <_ZN7UbiHTTP16readServerAnswerEPc+0x10>
  if (_debug) {
   d5688:	7d2b      	ldrb	r3, [r5, #20]
   d568a:	b14b      	cbz	r3, d56a0 <_ZN7UbiHTTP16readServerAnswerEPc+0x30>
    Serial.println("----------");
   d568c:	f003 fc30 	bl	d8ef0 <_Z16_fetch_usbserialv>
   d5690:	4914      	ldr	r1, [pc, #80]	; (d56e4 <_ZN7UbiHTTP16readServerAnswerEPc+0x74>)
   d5692:	f002 fc10 	bl	d7eb6 <_ZN5Print7printlnEPKc>
    Serial.println("Server's response:");
   d5696:	f003 fc2b 	bl	d8ef0 <_Z16_fetch_usbserialv>
   d569a:	4913      	ldr	r1, [pc, #76]	; (d56e8 <_ZN7UbiHTTP16readServerAnswerEPc+0x78>)
   d569c:	f002 fc0b 	bl	d7eb6 <_ZN5Print7printlnEPKc>
  while (_client_http_ubi.available()) {
   d56a0:	4f12      	ldr	r7, [pc, #72]	; (d56ec <_ZN7UbiHTTP16readServerAnswerEPc+0x7c>)
void UbiHTTP::readServerAnswer(char* response) {
   d56a2:	2600      	movs	r6, #0
    if (j >= MAX_BUFFER_SIZE - 1) {
   d56a4:	f240 28bb 	movw	r8, #699	; 0x2bb
  while (_client_http_ubi.available()) {
   d56a8:	4638      	mov	r0, r7
   d56aa:	f002 ff2d 	bl	d8508 <_ZN9TCPClient9availableEv>
   d56ae:	b170      	cbz	r0, d56ce <_ZN7UbiHTTP16readServerAnswerEPc+0x5e>
    response[j] = (char)_client_http_ubi.read();
   d56b0:	4638      	mov	r0, r7
   d56b2:	f002 fe62 	bl	d837a <_ZN9TCPClient4readEv>
   d56b6:	55a0      	strb	r0, [r4, r6]
    if (_debug) {
   d56b8:	7d2b      	ldrb	r3, [r5, #20]
   d56ba:	b12b      	cbz	r3, d56c8 <_ZN7UbiHTTP16readServerAnswerEPc+0x58>
      Serial.write(response[j]);
   d56bc:	f003 fc18 	bl	d8ef0 <_Z16_fetch_usbserialv>
   d56c0:	6803      	ldr	r3, [r0, #0]
   d56c2:	5da1      	ldrb	r1, [r4, r6]
   d56c4:	689b      	ldr	r3, [r3, #8]
   d56c6:	4798      	blx	r3
    j++;
   d56c8:	3601      	adds	r6, #1
    if (j >= MAX_BUFFER_SIZE - 1) {
   d56ca:	4546      	cmp	r6, r8
   d56cc:	d1ec      	bne.n	d56a8 <_ZN7UbiHTTP16readServerAnswerEPc+0x38>
  if (_debug) {
   d56ce:	7d2b      	ldrb	r3, [r5, #20]
   d56d0:	b133      	cbz	r3, d56e0 <_ZN7UbiHTTP16readServerAnswerEPc+0x70>
    Serial.println("\n----------");
   d56d2:	f003 fc0d 	bl	d8ef0 <_Z16_fetch_usbserialv>
}
   d56d6:	e8bd 41f0 	ldmia.w	sp!, {r4, r5, r6, r7, r8, lr}
    Serial.println("\n----------");
   d56da:	4905      	ldr	r1, [pc, #20]	; (d56f0 <_ZN7UbiHTTP16readServerAnswerEPc+0x80>)
   d56dc:	f002 bbeb 	b.w	d7eb6 <_ZN5Print7printlnEPKc>
}
   d56e0:	e8bd 81f0 	ldmia.w	sp!, {r4, r5, r6, r7, r8, pc}
   d56e4:	000dc687 	.word	0x000dc687
   d56e8:	000dc673 	.word	0x000dc673
   d56ec:	2003e538 	.word	0x2003e538
   d56f0:	000dc686 	.word	0x000dc686

000d56f4 <_ZN7UbiHTTP16waitServerAnswerEv>:
bool UbiHTTP::waitServerAnswer() {
   d56f4:	b5f8      	push	{r3, r4, r5, r6, r7, lr}
  while (!_client_http_ubi.available() && timeout < _timeout) {
   d56f6:	4f0e      	ldr	r7, [pc, #56]	; (d5730 <_ZN7UbiHTTP16waitServerAnswerEv+0x3c>)
bool UbiHTTP::waitServerAnswer() {
   d56f8:	4604      	mov	r4, r0
  int timeout = 0;
   d56fa:	2600      	movs	r6, #0
  while (!_client_http_ubi.available() && timeout < _timeout) {
   d56fc:	4638      	mov	r0, r7
   d56fe:	f002 ff03 	bl	d8508 <_ZN9TCPClient9availableEv>
   d5702:	4605      	mov	r5, r0
   d5704:	b990      	cbnz	r0, d572c <_ZN7UbiHTTP16waitServerAnswerEv+0x38>
   d5706:	69a3      	ldr	r3, [r4, #24]
   d5708:	42b3      	cmp	r3, r6
   d570a:	dd0f      	ble.n	d572c <_ZN7UbiHTTP16waitServerAnswerEv+0x38>
    delay(1);
   d570c:	2001      	movs	r0, #1
   d570e:	f001 fc6d 	bl	d6fec <delay>
    if (timeout > _timeout - 1) {
   d5712:	69a3      	ldr	r3, [r4, #24]
    timeout++;
   d5714:	3601      	adds	r6, #1
    if (timeout > _timeout - 1) {
   d5716:	42b3      	cmp	r3, r6
   d5718:	dcf0      	bgt.n	d56fc <_ZN7UbiHTTP16waitServerAnswerEv+0x8>
      if (_debug) {
   d571a:	7d20      	ldrb	r0, [r4, #20]
   d571c:	b128      	cbz	r0, d572a <_ZN7UbiHTTP16waitServerAnswerEv+0x36>
        Serial.println("timeout, could not read any response from the host");
   d571e:	f003 fbe7 	bl	d8ef0 <_Z16_fetch_usbserialv>
   d5722:	4904      	ldr	r1, [pc, #16]	; (d5734 <_ZN7UbiHTTP16waitServerAnswerEv+0x40>)
   d5724:	f002 fbc7 	bl	d7eb6 <_ZN5Print7printlnEPKc>
   d5728:	4628      	mov	r0, r5
}
   d572a:	bdf8      	pop	{r3, r4, r5, r6, r7, pc}
  return true;
   d572c:	2001      	movs	r0, #1
   d572e:	e7fc      	b.n	d572a <_ZN7UbiHTTP16waitServerAnswerEv+0x36>
   d5730:	2003e538 	.word	0x2003e538
   d5734:	000dc692 	.word	0x000dc692

000d5738 <_ZN7UbiHTTP8sendDataEPKcS1_PcP8UbiFlags>:
bool UbiHTTP::sendData(const char* device_label, const char* device_name, char* payload, UbiFlags* flags) {
   d5738:	b5f8      	push	{r3, r4, r5, r6, r7, lr}
   d573a:	460f      	mov	r7, r1
  reconnect(_host, _port);
   d573c:	6902      	ldr	r2, [r0, #16]
   d573e:	6841      	ldr	r1, [r0, #4]
bool UbiHTTP::sendData(const char* device_label, const char* device_name, char* payload, UbiFlags* flags) {
   d5740:	4604      	mov	r4, r0
   d5742:	461d      	mov	r5, r3
  reconnect(_host, _port);
   d5744:	f7ff ff44 	bl	d55d0 <_ZN7UbiHTTP9reconnectEPKci>
  if (_client_http_ubi.connected()) {  // Connect to the host
   d5748:	4878      	ldr	r0, [pc, #480]	; (d592c <_ZN7UbiHTTP8sendDataEPKcS1_PcP8UbiFlags+0x1f4>)
   d574a:	f002 fd7a 	bl	d8242 <_ZN9TCPClient9connectedEv>
   d574e:	4606      	mov	r6, r0
   d5750:	2800      	cmp	r0, #0
   d5752:	f000 80e1 	beq.w	d5918 <_ZN7UbiHTTP8sendDataEPKcS1_PcP8UbiFlags+0x1e0>
    _client_http_ubi.print(F("POST /api/v1.6/devices/"));
   d5756:	4976      	ldr	r1, [pc, #472]	; (d5930 <_ZN7UbiHTTP8sendDataEPKcS1_PcP8UbiFlags+0x1f8>)
   d5758:	4874      	ldr	r0, [pc, #464]	; (d592c <_ZN7UbiHTTP8sendDataEPKcS1_PcP8UbiFlags+0x1f4>)
   d575a:	f002 fb99 	bl	d7e90 <_ZN5Print5printEPKc>
    _client_http_ubi.print(device_label);
   d575e:	4639      	mov	r1, r7
   d5760:	4872      	ldr	r0, [pc, #456]	; (d592c <_ZN7UbiHTTP8sendDataEPKcS1_PcP8UbiFlags+0x1f4>)
   d5762:	f002 fb95 	bl	d7e90 <_ZN5Print5printEPKc>
    _client_http_ubi.print(F(" HTTP/1.1\r\n"));
   d5766:	4973      	ldr	r1, [pc, #460]	; (d5934 <_ZN7UbiHTTP8sendDataEPKcS1_PcP8UbiFlags+0x1fc>)
   d5768:	4870      	ldr	r0, [pc, #448]	; (d592c <_ZN7UbiHTTP8sendDataEPKcS1_PcP8UbiFlags+0x1f4>)
   d576a:	f002 fb91 	bl	d7e90 <_ZN5Print5printEPKc>
    _client_http_ubi.print(F("Host: "));
   d576e:	4972      	ldr	r1, [pc, #456]	; (d5938 <_ZN7UbiHTTP8sendDataEPKcS1_PcP8UbiFlags+0x200>)
   d5770:	486e      	ldr	r0, [pc, #440]	; (d592c <_ZN7UbiHTTP8sendDataEPKcS1_PcP8UbiFlags+0x1f4>)
   d5772:	f002 fb8d 	bl	d7e90 <_ZN5Print5printEPKc>
    _client_http_ubi.print(_host);
   d5776:	6861      	ldr	r1, [r4, #4]
   d5778:	486c      	ldr	r0, [pc, #432]	; (d592c <_ZN7UbiHTTP8sendDataEPKcS1_PcP8UbiFlags+0x1f4>)
   d577a:	f002 fb89 	bl	d7e90 <_ZN5Print5printEPKc>
    _client_http_ubi.print(F("\r\n"));
   d577e:	496f      	ldr	r1, [pc, #444]	; (d593c <_ZN7UbiHTTP8sendDataEPKcS1_PcP8UbiFlags+0x204>)
   d5780:	486a      	ldr	r0, [pc, #424]	; (d592c <_ZN7UbiHTTP8sendDataEPKcS1_PcP8UbiFlags+0x1f4>)
   d5782:	f002 fb85 	bl	d7e90 <_ZN5Print5printEPKc>
    _client_http_ubi.print(F("User-Agent: "));
   d5786:	496e      	ldr	r1, [pc, #440]	; (d5940 <_ZN7UbiHTTP8sendDataEPKcS1_PcP8UbiFlags+0x208>)
   d5788:	4868      	ldr	r0, [pc, #416]	; (d592c <_ZN7UbiHTTP8sendDataEPKcS1_PcP8UbiFlags+0x1f4>)
   d578a:	f002 fb81 	bl	d7e90 <_ZN5Print5printEPKc>
    _client_http_ubi.print(_user_agent);
   d578e:	68a1      	ldr	r1, [r4, #8]
   d5790:	4866      	ldr	r0, [pc, #408]	; (d592c <_ZN7UbiHTTP8sendDataEPKcS1_PcP8UbiFlags+0x1f4>)
   d5792:	f002 fb7d 	bl	d7e90 <_ZN5Print5printEPKc>
    _client_http_ubi.print(F("\r\n"));
   d5796:	4969      	ldr	r1, [pc, #420]	; (d593c <_ZN7UbiHTTP8sendDataEPKcS1_PcP8UbiFlags+0x204>)
   d5798:	4864      	ldr	r0, [pc, #400]	; (d592c <_ZN7UbiHTTP8sendDataEPKcS1_PcP8UbiFlags+0x1f4>)
   d579a:	f002 fb79 	bl	d7e90 <_ZN5Print5printEPKc>
    _client_http_ubi.print(F("X-Auth-Token: "));
   d579e:	4969      	ldr	r1, [pc, #420]	; (d5944 <_ZN7UbiHTTP8sendDataEPKcS1_PcP8UbiFlags+0x20c>)
   d57a0:	4862      	ldr	r0, [pc, #392]	; (d592c <_ZN7UbiHTTP8sendDataEPKcS1_PcP8UbiFlags+0x1f4>)
   d57a2:	f002 fb75 	bl	d7e90 <_ZN5Print5printEPKc>
    _client_http_ubi.print(_token);
   d57a6:	68e1      	ldr	r1, [r4, #12]
   d57a8:	4860      	ldr	r0, [pc, #384]	; (d592c <_ZN7UbiHTTP8sendDataEPKcS1_PcP8UbiFlags+0x1f4>)
   d57aa:	f002 fb71 	bl	d7e90 <_ZN5Print5printEPKc>
    _client_http_ubi.print(F("\r\n"));
   d57ae:	4963      	ldr	r1, [pc, #396]	; (d593c <_ZN7UbiHTTP8sendDataEPKcS1_PcP8UbiFlags+0x204>)
   d57b0:	485e      	ldr	r0, [pc, #376]	; (d592c <_ZN7UbiHTTP8sendDataEPKcS1_PcP8UbiFlags+0x1f4>)
   d57b2:	f002 fb6d 	bl	d7e90 <_ZN5Print5printEPKc>
    _client_http_ubi.print(F("Connection: close\r\n"));
   d57b6:	4964      	ldr	r1, [pc, #400]	; (d5948 <_ZN7UbiHTTP8sendDataEPKcS1_PcP8UbiFlags+0x210>)
   d57b8:	485c      	ldr	r0, [pc, #368]	; (d592c <_ZN7UbiHTTP8sendDataEPKcS1_PcP8UbiFlags+0x1f4>)
   d57ba:	f002 fb69 	bl	d7e90 <_ZN5Print5printEPKc>
    _client_http_ubi.print(F("Content-Type: application/json\r\n"));
   d57be:	4963      	ldr	r1, [pc, #396]	; (d594c <_ZN7UbiHTTP8sendDataEPKcS1_PcP8UbiFlags+0x214>)
   d57c0:	485a      	ldr	r0, [pc, #360]	; (d592c <_ZN7UbiHTTP8sendDataEPKcS1_PcP8UbiFlags+0x1f4>)
   d57c2:	f002 fb65 	bl	d7e90 <_ZN5Print5printEPKc>
    int content_length = strlen(payload);
   d57c6:	4628      	mov	r0, r5
   d57c8:	f004 fe65 	bl	da496 <strlen>
    _client_http_ubi.print(F("Content-Length: "));
   d57cc:	4960      	ldr	r1, [pc, #384]	; (d5950 <_ZN7UbiHTTP8sendDataEPKcS1_PcP8UbiFlags+0x218>)
    int content_length = strlen(payload);
   d57ce:	4606      	mov	r6, r0
    _client_http_ubi.print(F("Content-Length: "));
   d57d0:	4856      	ldr	r0, [pc, #344]	; (d592c <_ZN7UbiHTTP8sendDataEPKcS1_PcP8UbiFlags+0x1f4>)
   d57d2:	f002 fb5d 	bl	d7e90 <_ZN5Print5printEPKc>
        return printNumber(val, base) + t;
   d57d6:	220a      	movs	r2, #10
   d57d8:	4631      	mov	r1, r6
   d57da:	4854      	ldr	r0, [pc, #336]	; (d592c <_ZN7UbiHTTP8sendDataEPKcS1_PcP8UbiFlags+0x1f4>)
   d57dc:	f002 fb75 	bl	d7eca <_ZN5Print11printNumberEmh>
    _client_http_ubi.print(F("\r\n\r\n"));
   d57e0:	495c      	ldr	r1, [pc, #368]	; (d5954 <_ZN7UbiHTTP8sendDataEPKcS1_PcP8UbiFlags+0x21c>)
   d57e2:	4852      	ldr	r0, [pc, #328]	; (d592c <_ZN7UbiHTTP8sendDataEPKcS1_PcP8UbiFlags+0x1f4>)
   d57e4:	f002 fb54 	bl	d7e90 <_ZN5Print5printEPKc>
    _client_http_ubi.print(payload);
   d57e8:	4629      	mov	r1, r5
   d57ea:	4850      	ldr	r0, [pc, #320]	; (d592c <_ZN7UbiHTTP8sendDataEPKcS1_PcP8UbiFlags+0x1f4>)
   d57ec:	f002 fb50 	bl	d7e90 <_ZN5Print5printEPKc>
    _client_http_ubi.print(F("\r\n"));
   d57f0:	4952      	ldr	r1, [pc, #328]	; (d593c <_ZN7UbiHTTP8sendDataEPKcS1_PcP8UbiFlags+0x204>)
   d57f2:	484e      	ldr	r0, [pc, #312]	; (d592c <_ZN7UbiHTTP8sendDataEPKcS1_PcP8UbiFlags+0x1f4>)
   d57f4:	f002 fb4c 	bl	d7e90 <_ZN5Print5printEPKc>
    _client_http_ubi.flush();
   d57f8:	484c      	ldr	r0, [pc, #304]	; (d592c <_ZN7UbiHTTP8sendDataEPKcS1_PcP8UbiFlags+0x1f4>)
   d57fa:	f002 fd21 	bl	d8240 <_ZN9TCPClient5flushEv>
    if (_debug) {
   d57fe:	7d23      	ldrb	r3, [r4, #20]
   d5800:	2b00      	cmp	r3, #0
   d5802:	d069      	beq.n	d58d8 <_ZN7UbiHTTP8sendDataEPKcS1_PcP8UbiFlags+0x1a0>
      Serial.println(F("Making request to Ubidots:\n"));
   d5804:	f003 fb74 	bl	d8ef0 <_Z16_fetch_usbserialv>
   d5808:	4953      	ldr	r1, [pc, #332]	; (d5958 <_ZN7UbiHTTP8sendDataEPKcS1_PcP8UbiFlags+0x220>)
   d580a:	f002 fb54 	bl	d7eb6 <_ZN5Print7printlnEPKc>
      Serial.print("POST /api/v1.6/devices/");
   d580e:	f003 fb6f 	bl	d8ef0 <_Z16_fetch_usbserialv>
   d5812:	4947      	ldr	r1, [pc, #284]	; (d5930 <_ZN7UbiHTTP8sendDataEPKcS1_PcP8UbiFlags+0x1f8>)
   d5814:	f002 fb3c 	bl	d7e90 <_ZN5Print5printEPKc>
      Serial.print(device_label);
   d5818:	f003 fb6a 	bl	d8ef0 <_Z16_fetch_usbserialv>
   d581c:	4639      	mov	r1, r7
   d581e:	f002 fb37 	bl	d7e90 <_ZN5Print5printEPKc>
      Serial.print(" HTTP/1.1\r\n");
   d5822:	f003 fb65 	bl	d8ef0 <_Z16_fetch_usbserialv>
   d5826:	4943      	ldr	r1, [pc, #268]	; (d5934 <_ZN7UbiHTTP8sendDataEPKcS1_PcP8UbiFlags+0x1fc>)
   d5828:	f002 fb32 	bl	d7e90 <_ZN5Print5printEPKc>
      Serial.print("Host: ");
   d582c:	f003 fb60 	bl	d8ef0 <_Z16_fetch_usbserialv>
   d5830:	4941      	ldr	r1, [pc, #260]	; (d5938 <_ZN7UbiHTTP8sendDataEPKcS1_PcP8UbiFlags+0x200>)
   d5832:	f002 fb2d 	bl	d7e90 <_ZN5Print5printEPKc>
      Serial.print(_host);
   d5836:	f003 fb5b 	bl	d8ef0 <_Z16_fetch_usbserialv>
   d583a:	6861      	ldr	r1, [r4, #4]
   d583c:	f002 fb28 	bl	d7e90 <_ZN5Print5printEPKc>
      Serial.print("\r\n");
   d5840:	f003 fb56 	bl	d8ef0 <_Z16_fetch_usbserialv>
   d5844:	493d      	ldr	r1, [pc, #244]	; (d593c <_ZN7UbiHTTP8sendDataEPKcS1_PcP8UbiFlags+0x204>)
   d5846:	f002 fb23 	bl	d7e90 <_ZN5Print5printEPKc>
      Serial.print("User-Agent: ");
   d584a:	f003 fb51 	bl	d8ef0 <_Z16_fetch_usbserialv>
   d584e:	493c      	ldr	r1, [pc, #240]	; (d5940 <_ZN7UbiHTTP8sendDataEPKcS1_PcP8UbiFlags+0x208>)
   d5850:	f002 fb1e 	bl	d7e90 <_ZN5Print5printEPKc>
      Serial.print(_user_agent);
   d5854:	f003 fb4c 	bl	d8ef0 <_Z16_fetch_usbserialv>
   d5858:	68a1      	ldr	r1, [r4, #8]
   d585a:	f002 fb19 	bl	d7e90 <_ZN5Print5printEPKc>
      Serial.print("\r\n");
   d585e:	f003 fb47 	bl	d8ef0 <_Z16_fetch_usbserialv>
   d5862:	4936      	ldr	r1, [pc, #216]	; (d593c <_ZN7UbiHTTP8sendDataEPKcS1_PcP8UbiFlags+0x204>)
   d5864:	f002 fb14 	bl	d7e90 <_ZN5Print5printEPKc>
      Serial.print("X-Auth-Token: ");
   d5868:	f003 fb42 	bl	d8ef0 <_Z16_fetch_usbserialv>
   d586c:	4935      	ldr	r1, [pc, #212]	; (d5944 <_ZN7UbiHTTP8sendDataEPKcS1_PcP8UbiFlags+0x20c>)
   d586e:	f002 fb0f 	bl	d7e90 <_ZN5Print5printEPKc>
      Serial.print(_token);
   d5872:	f003 fb3d 	bl	d8ef0 <_Z16_fetch_usbserialv>
   d5876:	68e1      	ldr	r1, [r4, #12]
   d5878:	f002 fb0a 	bl	d7e90 <_ZN5Print5printEPKc>
      Serial.print("\r\n");
   d587c:	f003 fb38 	bl	d8ef0 <_Z16_fetch_usbserialv>
   d5880:	492e      	ldr	r1, [pc, #184]	; (d593c <_ZN7UbiHTTP8sendDataEPKcS1_PcP8UbiFlags+0x204>)
   d5882:	f002 fb05 	bl	d7e90 <_ZN5Print5printEPKc>
      Serial.print("Connection: close\r\n");
   d5886:	f003 fb33 	bl	d8ef0 <_Z16_fetch_usbserialv>
   d588a:	492f      	ldr	r1, [pc, #188]	; (d5948 <_ZN7UbiHTTP8sendDataEPKcS1_PcP8UbiFlags+0x210>)
   d588c:	f002 fb00 	bl	d7e90 <_ZN5Print5printEPKc>
      Serial.print("Content-Type: application/json\r\n");
   d5890:	f003 fb2e 	bl	d8ef0 <_Z16_fetch_usbserialv>
   d5894:	492d      	ldr	r1, [pc, #180]	; (d594c <_ZN7UbiHTTP8sendDataEPKcS1_PcP8UbiFlags+0x214>)
   d5896:	f002 fafb 	bl	d7e90 <_ZN5Print5printEPKc>
      Serial.print("Content-Length: ");
   d589a:	f003 fb29 	bl	d8ef0 <_Z16_fetch_usbserialv>
   d589e:	492c      	ldr	r1, [pc, #176]	; (d5950 <_ZN7UbiHTTP8sendDataEPKcS1_PcP8UbiFlags+0x218>)
   d58a0:	f002 faf6 	bl	d7e90 <_ZN5Print5printEPKc>
      Serial.print(content_length);
   d58a4:	f003 fb24 	bl	d8ef0 <_Z16_fetch_usbserialv>
   d58a8:	220a      	movs	r2, #10
   d58aa:	4631      	mov	r1, r6
   d58ac:	f002 fb0d 	bl	d7eca <_ZN5Print11printNumberEmh>
      Serial.print("\r\n\r\n");
   d58b0:	f003 fb1e 	bl	d8ef0 <_Z16_fetch_usbserialv>
   d58b4:	4927      	ldr	r1, [pc, #156]	; (d5954 <_ZN7UbiHTTP8sendDataEPKcS1_PcP8UbiFlags+0x21c>)
   d58b6:	f002 faeb 	bl	d7e90 <_ZN5Print5printEPKc>
      Serial.print(payload);
   d58ba:	f003 fb19 	bl	d8ef0 <_Z16_fetch_usbserialv>
   d58be:	4629      	mov	r1, r5
   d58c0:	f002 fae6 	bl	d7e90 <_ZN5Print5printEPKc>
      Serial.print("\r\n");
   d58c4:	f003 fb14 	bl	d8ef0 <_Z16_fetch_usbserialv>
   d58c8:	491c      	ldr	r1, [pc, #112]	; (d593c <_ZN7UbiHTTP8sendDataEPKcS1_PcP8UbiFlags+0x204>)
   d58ca:	f002 fae1 	bl	d7e90 <_ZN5Print5printEPKc>
      Serial.println("waiting for server answer ...");
   d58ce:	f003 fb0f 	bl	d8ef0 <_Z16_fetch_usbserialv>
   d58d2:	4922      	ldr	r1, [pc, #136]	; (d595c <_ZN7UbiHTTP8sendDataEPKcS1_PcP8UbiFlags+0x224>)
   d58d4:	f002 faef 	bl	d7eb6 <_ZN5Print7printlnEPKc>
    waitServerAnswer();
   d58d8:	4620      	mov	r0, r4
   d58da:	f7ff ff0b 	bl	d56f4 <_ZN7UbiHTTP16waitServerAnswerEv>
    if (_debug) {
   d58de:	7d23      	ldrb	r3, [r4, #20]
   d58e0:	b92b      	cbnz	r3, d58ee <_ZN7UbiHTTP8sendDataEPKcS1_PcP8UbiFlags+0x1b6>
    result = true;
   d58e2:	2401      	movs	r4, #1
  _client_http_ubi.stop();
   d58e4:	4811      	ldr	r0, [pc, #68]	; (d592c <_ZN7UbiHTTP8sendDataEPKcS1_PcP8UbiFlags+0x1f4>)
   d58e6:	f002 fe69 	bl	d85bc <_ZN9TCPClient4stopEv>
}
   d58ea:	4620      	mov	r0, r4
   d58ec:	bdf8      	pop	{r3, r4, r5, r6, r7, pc}
      Serial.println("\nUbidots' Server response:\n");
   d58ee:	f003 faff 	bl	d8ef0 <_Z16_fetch_usbserialv>
   d58f2:	491b      	ldr	r1, [pc, #108]	; (d5960 <_ZN7UbiHTTP8sendDataEPKcS1_PcP8UbiFlags+0x228>)
      while (_client_http_ubi.available()) {
   d58f4:	4d0d      	ldr	r5, [pc, #52]	; (d592c <_ZN7UbiHTTP8sendDataEPKcS1_PcP8UbiFlags+0x1f4>)
      Serial.println("\nUbidots' Server response:\n");
   d58f6:	f002 fade 	bl	d7eb6 <_ZN5Print7printlnEPKc>
      while (_client_http_ubi.available()) {
   d58fa:	4628      	mov	r0, r5
   d58fc:	f002 fe04 	bl	d8508 <_ZN9TCPClient9availableEv>
   d5900:	2800      	cmp	r0, #0
   d5902:	d0ee      	beq.n	d58e2 <_ZN7UbiHTTP8sendDataEPKcS1_PcP8UbiFlags+0x1aa>
        char c = _client_http_ubi.read();
   d5904:	4628      	mov	r0, r5
   d5906:	f002 fd38 	bl	d837a <_ZN9TCPClient4readEv>
   d590a:	4604      	mov	r4, r0
        Serial.print(c);
   d590c:	f003 faf0 	bl	d8ef0 <_Z16_fetch_usbserialv>
   d5910:	b2e1      	uxtb	r1, r4
   d5912:	f002 fac1 	bl	d7e98 <_ZN5Print5printEc>
      while (_client_http_ubi.available()) {
   d5916:	e7f0      	b.n	d58fa <_ZN7UbiHTTP8sendDataEPKcS1_PcP8UbiFlags+0x1c2>
    if (_debug) {
   d5918:	7d24      	ldrb	r4, [r4, #20]
   d591a:	2c00      	cmp	r4, #0
   d591c:	d0e2      	beq.n	d58e4 <_ZN7UbiHTTP8sendDataEPKcS1_PcP8UbiFlags+0x1ac>
      Serial.println("Could not send data to ubidots using HTTP");
   d591e:	f003 fae7 	bl	d8ef0 <_Z16_fetch_usbserialv>
   d5922:	4910      	ldr	r1, [pc, #64]	; (d5964 <_ZN7UbiHTTP8sendDataEPKcS1_PcP8UbiFlags+0x22c>)
   d5924:	f002 fac7 	bl	d7eb6 <_ZN5Print7printlnEPKc>
  bool result = false;
   d5928:	4634      	mov	r4, r6
   d592a:	e7db      	b.n	d58e4 <_ZN7UbiHTTP8sendDataEPKcS1_PcP8UbiFlags+0x1ac>
   d592c:	2003e538 	.word	0x2003e538
   d5930:	000dc6c5 	.word	0x000dc6c5
   d5934:	000dc6dd 	.word	0x000dc6dd
   d5938:	000dc6e9 	.word	0x000dc6e9
   d593c:	000dc80d 	.word	0x000dc80d
   d5940:	000dc6f0 	.word	0x000dc6f0
   d5944:	000dc6fd 	.word	0x000dc6fd
   d5948:	000dc70c 	.word	0x000dc70c
   d594c:	000dc720 	.word	0x000dc720
   d5950:	000dc741 	.word	0x000dc741
   d5954:	000dc80b 	.word	0x000dc80b
   d5958:	000dc752 	.word	0x000dc752
   d595c:	000dc76e 	.word	0x000dc76e
   d5960:	000dc78c 	.word	0x000dc78c
   d5964:	000dc7a8 	.word	0x000dc7a8

000d5968 <_ZN7UbiHTTP3getEPKcS1_>:
float UbiHTTP::get(const char* device_label, const char* variable_label) {
   d5968:	b570      	push	{r4, r5, r6, lr}
   d596a:	ed2d 8b02 	vpush	{d8}
   d596e:	4604      	mov	r4, r0
  _client_http_ubi.connect(_host, UBIDOTS_HTTP_PORT);
   d5970:	2300      	movs	r3, #0
float UbiHTTP::get(const char* device_label, const char* variable_label) {
   d5972:	460e      	mov	r6, r1
   d5974:	4615      	mov	r5, r2
  _client_http_ubi.connect(_host, UBIDOTS_HTTP_PORT);
   d5976:	6841      	ldr	r1, [r0, #4]
   d5978:	4866      	ldr	r0, [pc, #408]	; (d5b14 <_ZN7UbiHTTP3getEPKcS1_+0x1ac>)
   d597a:	2250      	movs	r2, #80	; 0x50
   d597c:	f002 fe92 	bl	d86a4 <_ZN9TCPClient7connectEPKctm>
  reconnect(_host, UBIDOTS_HTTP_PORT);
   d5980:	4620      	mov	r0, r4
   d5982:	6861      	ldr	r1, [r4, #4]
   d5984:	2250      	movs	r2, #80	; 0x50
   d5986:	f7ff fe23 	bl	d55d0 <_ZN7UbiHTTP9reconnectEPKci>
  if (_client_http_ubi.connected()) {
   d598a:	4862      	ldr	r0, [pc, #392]	; (d5b14 <_ZN7UbiHTTP3getEPKcS1_+0x1ac>)
   d598c:	f002 fc59 	bl	d8242 <_ZN9TCPClient9connectedEv>
   d5990:	2800      	cmp	r0, #0
   d5992:	f000 80b6 	beq.w	d5b02 <_ZN7UbiHTTP3getEPKcS1_+0x19a>
    _client_http_ubi.print(F("GET /api/v1.6/devices/"));
   d5996:	4960      	ldr	r1, [pc, #384]	; (d5b18 <_ZN7UbiHTTP3getEPKcS1_+0x1b0>)
   d5998:	485e      	ldr	r0, [pc, #376]	; (d5b14 <_ZN7UbiHTTP3getEPKcS1_+0x1ac>)
   d599a:	f002 fa79 	bl	d7e90 <_ZN5Print5printEPKc>
    _client_http_ubi.print(device_label);
   d599e:	4631      	mov	r1, r6
   d59a0:	485c      	ldr	r0, [pc, #368]	; (d5b14 <_ZN7UbiHTTP3getEPKcS1_+0x1ac>)
   d59a2:	f002 fa75 	bl	d7e90 <_ZN5Print5printEPKc>
    _client_http_ubi.print("/");
   d59a6:	495d      	ldr	r1, [pc, #372]	; (d5b1c <_ZN7UbiHTTP3getEPKcS1_+0x1b4>)
   d59a8:	485a      	ldr	r0, [pc, #360]	; (d5b14 <_ZN7UbiHTTP3getEPKcS1_+0x1ac>)
   d59aa:	f002 fa71 	bl	d7e90 <_ZN5Print5printEPKc>
    _client_http_ubi.print(variable_label);
   d59ae:	4629      	mov	r1, r5
   d59b0:	4858      	ldr	r0, [pc, #352]	; (d5b14 <_ZN7UbiHTTP3getEPKcS1_+0x1ac>)
   d59b2:	f002 fa6d 	bl	d7e90 <_ZN5Print5printEPKc>
    _client_http_ubi.print("/lv");
   d59b6:	495a      	ldr	r1, [pc, #360]	; (d5b20 <_ZN7UbiHTTP3getEPKcS1_+0x1b8>)
   d59b8:	4856      	ldr	r0, [pc, #344]	; (d5b14 <_ZN7UbiHTTP3getEPKcS1_+0x1ac>)
   d59ba:	f002 fa69 	bl	d7e90 <_ZN5Print5printEPKc>
    _client_http_ubi.print(" HTTP/1.1\r\n");
   d59be:	4959      	ldr	r1, [pc, #356]	; (d5b24 <_ZN7UbiHTTP3getEPKcS1_+0x1bc>)
   d59c0:	4854      	ldr	r0, [pc, #336]	; (d5b14 <_ZN7UbiHTTP3getEPKcS1_+0x1ac>)
   d59c2:	f002 fa65 	bl	d7e90 <_ZN5Print5printEPKc>
    _client_http_ubi.print("Host: ");
   d59c6:	4958      	ldr	r1, [pc, #352]	; (d5b28 <_ZN7UbiHTTP3getEPKcS1_+0x1c0>)
   d59c8:	4852      	ldr	r0, [pc, #328]	; (d5b14 <_ZN7UbiHTTP3getEPKcS1_+0x1ac>)
   d59ca:	f002 fa61 	bl	d7e90 <_ZN5Print5printEPKc>
    _client_http_ubi.print(_host);
   d59ce:	6861      	ldr	r1, [r4, #4]
   d59d0:	4850      	ldr	r0, [pc, #320]	; (d5b14 <_ZN7UbiHTTP3getEPKcS1_+0x1ac>)
   d59d2:	f002 fa5d 	bl	d7e90 <_ZN5Print5printEPKc>
    _client_http_ubi.print("\r\n");
   d59d6:	4955      	ldr	r1, [pc, #340]	; (d5b2c <_ZN7UbiHTTP3getEPKcS1_+0x1c4>)
   d59d8:	484e      	ldr	r0, [pc, #312]	; (d5b14 <_ZN7UbiHTTP3getEPKcS1_+0x1ac>)
   d59da:	f002 fa59 	bl	d7e90 <_ZN5Print5printEPKc>
    _client_http_ubi.print("User-Agent: ");
   d59de:	4954      	ldr	r1, [pc, #336]	; (d5b30 <_ZN7UbiHTTP3getEPKcS1_+0x1c8>)
   d59e0:	484c      	ldr	r0, [pc, #304]	; (d5b14 <_ZN7UbiHTTP3getEPKcS1_+0x1ac>)
   d59e2:	f002 fa55 	bl	d7e90 <_ZN5Print5printEPKc>
    _client_http_ubi.print(_user_agent);
   d59e6:	68a1      	ldr	r1, [r4, #8]
   d59e8:	484a      	ldr	r0, [pc, #296]	; (d5b14 <_ZN7UbiHTTP3getEPKcS1_+0x1ac>)
   d59ea:	f002 fa51 	bl	d7e90 <_ZN5Print5printEPKc>
    _client_http_ubi.print("\r\n");
   d59ee:	494f      	ldr	r1, [pc, #316]	; (d5b2c <_ZN7UbiHTTP3getEPKcS1_+0x1c4>)
   d59f0:	4848      	ldr	r0, [pc, #288]	; (d5b14 <_ZN7UbiHTTP3getEPKcS1_+0x1ac>)
   d59f2:	f002 fa4d 	bl	d7e90 <_ZN5Print5printEPKc>
    _client_http_ubi.print("X-Auth-Token: ");
   d59f6:	494f      	ldr	r1, [pc, #316]	; (d5b34 <_ZN7UbiHTTP3getEPKcS1_+0x1cc>)
   d59f8:	4846      	ldr	r0, [pc, #280]	; (d5b14 <_ZN7UbiHTTP3getEPKcS1_+0x1ac>)
   d59fa:	f002 fa49 	bl	d7e90 <_ZN5Print5printEPKc>
    _client_http_ubi.print(_token);
   d59fe:	68e1      	ldr	r1, [r4, #12]
   d5a00:	4844      	ldr	r0, [pc, #272]	; (d5b14 <_ZN7UbiHTTP3getEPKcS1_+0x1ac>)
   d5a02:	f002 fa45 	bl	d7e90 <_ZN5Print5printEPKc>
    _client_http_ubi.print("\r\n");
   d5a06:	4949      	ldr	r1, [pc, #292]	; (d5b2c <_ZN7UbiHTTP3getEPKcS1_+0x1c4>)
   d5a08:	4842      	ldr	r0, [pc, #264]	; (d5b14 <_ZN7UbiHTTP3getEPKcS1_+0x1ac>)
   d5a0a:	f002 fa41 	bl	d7e90 <_ZN5Print5printEPKc>
    _client_http_ubi.print("Content-Type: application/json\r\n\r\n");
   d5a0e:	494a      	ldr	r1, [pc, #296]	; (d5b38 <_ZN7UbiHTTP3getEPKcS1_+0x1d0>)
   d5a10:	4840      	ldr	r0, [pc, #256]	; (d5b14 <_ZN7UbiHTTP3getEPKcS1_+0x1ac>)
   d5a12:	f002 fa3d 	bl	d7e90 <_ZN5Print5printEPKc>
    if (_debug) {
   d5a16:	7d23      	ldrb	r3, [r4, #20]
   d5a18:	2b00      	cmp	r3, #0
   d5a1a:	d04f      	beq.n	d5abc <_ZN7UbiHTTP3getEPKcS1_+0x154>
      Serial.print("GET /api/v1.6/devices/");
   d5a1c:	f003 fa68 	bl	d8ef0 <_Z16_fetch_usbserialv>
   d5a20:	493d      	ldr	r1, [pc, #244]	; (d5b18 <_ZN7UbiHTTP3getEPKcS1_+0x1b0>)
   d5a22:	f002 fa35 	bl	d7e90 <_ZN5Print5printEPKc>
      Serial.print(device_label);
   d5a26:	f003 fa63 	bl	d8ef0 <_Z16_fetch_usbserialv>
   d5a2a:	4631      	mov	r1, r6
   d5a2c:	f002 fa30 	bl	d7e90 <_ZN5Print5printEPKc>
      Serial.print("/");
   d5a30:	f003 fa5e 	bl	d8ef0 <_Z16_fetch_usbserialv>
   d5a34:	4939      	ldr	r1, [pc, #228]	; (d5b1c <_ZN7UbiHTTP3getEPKcS1_+0x1b4>)
   d5a36:	f002 fa2b 	bl	d7e90 <_ZN5Print5printEPKc>
      Serial.print(variable_label);
   d5a3a:	f003 fa59 	bl	d8ef0 <_Z16_fetch_usbserialv>
   d5a3e:	4629      	mov	r1, r5
   d5a40:	f002 fa26 	bl	d7e90 <_ZN5Print5printEPKc>
      Serial.print("/lv");
   d5a44:	f003 fa54 	bl	d8ef0 <_Z16_fetch_usbserialv>
   d5a48:	4935      	ldr	r1, [pc, #212]	; (d5b20 <_ZN7UbiHTTP3getEPKcS1_+0x1b8>)
   d5a4a:	f002 fa21 	bl	d7e90 <_ZN5Print5printEPKc>
      Serial.print(" HTTP/1.1\r\n");
   d5a4e:	f003 fa4f 	bl	d8ef0 <_Z16_fetch_usbserialv>
   d5a52:	4934      	ldr	r1, [pc, #208]	; (d5b24 <_ZN7UbiHTTP3getEPKcS1_+0x1bc>)
   d5a54:	f002 fa1c 	bl	d7e90 <_ZN5Print5printEPKc>
      Serial.print("Host: ");
   d5a58:	f003 fa4a 	bl	d8ef0 <_Z16_fetch_usbserialv>
   d5a5c:	4932      	ldr	r1, [pc, #200]	; (d5b28 <_ZN7UbiHTTP3getEPKcS1_+0x1c0>)
   d5a5e:	f002 fa17 	bl	d7e90 <_ZN5Print5printEPKc>
      Serial.print(_host);
   d5a62:	f003 fa45 	bl	d8ef0 <_Z16_fetch_usbserialv>
   d5a66:	6861      	ldr	r1, [r4, #4]
   d5a68:	f002 fa12 	bl	d7e90 <_ZN5Print5printEPKc>
      Serial.print("\r\n");
   d5a6c:	f003 fa40 	bl	d8ef0 <_Z16_fetch_usbserialv>
   d5a70:	492e      	ldr	r1, [pc, #184]	; (d5b2c <_ZN7UbiHTTP3getEPKcS1_+0x1c4>)
   d5a72:	f002 fa0d 	bl	d7e90 <_ZN5Print5printEPKc>
      Serial.print("User-Agent: ");
   d5a76:	f003 fa3b 	bl	d8ef0 <_Z16_fetch_usbserialv>
   d5a7a:	492d      	ldr	r1, [pc, #180]	; (d5b30 <_ZN7UbiHTTP3getEPKcS1_+0x1c8>)
   d5a7c:	f002 fa08 	bl	d7e90 <_ZN5Print5printEPKc>
      Serial.print(_user_agent);
   d5a80:	f003 fa36 	bl	d8ef0 <_Z16_fetch_usbserialv>
   d5a84:	68a1      	ldr	r1, [r4, #8]
   d5a86:	f002 fa03 	bl	d7e90 <_ZN5Print5printEPKc>
      Serial.print("\r\n");
   d5a8a:	f003 fa31 	bl	d8ef0 <_Z16_fetch_usbserialv>
   d5a8e:	4927      	ldr	r1, [pc, #156]	; (d5b2c <_ZN7UbiHTTP3getEPKcS1_+0x1c4>)
   d5a90:	f002 f9fe 	bl	d7e90 <_ZN5Print5printEPKc>
      Serial.print("X-Auth-Token: ");
   d5a94:	f003 fa2c 	bl	d8ef0 <_Z16_fetch_usbserialv>
   d5a98:	4926      	ldr	r1, [pc, #152]	; (d5b34 <_ZN7UbiHTTP3getEPKcS1_+0x1cc>)
   d5a9a:	f002 f9f9 	bl	d7e90 <_ZN5Print5printEPKc>
      Serial.print(_token);
   d5a9e:	f003 fa27 	bl	d8ef0 <_Z16_fetch_usbserialv>
   d5aa2:	68e1      	ldr	r1, [r4, #12]
   d5aa4:	f002 f9f4 	bl	d7e90 <_ZN5Print5printEPKc>
      Serial.print("\r\n");
   d5aa8:	f003 fa22 	bl	d8ef0 <_Z16_fetch_usbserialv>
   d5aac:	491f      	ldr	r1, [pc, #124]	; (d5b2c <_ZN7UbiHTTP3getEPKcS1_+0x1c4>)
   d5aae:	f002 f9ef 	bl	d7e90 <_ZN5Print5printEPKc>
      Serial.print("Content-Type: application/json\r\n\r\n");
   d5ab2:	f003 fa1d 	bl	d8ef0 <_Z16_fetch_usbserialv>
   d5ab6:	4920      	ldr	r1, [pc, #128]	; (d5b38 <_ZN7UbiHTTP3getEPKcS1_+0x1d0>)
   d5ab8:	f002 f9ea 	bl	d7e90 <_ZN5Print5printEPKc>
    if (!waitServerAnswer()) {
   d5abc:	4620      	mov	r0, r4
   d5abe:	f7ff fe19 	bl	d56f4 <_ZN7UbiHTTP16waitServerAnswerEv>
   d5ac2:	b948      	cbnz	r0, d5ad8 <_ZN7UbiHTTP3getEPKcS1_+0x170>
      _client_http_ubi.stop();
   d5ac4:	4813      	ldr	r0, [pc, #76]	; (d5b14 <_ZN7UbiHTTP3getEPKcS1_+0x1ac>)
      return ERROR_VALUE;
   d5ac6:	ed9f 8a1d 	vldr	s16, [pc, #116]	; d5b3c <_ZN7UbiHTTP3getEPKcS1_+0x1d4>
      _client_http_ubi.stop();
   d5aca:	f002 fd77 	bl	d85bc <_ZN9TCPClient4stopEv>
}
   d5ace:	eeb0 0a48 	vmov.f32	s0, s16
   d5ad2:	ecbd 8b02 	vpop	{d8}
   d5ad6:	bd70      	pop	{r4, r5, r6, pc}
    char* response = (char*)malloc(sizeof(char) * MAX_BUFFER_SIZE);
   d5ad8:	f44f 702f 	mov.w	r0, #700	; 0x2bc
   d5adc:	f001 fa46 	bl	d6f6c <malloc>
    readServerAnswer(response);
   d5ae0:	4601      	mov	r1, r0
    char* response = (char*)malloc(sizeof(char) * MAX_BUFFER_SIZE);
   d5ae2:	4605      	mov	r5, r0
    readServerAnswer(response);
   d5ae4:	4620      	mov	r0, r4
   d5ae6:	f7ff fdc3 	bl	d5670 <_ZN7UbiHTTP16readServerAnswerEPc>
  if (request_type == "LV") {
   d5aea:	4628      	mov	r0, r5
   d5aec:	f7ff fd04 	bl	d54f8 <_ZN7UbiHTTP15parseHttpAnswerEPKcPc.part.0>
    _client_http_ubi.stop();
   d5af0:	4808      	ldr	r0, [pc, #32]	; (d5b14 <_ZN7UbiHTTP3getEPKcS1_+0x1ac>)
   d5af2:	eeb0 8a40 	vmov.f32	s16, s0
   d5af6:	f002 fd61 	bl	d85bc <_ZN9TCPClient4stopEv>
    free(response);
   d5afa:	4628      	mov	r0, r5
   d5afc:	f001 fa3e 	bl	d6f7c <free>
    return value;
   d5b00:	e7e5      	b.n	d5ace <_ZN7UbiHTTP3getEPKcS1_+0x166>
  if (_debug) {
   d5b02:	7d23      	ldrb	r3, [r4, #20]
   d5b04:	2b00      	cmp	r3, #0
   d5b06:	d0dd      	beq.n	d5ac4 <_ZN7UbiHTTP3getEPKcS1_+0x15c>
    Serial.println("Connection Failed ubidots - Try Again");
   d5b08:	f003 f9f2 	bl	d8ef0 <_Z16_fetch_usbserialv>
   d5b0c:	490c      	ldr	r1, [pc, #48]	; (d5b40 <_ZN7UbiHTTP3getEPKcS1_+0x1d8>)
   d5b0e:	f002 f9d2 	bl	d7eb6 <_ZN5Print7printlnEPKc>
   d5b12:	e7d7      	b.n	d5ac4 <_ZN7UbiHTTP3getEPKcS1_+0x15c>
   d5b14:	2003e538 	.word	0x2003e538
   d5b18:	000dc7d2 	.word	0x000dc7d2
   d5b1c:	000dc7e7 	.word	0x000dc7e7
   d5b20:	000dc7e9 	.word	0x000dc7e9
   d5b24:	000dc6dd 	.word	0x000dc6dd
   d5b28:	000dc6e9 	.word	0x000dc6e9
   d5b2c:	000dc80d 	.word	0x000dc80d
   d5b30:	000dc6f0 	.word	0x000dc6f0
   d5b34:	000dc6fd 	.word	0x000dc6fd
   d5b38:	000dc7ed 	.word	0x000dc7ed
   d5b3c:	cda2425f 	.word	0xcda2425f
   d5b40:	000dc810 	.word	0x000dc810

000d5b44 <_GLOBAL__sub_I__ZN7UbiHTTPC2EPKciS1_S1_>:
}
   d5b44:	b510      	push	{r4, lr}
   d5b46:	4c05      	ldr	r4, [pc, #20]	; (d5b5c <_GLOBAL__sub_I__ZN7UbiHTTPC2EPKciS1_S1_+0x18>)
   d5b48:	4620      	mov	r0, r4
   d5b4a:	f002 fd87 	bl	d865c <_ZN9TCPClientC1Ev>
   d5b4e:	4620      	mov	r0, r4
   d5b50:	4a03      	ldr	r2, [pc, #12]	; (d5b60 <_GLOBAL__sub_I__ZN7UbiHTTPC2EPKciS1_S1_+0x1c>)
   d5b52:	4904      	ldr	r1, [pc, #16]	; (d5b64 <_GLOBAL__sub_I__ZN7UbiHTTPC2EPKciS1_S1_+0x20>)
   d5b54:	e8bd 4010 	ldmia.w	sp!, {r4, lr}
   d5b58:	f003 bba8 	b.w	d92ac <__aeabi_atexit>
   d5b5c:	2003e538 	.word	0x2003e538
   d5b60:	2003e470 	.word	0x2003e470
   d5b64:	000d5181 	.word	0x000d5181

000d5b68 <_ZN11UbiParticle3getEPKcS1_>:
}

float UbiParticle::get(const char* device_label, const char* variable_label) {
  // Retrieving values is not supported using Particle webhooks
  return ERROR_VALUE;
}
   d5b68:	ed9f 0a01 	vldr	s0, [pc, #4]	; d5b70 <_ZN11UbiParticle3getEPKcS1_+0x8>
   d5b6c:	4770      	bx	lr
   d5b6e:	bf00      	nop
   d5b70:	cda2425f 	.word	0xcda2425f

000d5b74 <_ZN11UbiParticle8setDebugEb>:

void UbiParticle::setDebug(bool debug) { _debug = debug; }
   d5b74:	7401      	strb	r1, [r0, #16]
   d5b76:	4770      	bx	lr

000d5b78 <_ZN11UbiParticle17getMultipleValuesEPKcS1_>:
   d5b78:	2200      	movs	r2, #0
	  : _Node_allocator()
   d5b7a:	1d01      	adds	r1, r0, #4
      _M_header._M_left = &_M_header;
   d5b7c:	e9c0 2102 	strd	r2, r1, [r0, #8]
      _M_node_count = 0;
   d5b80:	e9c0 1204 	strd	r1, r2, [r0, #16]
      _M_header._M_color = _S_red;
   d5b84:	7102      	strb	r2, [r0, #4]

tcpMap UbiParticle::getMultipleValues(const char* deviceLabel, const char* variableLabels) {
  tcpMap results;
  return results;
}
   d5b86:	4770      	bx	lr

000d5b88 <_ZN11UbiParticle8sendDataEPKcS1_PcP8UbiFlags>:
bool UbiParticle::sendData(const char* device_label, const char* device_name, char* payload, UbiFlags* flags) {
   d5b88:	b530      	push	{r4, r5, lr}
   d5b8a:	b085      	sub	sp, #20
   d5b8c:	461a      	mov	r2, r3
inline particle::Flags<TagT, ValueT>::Flags(ValueT val) :
   d5b8e:	9b08      	ldr	r3, [sp, #32]
   d5b90:	781b      	ldrb	r3, [r3, #0]
   d5b92:	f88d 3000 	strb.w	r3, [sp]
   d5b96:	a802      	add	r0, sp, #8
   d5b98:	233c      	movs	r3, #60	; 0x3c
   d5b9a:	f001 fb93 	bl	d72c4 <_ZN10CloudClass13publish_eventEPKcS1_iN8particle5FlagsI15PublishFlagTypehEE>
        return (application_thread_invoke(callback, data, nullptr) == 0);
    }

    // Returns true if current thread is the application thread
    static bool isApplicationThreadCurrent() {
        return (application_thread_current(nullptr) != 0);
   d5b9e:	2000      	movs	r0, #0
      { return static_cast<const __shared_ptr<_Tp, _Lp>*>(this)->get(); }
   d5ba0:	9c02      	ldr	r4, [sp, #8]
   d5ba2:	f001 f92f 	bl	d6e04 <application_thread_current>
        if (ContextT::isApplicationThreadCurrent()) {
   d5ba6:	b120      	cbz	r0, d5bb2 <_ZN11UbiParticle8sendDataEPKcS1_PcP8UbiFlags+0x2a>
      {
	memory_order __b = __m & __memory_order_mask;
	__glibcxx_assert(__b != memory_order_release);
	__glibcxx_assert(__b != memory_order_acq_rel);

	return __atomic_load_n(&_M_i, int(__m));
   d5ba8:	7863      	ldrb	r3, [r4, #1]
                if (isDone()) { // We can use relaxed ordering here, as long as the future's result is not examined
   d5baa:	b913      	cbnz	r3, d5bb2 <_ZN11UbiParticle8sendDataEPKcS1_PcP8UbiFlags+0x2a>
        spark_process();
   d5bac:	f001 f94e 	bl	d6e4c <spark_process>
    }
   d5bb0:	e7fa      	b.n	d5ba8 <_ZN11UbiParticle8sendDataEPKcS1_PcP8UbiFlags+0x20>
   d5bb2:	7863      	ldrb	r3, [r4, #1]
   d5bb4:	f3bf 8f5b 	dmb	ish
   d5bb8:	1c65      	adds	r5, r4, #1
        if (this->acquireDone() && this->isSucceeded()) {
   d5bba:	b9ab      	cbnz	r3, d5be8 <_ZN11UbiParticle8sendDataEPKcS1_PcP8UbiFlags+0x60>
        return std::move(defaultValue);
   d5bbc:	2500      	movs	r5, #0
	if (_M_pi != nullptr)
   d5bbe:	9c03      	ldr	r4, [sp, #12]
   d5bc0:	b17c      	cbz	r4, d5be2 <_ZN11UbiParticle8sendDataEPKcS1_PcP8UbiFlags+0x5a>
      if (--_M_use_count == 0)
   d5bc2:	6863      	ldr	r3, [r4, #4]
   d5bc4:	3b01      	subs	r3, #1
   d5bc6:	6063      	str	r3, [r4, #4]
   d5bc8:	b95b      	cbnz	r3, d5be2 <_ZN11UbiParticle8sendDataEPKcS1_PcP8UbiFlags+0x5a>
          _M_dispose();
   d5bca:	6823      	ldr	r3, [r4, #0]
   d5bcc:	4620      	mov	r0, r4
   d5bce:	689b      	ldr	r3, [r3, #8]
   d5bd0:	4798      	blx	r3
          if (--_M_weak_count == 0)
   d5bd2:	68a3      	ldr	r3, [r4, #8]
   d5bd4:	3b01      	subs	r3, #1
   d5bd6:	60a3      	str	r3, [r4, #8]
   d5bd8:	b91b      	cbnz	r3, d5be2 <_ZN11UbiParticle8sendDataEPKcS1_PcP8UbiFlags+0x5a>
            _M_destroy();
   d5bda:	6823      	ldr	r3, [r4, #0]
   d5bdc:	4620      	mov	r0, r4
   d5bde:	68db      	ldr	r3, [r3, #12]
   d5be0:	4798      	blx	r3
}
   d5be2:	4628      	mov	r0, r5
   d5be4:	b005      	add	sp, #20
   d5be6:	bd30      	pop	{r4, r5, pc}
        return (application_thread_current(nullptr) != 0);
   d5be8:	2000      	movs	r0, #0
   d5bea:	f001 f90b 	bl	d6e04 <application_thread_current>
        if (ContextT::isApplicationThreadCurrent()) {
   d5bee:	b120      	cbz	r0, d5bfa <_ZN11UbiParticle8sendDataEPKcS1_PcP8UbiFlags+0x72>
   d5bf0:	782b      	ldrb	r3, [r5, #0]
                if (isDone()) { // We can use relaxed ordering here, as long as the future's result is not examined
   d5bf2:	b913      	cbnz	r3, d5bfa <_ZN11UbiParticle8sendDataEPKcS1_PcP8UbiFlags+0x72>
        spark_process();
   d5bf4:	f001 f92a 	bl	d6e4c <spark_process>
    }
   d5bf8:	e7fa      	b.n	d5bf0 <_ZN11UbiParticle8sendDataEPKcS1_PcP8UbiFlags+0x68>
      _Tp
      load(memory_order __m = memory_order_seq_cst) const noexcept
      {
	alignas(_Tp) unsigned char __buf[sizeof(_Tp)];
	_Tp* __ptr = reinterpret_cast<_Tp*>(__buf);
	__atomic_load(std::__addressof(_M_i), __ptr, int(__m));
   d5bfa:	7823      	ldrb	r3, [r4, #0]
        if (this->acquireDone() && this->isSucceeded()) {
   d5bfc:	2b01      	cmp	r3, #1
   d5bfe:	d1dd      	bne.n	d5bbc <_ZN11UbiParticle8sendDataEPKcS1_PcP8UbiFlags+0x34>
            return result_;
   d5c00:	7b25      	ldrb	r5, [r4, #12]
   d5c02:	e7dc      	b.n	d5bbe <_ZN11UbiParticle8sendDataEPKcS1_PcP8UbiFlags+0x36>

000d5c04 <_ZN11UbiParticleC1EPKciS1_S1_>:
UbiParticle::UbiParticle(const char* host, const int port, const char* user_agent, const char* token) {
   d5c04:	b510      	push	{r4, lr}
   d5c06:	4c04      	ldr	r4, [pc, #16]	; (d5c18 <_ZN11UbiParticleC1EPKciS1_S1_+0x14>)
   d5c08:	6004      	str	r4, [r0, #0]
  _user_agent = user_agent;
   d5c0a:	e9c0 1301 	strd	r1, r3, [r0, #4]
UbiParticle::UbiParticle(const char* host, const int port, const char* user_agent, const char* token) {
   d5c0e:	2400      	movs	r4, #0
  _token = token;
   d5c10:	9b02      	ldr	r3, [sp, #8]
UbiParticle::UbiParticle(const char* host, const int port, const char* user_agent, const char* token) {
   d5c12:	7404      	strb	r4, [r0, #16]
  _token = token;
   d5c14:	60c3      	str	r3, [r0, #12]
}
   d5c16:	bd10      	pop	{r4, pc}
   d5c18:	000dc858 	.word	0x000dc858

000d5c1c <_ZN18UbiProtocolHandlerD1Ev>:

/**************************************************************************
 * Overloaded destructor
 ***************************************************************************/

UbiProtocolHandler::~UbiProtocolHandler() {
   d5c1c:	b510      	push	{r4, lr}
   d5c1e:	4604      	mov	r4, r0
  delete[] _default_device_label;
   d5c20:	6800      	ldr	r0, [r0, #0]
   d5c22:	b108      	cbz	r0, d5c28 <_ZN18UbiProtocolHandlerD1Ev+0xc>
   d5c24:	f7fe fa3d 	bl	d40a2 <_ZdaPv>

  free(_dots);
   d5c28:	68e0      	ldr	r0, [r4, #12]
   d5c2a:	f001 f9a7 	bl	d6f7c <free>
  delete _ubiProtocol;
   d5c2e:	6860      	ldr	r0, [r4, #4]
   d5c30:	b110      	cbz	r0, d5c38 <_ZN18UbiProtocolHandlerD1Ev+0x1c>
   d5c32:	2104      	movs	r1, #4
   d5c34:	f003 fb3f 	bl	d92b6 <_ZdlPvj>
}
   d5c38:	4620      	mov	r0, r4
   d5c3a:	bd10      	pop	{r4, pc}

000d5c3c <_ZN18UbiProtocolHandler3addEPcfS0_mj>:
 * @arg dot_timestamp_millis [optional] Dot timestamp in millis to add to
 * dot_timestamp_seconds, usefull for datalogger.
 */

void UbiProtocolHandler::add(char* variable_label, float value, char* context, unsigned long dot_timestamp_seconds,
                             unsigned int dot_timestamp_millis) {
   d5c3c:	b538      	push	{r3, r4, r5, lr}
   d5c3e:	4604      	mov	r4, r0
  _dirty = true;
   d5c40:	2001      	movs	r0, #1
   d5c42:	7460      	strb	r0, [r4, #17]
  (_dots + _current_value)->variable_label = variable_label;
   d5c44:	f994 0010 	ldrsb.w	r0, [r4, #16]
   d5c48:	68e5      	ldr	r5, [r4, #12]
   d5c4a:	eb00 0080 	add.w	r0, r0, r0, lsl #2
   d5c4e:	f845 1020 	str.w	r1, [r5, r0, lsl #2]
  (_dots + _current_value)->dot_value = value;
   d5c52:	f994 1010 	ldrsb.w	r1, [r4, #16]
   d5c56:	68e0      	ldr	r0, [r4, #12]
   d5c58:	eb01 0181 	add.w	r1, r1, r1, lsl #2
   d5c5c:	eb00 0181 	add.w	r1, r0, r1, lsl #2
   d5c60:	ed81 0a02 	vstr	s0, [r1, #8]
  (_dots + _current_value)->dot_context = context;
   d5c64:	f994 1010 	ldrsb.w	r1, [r4, #16]
   d5c68:	68e0      	ldr	r0, [r4, #12]
   d5c6a:	eb01 0181 	add.w	r1, r1, r1, lsl #2
   d5c6e:	eb00 0181 	add.w	r1, r0, r1, lsl #2
   d5c72:	604a      	str	r2, [r1, #4]
  (_dots + _current_value)->dot_timestamp_seconds = dot_timestamp_seconds;
   d5c74:	f994 2010 	ldrsb.w	r2, [r4, #16]
   d5c78:	68e1      	ldr	r1, [r4, #12]
   d5c7a:	eb02 0282 	add.w	r2, r2, r2, lsl #2
   d5c7e:	eb01 0282 	add.w	r2, r1, r2, lsl #2
   d5c82:	60d3      	str	r3, [r2, #12]
  (_dots + _current_value)->dot_timestamp_millis = dot_timestamp_millis;
   d5c84:	f994 3010 	ldrsb.w	r3, [r4, #16]
   d5c88:	68e2      	ldr	r2, [r4, #12]
   d5c8a:	eb03 0383 	add.w	r3, r3, r3, lsl #2
   d5c8e:	eb02 0383 	add.w	r3, r2, r3, lsl #2
   d5c92:	9a04      	ldr	r2, [sp, #16]
   d5c94:	611a      	str	r2, [r3, #16]
  _current_value++;
   d5c96:	7c23      	ldrb	r3, [r4, #16]
   d5c98:	3301      	adds	r3, #1
   d5c9a:	b25b      	sxtb	r3, r3
  if (_current_value > MAX_VALUES) {
   d5c9c:	2b0a      	cmp	r3, #10
  _current_value++;
   d5c9e:	7423      	strb	r3, [r4, #16]
  if (_current_value > MAX_VALUES) {
   d5ca0:	dd08      	ble.n	d5cb4 <_ZN18UbiProtocolHandler3addEPcfS0_mj+0x78>
    if (_debug) {
   d5ca2:	7ca3      	ldrb	r3, [r4, #18]
   d5ca4:	b123      	cbz	r3, d5cb0 <_ZN18UbiProtocolHandler3addEPcfS0_mj+0x74>
      Serial.println(F("You are sending more than the maximum of consecutive variables"));
   d5ca6:	f003 f923 	bl	d8ef0 <_Z16_fetch_usbserialv>
   d5caa:	4903      	ldr	r1, [pc, #12]	; (d5cb8 <_ZN18UbiProtocolHandler3addEPcfS0_mj+0x7c>)
   d5cac:	f002 f903 	bl	d7eb6 <_ZN5Print7printlnEPKc>
    }
    _current_value = MAX_VALUES;
   d5cb0:	230a      	movs	r3, #10
   d5cb2:	7423      	strb	r3, [r4, #16]
  }
}
   d5cb4:	bd38      	pop	{r3, r4, r5, pc}
   d5cb6:	bf00      	nop
   d5cb8:	000dc868 	.word	0x000dc868

000d5cbc <_ZN18UbiProtocolHandler12_floatToCharEPcf>:
 * Stores the float type value into the char array input
 * @str_value [Mandatory] char payload pointer to store the value.
 * @value [Mandatory] Float value to convert
 */

void UbiProtocolHandler::_floatToChar(char* str_value, float value) {
   d5cbc:	b510      	push	{r4, lr}
   d5cbe:	ee10 0a10 	vmov	r0, s0
   d5cc2:	b086      	sub	sp, #24
   d5cc4:	460c      	mov	r4, r1
  char temp_arr[20];
  sprintf(temp_arr, "%17g", value);
   d5cc6:	f003 fe2f 	bl	d9928 <__aeabi_f2d>
   d5cca:	4602      	mov	r2, r0
   d5ccc:	460b      	mov	r3, r1
   d5cce:	a801      	add	r0, sp, #4
   d5cd0:	490a      	ldr	r1, [pc, #40]	; (d5cfc <_ZN18UbiProtocolHandler12_floatToCharEPcf+0x40>)
   d5cd2:	f001 f963 	bl	d6f9c <sprintf>
  uint8_t j = 0;
  uint8_t k = 0;
  while (j < 20) {
   d5cd6:	a801      	add	r0, sp, #4
  sprintf(temp_arr, "%17g", value);
   d5cd8:	2214      	movs	r2, #20
  uint8_t k = 0;
   d5cda:	2300      	movs	r3, #0
    if (temp_arr[j] != ' ') {
   d5cdc:	f810 1b01 	ldrb.w	r1, [r0], #1
   d5ce0:	2920      	cmp	r1, #32
   d5ce2:	d006      	beq.n	d5cf2 <_ZN18UbiProtocolHandler12_floatToCharEPcf+0x36>
      str_value[k] = temp_arr[j];
   d5ce4:	54e1      	strb	r1, [r4, r3]
      k++;
   d5ce6:	3301      	adds	r3, #1
   d5ce8:	b2db      	uxtb	r3, r3
    }
    if (temp_arr[j] == '\0') {
   d5cea:	b911      	cbnz	r1, d5cf2 <_ZN18UbiProtocolHandler12_floatToCharEPcf+0x36>
      str_value[k] = temp_arr[j];
   d5cec:	54e1      	strb	r1, [r4, r3]
      break;
    }
    j++;
  }
}
   d5cee:	b006      	add	sp, #24
   d5cf0:	bd10      	pop	{r4, pc}
  while (j < 20) {
   d5cf2:	3a01      	subs	r2, #1
   d5cf4:	f012 02ff 	ands.w	r2, r2, #255	; 0xff
   d5cf8:	d1f0      	bne.n	d5cdc <_ZN18UbiProtocolHandler12_floatToCharEPcf+0x20>
   d5cfa:	e7f8      	b.n	d5cee <_ZN18UbiProtocolHandler12_floatToCharEPcf+0x32>
   d5cfc:	000dc8a7 	.word	0x000dc8a7

000d5d00 <_ZN18UbiProtocolHandler16buildHttpPayloadEPc>:
void UbiProtocolHandler::buildHttpPayload(char* payload) {
   d5d00:	e92d 4ff0 	stmdb	sp!, {r4, r5, r6, r7, r8, r9, sl, fp, lr}
   d5d04:	460c      	mov	r4, r1
   d5d06:	b089      	sub	sp, #36	; 0x24
  sprintf(payload, "{");
   d5d08:	494c      	ldr	r1, [pc, #304]	; (d5e3c <_ZN18UbiProtocolHandler16buildHttpPayloadEPc+0x13c>)
    sprintf(payload, "%s\"%s\":{\"value\":%s", payload, (_dots + i)->variable_label, str_value);
   d5d0a:	f8df 8154 	ldr.w	r8, [pc, #340]	; d5e60 <_ZN18UbiProtocolHandler16buildHttpPayloadEPc+0x160>
      sprintf(payload, "%s,\"timestamp\":%lu", payload, (_dots + i)->dot_timestamp_seconds);
   d5d0e:	f8df 9154 	ldr.w	r9, [pc, #340]	; d5e64 <_ZN18UbiProtocolHandler16buildHttpPayloadEPc+0x164>
        sprintf(payload, "%s000", payload);
   d5d12:	f8df a154 	ldr.w	sl, [pc, #340]	; d5e68 <_ZN18UbiProtocolHandler16buildHttpPayloadEPc+0x168>
void UbiProtocolHandler::buildHttpPayload(char* payload) {
   d5d16:	4605      	mov	r5, r0
  sprintf(payload, "{");
   d5d18:	4620      	mov	r0, r4
   d5d1a:	f004 fb96 	bl	da44a <strcpy>
  for (uint8_t i = 0; i < _current_value;) {
   d5d1e:	2600      	movs	r6, #0
   d5d20:	f995 3010 	ldrsb.w	r3, [r5, #16]
   d5d24:	429e      	cmp	r6, r3
   d5d26:	da6a      	bge.n	d5dfe <_ZN18UbiProtocolHandler16buildHttpPayloadEPc+0xfe>
    _floatToChar(str_value, (_dots + i)->dot_value);
   d5d28:	68eb      	ldr	r3, [r5, #12]
   d5d2a:	eb06 0b86 	add.w	fp, r6, r6, lsl #2
   d5d2e:	eb03 038b 	add.w	r3, r3, fp, lsl #2
   d5d32:	ed93 0a02 	vldr	s0, [r3, #8]
   d5d36:	a903      	add	r1, sp, #12
   d5d38:	4628      	mov	r0, r5
   d5d3a:	f7ff ffbf 	bl	d5cbc <_ZN18UbiProtocolHandler12_floatToCharEPcf>
    sprintf(payload, "%s\"%s\":{\"value\":%s", payload, (_dots + i)->variable_label, str_value);
   d5d3e:	68eb      	ldr	r3, [r5, #12]
   d5d40:	a903      	add	r1, sp, #12
   d5d42:	9100      	str	r1, [sp, #0]
   d5d44:	f853 302b 	ldr.w	r3, [r3, fp, lsl #2]
   d5d48:	4622      	mov	r2, r4
   d5d4a:	4641      	mov	r1, r8
   d5d4c:	4620      	mov	r0, r4
   d5d4e:	f001 f925 	bl	d6f9c <sprintf>
    if ((_dots + i)->dot_timestamp_seconds != NULL) {
   d5d52:	68eb      	ldr	r3, [r5, #12]
    _floatToChar(str_value, (_dots + i)->dot_value);
   d5d54:	ea4f 078b 	mov.w	r7, fp, lsl #2
    if ((_dots + i)->dot_timestamp_seconds != NULL) {
   d5d58:	443b      	add	r3, r7
   d5d5a:	68db      	ldr	r3, [r3, #12]
   d5d5c:	b343      	cbz	r3, d5db0 <_ZN18UbiProtocolHandler16buildHttpPayloadEPc+0xb0>
      sprintf(payload, "%s,\"timestamp\":%lu", payload, (_dots + i)->dot_timestamp_seconds);
   d5d5e:	4622      	mov	r2, r4
   d5d60:	4649      	mov	r1, r9
   d5d62:	4620      	mov	r0, r4
   d5d64:	f001 f91a 	bl	d6f9c <sprintf>
      if ((_dots + i)->dot_timestamp_millis != NULL) {
   d5d68:	68eb      	ldr	r3, [r5, #12]
   d5d6a:	443b      	add	r3, r7
   d5d6c:	691b      	ldr	r3, [r3, #16]
   d5d6e:	2b00      	cmp	r3, #0
   d5d70:	d038      	beq.n	d5de4 <_ZN18UbiProtocolHandler16buildHttpPayloadEPc+0xe4>
        uint8_t dec = (timestamp_millis / 10) % 10;
   d5d72:	200a      	movs	r0, #10
   d5d74:	fb93 f1f0 	sdiv	r1, r3, r0
   d5d78:	fb91 fcf0 	sdiv	ip, r1, r0
   d5d7c:	fb00 1c1c 	mls	ip, r0, ip, r1
        uint8_t units = timestamp_millis % 10;
   d5d80:	fb00 3111 	mls	r1, r0, r1, r3
        sprintf(milliseconds, "%d%d%d", hund, dec, units);
   d5d84:	b2c9      	uxtb	r1, r1
        uint8_t hund = (timestamp_millis / 100) % 10;
   d5d86:	2264      	movs	r2, #100	; 0x64
   d5d88:	fb93 f2f2 	sdiv	r2, r3, r2
   d5d8c:	fb92 fef0 	sdiv	lr, r2, r0
   d5d90:	fb00 221e 	mls	r2, r0, lr, r2
        sprintf(milliseconds, "%d%d%d", hund, dec, units);
   d5d94:	9100      	str	r1, [sp, #0]
   d5d96:	fa5f f38c 	uxtb.w	r3, ip
   d5d9a:	4929      	ldr	r1, [pc, #164]	; (d5e40 <_ZN18UbiProtocolHandler16buildHttpPayloadEPc+0x140>)
   d5d9c:	b2d2      	uxtb	r2, r2
   d5d9e:	a802      	add	r0, sp, #8
   d5da0:	f001 f8fc 	bl	d6f9c <sprintf>
        sprintf(payload, "%s%s", payload, milliseconds);
   d5da4:	4927      	ldr	r1, [pc, #156]	; (d5e44 <_ZN18UbiProtocolHandler16buildHttpPayloadEPc+0x144>)
   d5da6:	ab02      	add	r3, sp, #8
   d5da8:	4622      	mov	r2, r4
   d5daa:	4620      	mov	r0, r4
   d5dac:	f001 f8f6 	bl	d6f9c <sprintf>
    if ((_dots + i)->dot_context != NULL) {
   d5db0:	68eb      	ldr	r3, [r5, #12]
   d5db2:	441f      	add	r7, r3
   d5db4:	687b      	ldr	r3, [r7, #4]
   d5db6:	b123      	cbz	r3, d5dc2 <_ZN18UbiProtocolHandler16buildHttpPayloadEPc+0xc2>
      sprintf(payload, "%s,\"context\": {%s}", payload, (_dots + i)->dot_context);
   d5db8:	4923      	ldr	r1, [pc, #140]	; (d5e48 <_ZN18UbiProtocolHandler16buildHttpPayloadEPc+0x148>)
   d5dba:	4622      	mov	r2, r4
   d5dbc:	4620      	mov	r0, r4
   d5dbe:	f001 f8ed 	bl	d6f9c <sprintf>
    sprintf(payload, "%s}", payload);
   d5dc2:	4622      	mov	r2, r4
   d5dc4:	4921      	ldr	r1, [pc, #132]	; (d5e4c <_ZN18UbiProtocolHandler16buildHttpPayloadEPc+0x14c>)
   d5dc6:	4620      	mov	r0, r4
   d5dc8:	f001 f8e8 	bl	d6f9c <sprintf>
    i++;
   d5dcc:	3601      	adds	r6, #1
    if (i < _current_value) {
   d5dce:	f995 3010 	ldrsb.w	r3, [r5, #16]
    i++;
   d5dd2:	b2f6      	uxtb	r6, r6
    if (i < _current_value) {
   d5dd4:	429e      	cmp	r6, r3
      sprintf(payload, "%s,", payload);
   d5dd6:	4622      	mov	r2, r4
    if (i < _current_value) {
   d5dd8:	da0a      	bge.n	d5df0 <_ZN18UbiProtocolHandler16buildHttpPayloadEPc+0xf0>
      sprintf(payload, "%s,", payload);
   d5dda:	491d      	ldr	r1, [pc, #116]	; (d5e50 <_ZN18UbiProtocolHandler16buildHttpPayloadEPc+0x150>)
   d5ddc:	4620      	mov	r0, r4
   d5dde:	f001 f8dd 	bl	d6f9c <sprintf>
   d5de2:	e79d      	b.n	d5d20 <_ZN18UbiProtocolHandler16buildHttpPayloadEPc+0x20>
        sprintf(payload, "%s000", payload);
   d5de4:	4622      	mov	r2, r4
   d5de6:	4651      	mov	r1, sl
   d5de8:	4620      	mov	r0, r4
   d5dea:	f001 f8d7 	bl	d6f9c <sprintf>
   d5dee:	e7df      	b.n	d5db0 <_ZN18UbiProtocolHandler16buildHttpPayloadEPc+0xb0>
      sprintf(payload, "%s}", payload);
   d5df0:	4916      	ldr	r1, [pc, #88]	; (d5e4c <_ZN18UbiProtocolHandler16buildHttpPayloadEPc+0x14c>)
   d5df2:	4620      	mov	r0, r4
   d5df4:	f001 f8d2 	bl	d6f9c <sprintf>
      _current_value = 0;
   d5df8:	2300      	movs	r3, #0
   d5dfa:	742b      	strb	r3, [r5, #16]
  for (uint8_t i = 0; i < _current_value;) {
   d5dfc:	e790      	b.n	d5d20 <_ZN18UbiProtocolHandler16buildHttpPayloadEPc+0x20>
  if (_debug) {
   d5dfe:	7cab      	ldrb	r3, [r5, #18]
   d5e00:	b1c3      	cbz	r3, d5e34 <_ZN18UbiProtocolHandler16buildHttpPayloadEPc+0x134>
    Serial.println("----------");
   d5e02:	f003 f875 	bl	d8ef0 <_Z16_fetch_usbserialv>
   d5e06:	4913      	ldr	r1, [pc, #76]	; (d5e54 <_ZN18UbiProtocolHandler16buildHttpPayloadEPc+0x154>)
   d5e08:	f002 f855 	bl	d7eb6 <_ZN5Print7printlnEPKc>
    Serial.println("payload:");
   d5e0c:	f003 f870 	bl	d8ef0 <_Z16_fetch_usbserialv>
   d5e10:	4911      	ldr	r1, [pc, #68]	; (d5e58 <_ZN18UbiProtocolHandler16buildHttpPayloadEPc+0x158>)
   d5e12:	f002 f850 	bl	d7eb6 <_ZN5Print7printlnEPKc>
    Serial.println(payload);
   d5e16:	f003 f86b 	bl	d8ef0 <_Z16_fetch_usbserialv>
   d5e1a:	4621      	mov	r1, r4
   d5e1c:	f002 f84b 	bl	d7eb6 <_ZN5Print7printlnEPKc>
    Serial.println("----------");
   d5e20:	f003 f866 	bl	d8ef0 <_Z16_fetch_usbserialv>
   d5e24:	490b      	ldr	r1, [pc, #44]	; (d5e54 <_ZN18UbiProtocolHandler16buildHttpPayloadEPc+0x154>)
   d5e26:	f002 f846 	bl	d7eb6 <_ZN5Print7printlnEPKc>
    Serial.println("");
   d5e2a:	f003 f861 	bl	d8ef0 <_Z16_fetch_usbserialv>
   d5e2e:	490b      	ldr	r1, [pc, #44]	; (d5e5c <_ZN18UbiProtocolHandler16buildHttpPayloadEPc+0x15c>)
   d5e30:	f002 f841 	bl	d7eb6 <_ZN5Print7printlnEPKc>
}
   d5e34:	b009      	add	sp, #36	; 0x24
   d5e36:	e8bd 8ff0 	ldmia.w	sp!, {r4, r5, r6, r7, r8, r9, sl, fp, pc}
   d5e3a:	bf00      	nop
   d5e3c:	000dc8ac 	.word	0x000dc8ac
   d5e40:	000dc8d4 	.word	0x000dc8d4
   d5e44:	000dc8db 	.word	0x000dc8db
   d5e48:	000dc8e6 	.word	0x000dc8e6
   d5e4c:	000dc8f5 	.word	0x000dc8f5
   d5e50:	000dc8f9 	.word	0x000dc8f9
   d5e54:	000dc687 	.word	0x000dc687
   d5e58:	000dc8fd 	.word	0x000dc8fd
   d5e5c:	000dc80f 	.word	0x000dc80f
   d5e60:	000dc8ae 	.word	0x000dc8ae
   d5e64:	000dc8c1 	.word	0x000dc8c1
   d5e68:	000dc8e0 	.word	0x000dc8e0

000d5e6c <_ZN18UbiProtocolHandler15buildTcpPayloadEPcPKcS2_>:
void UbiProtocolHandler::buildTcpPayload(char* payload, const char* device_label, const char* device_name) {
   d5e6c:	e92d 4ff0 	stmdb	sp!, {r4, r5, r6, r7, r8, r9, sl, fp, lr}
   d5e70:	460c      	mov	r4, r1
   d5e72:	4605      	mov	r5, r0
   d5e74:	b089      	sub	sp, #36	; 0x24
  sprintf(payload, "");
   d5e76:	4952      	ldr	r1, [pc, #328]	; (d5fc0 <_ZN18UbiProtocolHandler15buildTcpPayloadEPcPKcS2_+0x154>)
      sprintf(payload, "%s$%s", payload, (_dots + i)->dot_context);
   d5e78:	f8df 8174 	ldr.w	r8, [pc, #372]	; d5ff0 <_ZN18UbiProtocolHandler15buildTcpPayloadEPcPKcS2_+0x184>
      sprintf(payload, "%s@%lu", payload, (_dots + i)->dot_timestamp_seconds);
   d5e7c:	f8df 9174 	ldr.w	r9, [pc, #372]	; d5ff4 <_ZN18UbiProtocolHandler15buildTcpPayloadEPcPKcS2_+0x188>
  sprintf(payload, "");
   d5e80:	4620      	mov	r0, r4
void UbiProtocolHandler::buildTcpPayload(char* payload, const char* device_label, const char* device_name) {
   d5e82:	4616      	mov	r6, r2
   d5e84:	461f      	mov	r7, r3
  sprintf(payload, "");
   d5e86:	f004 fae0 	bl	da44a <strcpy>
  sprintf(payload, "%s|POST|%s|", USER_AGENT, _token);
   d5e8a:	68ab      	ldr	r3, [r5, #8]
   d5e8c:	4a4d      	ldr	r2, [pc, #308]	; (d5fc4 <_ZN18UbiProtocolHandler15buildTcpPayloadEPcPKcS2_+0x158>)
   d5e8e:	494e      	ldr	r1, [pc, #312]	; (d5fc8 <_ZN18UbiProtocolHandler15buildTcpPayloadEPcPKcS2_+0x15c>)
   d5e90:	4620      	mov	r0, r4
   d5e92:	f001 f883 	bl	d6f9c <sprintf>
  sprintf(payload, "%s%s:%s", payload, device_label, device_name);
   d5e96:	4633      	mov	r3, r6
   d5e98:	494c      	ldr	r1, [pc, #304]	; (d5fcc <_ZN18UbiProtocolHandler15buildTcpPayloadEPcPKcS2_+0x160>)
   d5e9a:	9700      	str	r7, [sp, #0]
   d5e9c:	4622      	mov	r2, r4
   d5e9e:	4620      	mov	r0, r4
   d5ea0:	f001 f87c 	bl	d6f9c <sprintf>
  sprintf(payload, "%s=>", payload);
   d5ea4:	494a      	ldr	r1, [pc, #296]	; (d5fd0 <_ZN18UbiProtocolHandler15buildTcpPayloadEPcPKcS2_+0x164>)
    sprintf(payload, "%s%s:%s", payload, (_dots + i)->variable_label, str_value);
   d5ea6:	4f49      	ldr	r7, [pc, #292]	; (d5fcc <_ZN18UbiProtocolHandler15buildTcpPayloadEPcPKcS2_+0x160>)
  sprintf(payload, "%s=>", payload);
   d5ea8:	4622      	mov	r2, r4
   d5eaa:	4620      	mov	r0, r4
   d5eac:	f001 f876 	bl	d6f9c <sprintf>
  for (uint8_t i = 0; i < _current_value;) {
   d5eb0:	2600      	movs	r6, #0
   d5eb2:	f995 3010 	ldrsb.w	r3, [r5, #16]
   d5eb6:	429e      	cmp	r6, r3
   d5eb8:	da64      	bge.n	d5f84 <_ZN18UbiProtocolHandler15buildTcpPayloadEPcPKcS2_+0x118>
    _floatToChar(str_value, (_dots + i)->dot_value);
   d5eba:	68eb      	ldr	r3, [r5, #12]
   d5ebc:	eb06 0b86 	add.w	fp, r6, r6, lsl #2
   d5ec0:	eb03 038b 	add.w	r3, r3, fp, lsl #2
   d5ec4:	ed93 0a02 	vldr	s0, [r3, #8]
   d5ec8:	a903      	add	r1, sp, #12
   d5eca:	4628      	mov	r0, r5
   d5ecc:	f7ff fef6 	bl	d5cbc <_ZN18UbiProtocolHandler12_floatToCharEPcf>
    sprintf(payload, "%s%s:%s", payload, (_dots + i)->variable_label, str_value);
   d5ed0:	68eb      	ldr	r3, [r5, #12]
   d5ed2:	a903      	add	r1, sp, #12
   d5ed4:	9100      	str	r1, [sp, #0]
   d5ed6:	f853 302b 	ldr.w	r3, [r3, fp, lsl #2]
   d5eda:	4622      	mov	r2, r4
   d5edc:	4639      	mov	r1, r7
   d5ede:	4620      	mov	r0, r4
   d5ee0:	f001 f85c 	bl	d6f9c <sprintf>
    if ((_dots + i)->dot_context != NULL) {
   d5ee4:	68eb      	ldr	r3, [r5, #12]
    _floatToChar(str_value, (_dots + i)->dot_value);
   d5ee6:	ea4f 0a8b 	mov.w	sl, fp, lsl #2
    if ((_dots + i)->dot_context != NULL) {
   d5eea:	4453      	add	r3, sl
   d5eec:	685b      	ldr	r3, [r3, #4]
   d5eee:	b123      	cbz	r3, d5efa <_ZN18UbiProtocolHandler15buildTcpPayloadEPcPKcS2_+0x8e>
      sprintf(payload, "%s$%s", payload, (_dots + i)->dot_context);
   d5ef0:	4622      	mov	r2, r4
   d5ef2:	4641      	mov	r1, r8
   d5ef4:	4620      	mov	r0, r4
   d5ef6:	f001 f851 	bl	d6f9c <sprintf>
    if ((_dots + i)->dot_timestamp_seconds != NULL) {
   d5efa:	68eb      	ldr	r3, [r5, #12]
   d5efc:	4453      	add	r3, sl
   d5efe:	68db      	ldr	r3, [r3, #12]
   d5f00:	b33b      	cbz	r3, d5f52 <_ZN18UbiProtocolHandler15buildTcpPayloadEPcPKcS2_+0xe6>
      sprintf(payload, "%s@%lu", payload, (_dots + i)->dot_timestamp_seconds);
   d5f02:	4622      	mov	r2, r4
   d5f04:	4649      	mov	r1, r9
   d5f06:	4620      	mov	r0, r4
   d5f08:	f001 f848 	bl	d6f9c <sprintf>
      if ((_dots + i)->dot_timestamp_millis != NULL) {
   d5f0c:	68eb      	ldr	r3, [r5, #12]
   d5f0e:	4453      	add	r3, sl
   d5f10:	691b      	ldr	r3, [r3, #16]
   d5f12:	b353      	cbz	r3, d5f6a <_ZN18UbiProtocolHandler15buildTcpPayloadEPcPKcS2_+0xfe>
        uint8_t dec = (timestamp_millis / 10) % 10;
   d5f14:	200a      	movs	r0, #10
   d5f16:	fb93 f1f0 	sdiv	r1, r3, r0
   d5f1a:	fb91 fcf0 	sdiv	ip, r1, r0
   d5f1e:	fb00 1c1c 	mls	ip, r0, ip, r1
        uint8_t units = timestamp_millis % 10;
   d5f22:	fb00 3111 	mls	r1, r0, r1, r3
        sprintf(milliseconds, "%d%d%d", hund, dec, units);
   d5f26:	b2c9      	uxtb	r1, r1
        uint8_t hund = (timestamp_millis / 100) % 10;
   d5f28:	2264      	movs	r2, #100	; 0x64
   d5f2a:	fb93 f2f2 	sdiv	r2, r3, r2
   d5f2e:	fb92 fef0 	sdiv	lr, r2, r0
   d5f32:	fb00 221e 	mls	r2, r0, lr, r2
        sprintf(milliseconds, "%d%d%d", hund, dec, units);
   d5f36:	9100      	str	r1, [sp, #0]
   d5f38:	fa5f f38c 	uxtb.w	r3, ip
   d5f3c:	4925      	ldr	r1, [pc, #148]	; (d5fd4 <_ZN18UbiProtocolHandler15buildTcpPayloadEPcPKcS2_+0x168>)
   d5f3e:	b2d2      	uxtb	r2, r2
   d5f40:	a802      	add	r0, sp, #8
   d5f42:	f001 f82b 	bl	d6f9c <sprintf>
        sprintf(payload, "%s%s", payload, milliseconds);
   d5f46:	4924      	ldr	r1, [pc, #144]	; (d5fd8 <_ZN18UbiProtocolHandler15buildTcpPayloadEPcPKcS2_+0x16c>)
   d5f48:	ab02      	add	r3, sp, #8
   d5f4a:	4622      	mov	r2, r4
   d5f4c:	4620      	mov	r0, r4
   d5f4e:	f001 f825 	bl	d6f9c <sprintf>
    if (i < _current_value) {
   d5f52:	f995 3010 	ldrsb.w	r3, [r5, #16]
    i++;
   d5f56:	3601      	adds	r6, #1
   d5f58:	b2f6      	uxtb	r6, r6
    if (i < _current_value) {
   d5f5a:	429e      	cmp	r6, r3
      sprintf(payload, "%s,", payload);
   d5f5c:	4622      	mov	r2, r4
    if (i < _current_value) {
   d5f5e:	da0a      	bge.n	d5f76 <_ZN18UbiProtocolHandler15buildTcpPayloadEPcPKcS2_+0x10a>
      sprintf(payload, "%s,", payload);
   d5f60:	491e      	ldr	r1, [pc, #120]	; (d5fdc <_ZN18UbiProtocolHandler15buildTcpPayloadEPcPKcS2_+0x170>)
   d5f62:	4620      	mov	r0, r4
   d5f64:	f001 f81a 	bl	d6f9c <sprintf>
   d5f68:	e7a3      	b.n	d5eb2 <_ZN18UbiProtocolHandler15buildTcpPayloadEPcPKcS2_+0x46>
        sprintf(payload, "%s000", payload);
   d5f6a:	491d      	ldr	r1, [pc, #116]	; (d5fe0 <_ZN18UbiProtocolHandler15buildTcpPayloadEPcPKcS2_+0x174>)
   d5f6c:	4622      	mov	r2, r4
   d5f6e:	4620      	mov	r0, r4
   d5f70:	f001 f814 	bl	d6f9c <sprintf>
   d5f74:	e7ed      	b.n	d5f52 <_ZN18UbiProtocolHandler15buildTcpPayloadEPcPKcS2_+0xe6>
      sprintf(payload, "%s|end", payload);
   d5f76:	491b      	ldr	r1, [pc, #108]	; (d5fe4 <_ZN18UbiProtocolHandler15buildTcpPayloadEPcPKcS2_+0x178>)
   d5f78:	4620      	mov	r0, r4
   d5f7a:	f001 f80f 	bl	d6f9c <sprintf>
      _current_value = 0;
   d5f7e:	2300      	movs	r3, #0
   d5f80:	742b      	strb	r3, [r5, #16]
  for (uint8_t i = 0; i < _current_value;) {
   d5f82:	e796      	b.n	d5eb2 <_ZN18UbiProtocolHandler15buildTcpPayloadEPcPKcS2_+0x46>
  if (_debug) {
   d5f84:	7cab      	ldrb	r3, [r5, #18]
   d5f86:	b1c3      	cbz	r3, d5fba <_ZN18UbiProtocolHandler15buildTcpPayloadEPcPKcS2_+0x14e>
    Serial.println("----------");
   d5f88:	f002 ffb2 	bl	d8ef0 <_Z16_fetch_usbserialv>
   d5f8c:	4916      	ldr	r1, [pc, #88]	; (d5fe8 <_ZN18UbiProtocolHandler15buildTcpPayloadEPcPKcS2_+0x17c>)
   d5f8e:	f001 ff92 	bl	d7eb6 <_ZN5Print7printlnEPKc>
    Serial.println("payload:");
   d5f92:	f002 ffad 	bl	d8ef0 <_Z16_fetch_usbserialv>
   d5f96:	4915      	ldr	r1, [pc, #84]	; (d5fec <_ZN18UbiProtocolHandler15buildTcpPayloadEPcPKcS2_+0x180>)
   d5f98:	f001 ff8d 	bl	d7eb6 <_ZN5Print7printlnEPKc>
    Serial.println(payload);
   d5f9c:	f002 ffa8 	bl	d8ef0 <_Z16_fetch_usbserialv>
   d5fa0:	4621      	mov	r1, r4
   d5fa2:	f001 ff88 	bl	d7eb6 <_ZN5Print7printlnEPKc>
    Serial.println("----------");
   d5fa6:	f002 ffa3 	bl	d8ef0 <_Z16_fetch_usbserialv>
   d5faa:	490f      	ldr	r1, [pc, #60]	; (d5fe8 <_ZN18UbiProtocolHandler15buildTcpPayloadEPcPKcS2_+0x17c>)
   d5fac:	f001 ff83 	bl	d7eb6 <_ZN5Print7printlnEPKc>
    Serial.println("");
   d5fb0:	f002 ff9e 	bl	d8ef0 <_Z16_fetch_usbserialv>
   d5fb4:	4902      	ldr	r1, [pc, #8]	; (d5fc0 <_ZN18UbiProtocolHandler15buildTcpPayloadEPcPKcS2_+0x154>)
   d5fb6:	f001 ff7e 	bl	d7eb6 <_ZN5Print7printlnEPKc>
}
   d5fba:	b009      	add	sp, #36	; 0x24
   d5fbc:	e8bd 8ff0 	ldmia.w	sp!, {r4, r5, r6, r7, r8, r9, sl, fp, pc}
   d5fc0:	000dc80f 	.word	0x000dc80f
   d5fc4:	000dc624 	.word	0x000dc624
   d5fc8:	000dc906 	.word	0x000dc906
   d5fcc:	000dc912 	.word	0x000dc912
   d5fd0:	000dc91a 	.word	0x000dc91a
   d5fd4:	000dc8d4 	.word	0x000dc8d4
   d5fd8:	000dc8db 	.word	0x000dc8db
   d5fdc:	000dc8f9 	.word	0x000dc8f9
   d5fe0:	000dc8e0 	.word	0x000dc8e0
   d5fe4:	000dc92c 	.word	0x000dc92c
   d5fe8:	000dc687 	.word	0x000dc687
   d5fec:	000dc8fd 	.word	0x000dc8fd
   d5ff0:	000dc91f 	.word	0x000dc91f
   d5ff4:	000dc925 	.word	0x000dc925

000d5ff8 <_ZN18UbiProtocolHandler4sendEPKcS1_P8UbiFlags>:
bool UbiProtocolHandler::send(const char* device_label, const char* device_name, UbiFlags* flags) {
   d5ff8:	e92d 43f7 	stmdb	sp!, {r0, r1, r2, r4, r5, r6, r7, r8, r9, lr}
   d5ffc:	4604      	mov	r4, r0
  char* payload = (char*)malloc(sizeof(char) * MAX_BUFFER_SIZE);
   d5ffe:	f44f 702f 	mov.w	r0, #700	; 0x2bc
bool UbiProtocolHandler::send(const char* device_label, const char* device_name, UbiFlags* flags) {
   d6002:	461e      	mov	r6, r3
   d6004:	460f      	mov	r7, r1
   d6006:	4690      	mov	r8, r2
  char* payload = (char*)malloc(sizeof(char) * MAX_BUFFER_SIZE);
   d6008:	f000 ffb0 	bl	d6f6c <malloc>
  if (_iot_protocol == UBI_TCP || _iot_protocol == UBI_UDP) {
   d600c:	7ce3      	ldrb	r3, [r4, #19]
   d600e:	3b01      	subs	r3, #1
   d6010:	2b01      	cmp	r3, #1
  char* payload = (char*)malloc(sizeof(char) * MAX_BUFFER_SIZE);
   d6012:	4605      	mov	r5, r0
  if (_iot_protocol == UBI_TCP || _iot_protocol == UBI_UDP) {
   d6014:	d826      	bhi.n	d6064 <_ZN18UbiProtocolHandler4sendEPKcS1_P8UbiFlags+0x6c>
    buildTcpPayload(payload, device_label, device_name);
   d6016:	4601      	mov	r1, r0
   d6018:	4643      	mov	r3, r8
   d601a:	463a      	mov	r2, r7
   d601c:	4620      	mov	r0, r4
   d601e:	f7ff ff25 	bl	d5e6c <_ZN18UbiProtocolHandler15buildTcpPayloadEPcPKcS2_>
  if (_debug) {
   d6022:	7ca3      	ldrb	r3, [r4, #18]
   d6024:	b123      	cbz	r3, d6030 <_ZN18UbiProtocolHandler4sendEPKcS1_P8UbiFlags+0x38>
    Serial.println("Sending data...");
   d6026:	f002 ff63 	bl	d8ef0 <_Z16_fetch_usbserialv>
   d602a:	4911      	ldr	r1, [pc, #68]	; (d6070 <_ZN18UbiProtocolHandler4sendEPKcS1_P8UbiFlags+0x78>)
   d602c:	f001 ff43 	bl	d7eb6 <_ZN5Print7printlnEPKc>
  bool result = _ubiProtocol->sendData(device_label, device_name, payload, flags);
   d6030:	6860      	ldr	r0, [r4, #4]
   d6032:	6803      	ldr	r3, [r0, #0]
   d6034:	9600      	str	r6, [sp, #0]
   d6036:	f8d3 9000 	ldr.w	r9, [r3]
   d603a:	4639      	mov	r1, r7
   d603c:	462b      	mov	r3, r5
   d603e:	4642      	mov	r2, r8
   d6040:	47c8      	blx	r9
   d6042:	4607      	mov	r7, r0
  free(payload);
   d6044:	4628      	mov	r0, r5
   d6046:	f000 ff99 	bl	d6f7c <free>
  delete flags;
   d604a:	b11e      	cbz	r6, d6054 <_ZN18UbiProtocolHandler4sendEPKcS1_P8UbiFlags+0x5c>
   d604c:	2101      	movs	r1, #1
   d604e:	4630      	mov	r0, r6
   d6050:	f003 f931 	bl	d92b6 <_ZdlPvj>
  if (result) {
   d6054:	2300      	movs	r3, #0
   d6056:	b107      	cbz	r7, d605a <_ZN18UbiProtocolHandler4sendEPKcS1_P8UbiFlags+0x62>
    _dirty = false;
   d6058:	7463      	strb	r3, [r4, #17]
}
   d605a:	4638      	mov	r0, r7
  _current_value = 0;
   d605c:	7423      	strb	r3, [r4, #16]
}
   d605e:	b003      	add	sp, #12
   d6060:	e8bd 83f0 	ldmia.w	sp!, {r4, r5, r6, r7, r8, r9, pc}
    buildHttpPayload(payload);
   d6064:	4601      	mov	r1, r0
   d6066:	4620      	mov	r0, r4
   d6068:	f7ff fe4a 	bl	d5d00 <_ZN18UbiProtocolHandler16buildHttpPayloadEPc>
   d606c:	e7d9      	b.n	d6022 <_ZN18UbiProtocolHandler4sendEPKcS1_P8UbiFlags+0x2a>
   d606e:	bf00      	nop
   d6070:	000dc933 	.word	0x000dc933

000d6074 <_ZN18UbiProtocolHandler4sendEPKcN8particle5FlagsI15PublishFlagTypehEE>:
bool UbiProtocolHandler::send(const char* device_label, PublishFlags flag) {
   d6074:	b570      	push	{r4, r5, r6, lr}
   d6076:	4604      	mov	r4, r0
  UbiFlags* flags = new UbiFlags();
   d6078:	2001      	movs	r0, #1
bool UbiProtocolHandler::send(const char* device_label, PublishFlags flag) {
   d607a:	460d      	mov	r5, r1
   d607c:	4616      	mov	r6, r2
  UbiFlags* flags = new UbiFlags();
   d607e:	f7fe f80a 	bl	d4096 <_Znwj>
  flags->particle_flag = flag;
   d6082:	7006      	strb	r6, [r0, #0]
  UbiFlags* flags = new UbiFlags();
   d6084:	4603      	mov	r3, r0
  return send(device_label, device_label, flags);
   d6086:	462a      	mov	r2, r5
   d6088:	4629      	mov	r1, r5
   d608a:	4620      	mov	r0, r4
}
   d608c:	e8bd 4070 	ldmia.w	sp!, {r4, r5, r6, lr}
  return send(device_label, device_label, flags);
   d6090:	f7ff bfb2 	b.w	d5ff8 <_ZN18UbiProtocolHandler4sendEPKcS1_P8UbiFlags>

000d6094 <_ZNSt8_Rb_treeI11IotProtocolSt4pairIKS0_St8functionIFP11UbiProtocolvEEESt10_Select1stIS8_ESt4lessIS0_ESaIS8_EE8_M_eraseEPSt13_Rb_tree_nodeIS8_E>:
    _Rb_tree<_Key, _Val, _KeyOfValue, _Compare, _Alloc>::
   d6094:	b570      	push	{r4, r5, r6, lr}
   d6096:	4605      	mov	r5, r0
   d6098:	460c      	mov	r4, r1
      while (__x != 0)
   d609a:	b184      	cbz	r4, d60be <_ZNSt8_Rb_treeI11IotProtocolSt4pairIKS0_St8functionIFP11UbiProtocolvEEESt10_Select1stIS8_ESt4lessIS0_ESaIS8_EE8_M_eraseEPSt13_Rb_tree_nodeIS8_E+0x2a>
	  _M_erase(_S_right(__x));
   d609c:	68e1      	ldr	r1, [r4, #12]
   d609e:	4628      	mov	r0, r5
   d60a0:	f7ff fff8 	bl	d6094 <_ZNSt8_Rb_treeI11IotProtocolSt4pairIKS0_St8functionIFP11UbiProtocolvEEESt10_Select1stIS8_ESt4lessIS0_ESaIS8_EE8_M_eraseEPSt13_Rb_tree_nodeIS8_E>
      if (_M_manager)
   d60a4:	69e3      	ldr	r3, [r4, #28]
	  _Link_type __y = _S_left(__x);
   d60a6:	68a6      	ldr	r6, [r4, #8]
   d60a8:	b123      	cbz	r3, d60b4 <_ZNSt8_Rb_treeI11IotProtocolSt4pairIKS0_St8functionIFP11UbiProtocolvEEESt10_Select1stIS8_ESt4lessIS0_ESaIS8_EE8_M_eraseEPSt13_Rb_tree_nodeIS8_E+0x20>
    class function<_Res(_ArgTypes...)>
   d60aa:	f104 0114 	add.w	r1, r4, #20
	_M_manager(_M_functor, _M_functor, __destroy_functor);
   d60ae:	2203      	movs	r2, #3
   d60b0:	4608      	mov	r0, r1
   d60b2:	4798      	blx	r3
   d60b4:	4620      	mov	r0, r4
   d60b6:	f7fd fff2 	bl	d409e <_ZdlPv>
	  __x = __y;
   d60ba:	4634      	mov	r4, r6
      }
   d60bc:	e7ed      	b.n	d609a <_ZNSt8_Rb_treeI11IotProtocolSt4pairIKS0_St8functionIFP11UbiProtocolvEEESt10_Select1stIS8_ESt4lessIS0_ESaIS8_EE8_M_eraseEPSt13_Rb_tree_nodeIS8_E+0x6>
    }
   d60be:	bd70      	pop	{r4, r5, r6, pc}

000d60c0 <_ZN18UbiProtocolHandler7builderEPcPKc11IotProtocol>:
void UbiProtocolHandler::builder(char* token, UbiServer server, IotProtocol iot_protocol) {
   d60c0:	b5f0      	push	{r4, r5, r6, r7, lr}
   d60c2:	b08d      	sub	sp, #52	; 0x34
   d60c4:	4604      	mov	r4, r0
   d60c6:	a801      	add	r0, sp, #4
   d60c8:	460d      	mov	r5, r1
   d60ca:	4617      	mov	r7, r2
   d60cc:	461e      	mov	r6, r3
   d60ce:	f000 fecd 	bl	d6e6c <spark_deviceID>
  _default_device_label = new char[particle_id_str.length() + 1];
   d60d2:	9803      	ldr	r0, [sp, #12]
   d60d4:	3001      	adds	r0, #1
   d60d6:	f7fd ffe0 	bl	d409a <_Znaj>
  strcpy(_default_device_label, particle_id_str.c_str());
   d60da:	9901      	ldr	r1, [sp, #4]
  _default_device_label = new char[particle_id_str.length() + 1];
   d60dc:	6020      	str	r0, [r4, #0]
  strcpy(_default_device_label, particle_id_str.c_str());
   d60de:	f004 f9b4 	bl	da44a <strcpy>
  UbiBuilder builder(server, token, _iot_protocol);
   d60e2:	462a      	mov	r2, r5
   d60e4:	4633      	mov	r3, r6
   d60e6:	4639      	mov	r1, r7
  _iot_protocol = iot_protocol;
   d60e8:	74e6      	strb	r6, [r4, #19]
  UbiBuilder builder(server, token, _iot_protocol);
   d60ea:	a805      	add	r0, sp, #20
   d60ec:	f7ff f980 	bl	d53f0 <_ZN10UbiBuilderC1EPKcS1_11IotProtocol>
  _dots = (Value*)malloc(MAX_VALUES * sizeof(Value));
   d60f0:	20c8      	movs	r0, #200	; 0xc8
   d60f2:	f000 ff3b 	bl	d6f6c <malloc>
   d60f6:	60e0      	str	r0, [r4, #12]
  _ubiProtocol = builder.builder();
   d60f8:	a805      	add	r0, sp, #20
   d60fa:	f7ff f89d 	bl	d5238 <_ZN10UbiBuilder7builderEv>
  _current_value = 0;
   d60fe:	2300      	movs	r3, #0
  _token = token;
   d6100:	e9c4 0501 	strd	r0, r5, [r4, #4]
      { _M_erase(_M_begin()); }
   d6104:	9908      	ldr	r1, [sp, #32]
  _current_value = 0;
   d6106:	7423      	strb	r3, [r4, #16]
   d6108:	a806      	add	r0, sp, #24
   d610a:	f7ff ffc3 	bl	d6094 <_ZNSt8_Rb_treeI11IotProtocolSt4pairIKS0_St8functionIFP11UbiProtocolvEEESt10_Select1stIS8_ESt4lessIS0_ESaIS8_EE8_M_eraseEPSt13_Rb_tree_nodeIS8_E>
  String particle_id_str = System.deviceID();
   d610e:	a801      	add	r0, sp, #4
   d6110:	f001 ff76 	bl	d8000 <_ZN6StringD1Ev>
}
   d6114:	b00d      	add	sp, #52	; 0x34
   d6116:	bdf0      	pop	{r4, r5, r6, r7, pc}

000d6118 <_ZN18UbiProtocolHandlerC1EPcPKc11IotProtocol>:
UbiProtocolHandler::UbiProtocolHandler(char* token, UbiServer server, IotProtocol iot_protocol) {
   d6118:	b538      	push	{r3, r4, r5, lr}
   d611a:	2500      	movs	r5, #0
   d611c:	4604      	mov	r4, r0
   d611e:	8205      	strh	r5, [r0, #16]
  builder(token, server, iot_protocol);
   d6120:	f7ff ffce 	bl	d60c0 <_ZN18UbiProtocolHandler7builderEPcPKc11IotProtocol>
}
   d6124:	4620      	mov	r0, r4
   d6126:	bd38      	pop	{r3, r4, r5, pc}

000d6128 <_ZNSt8_Rb_treeIiSt4pairIKifESt10_Select1stIS2_ESt4lessIiESaIS2_EE8_M_eraseEPSt13_Rb_tree_nodeIS2_E>:
    _Rb_tree<_Key, _Val, _KeyOfValue, _Compare, _Alloc>::
   d6128:	b570      	push	{r4, r5, r6, lr}
   d612a:	4605      	mov	r5, r0
   d612c:	460c      	mov	r4, r1
      while (__x != 0)
   d612e:	b14c      	cbz	r4, d6144 <_ZNSt8_Rb_treeIiSt4pairIKifESt10_Select1stIS2_ESt4lessIiESaIS2_EE8_M_eraseEPSt13_Rb_tree_nodeIS2_E+0x1c>
	  _M_erase(_S_right(__x));
   d6130:	68e1      	ldr	r1, [r4, #12]
   d6132:	4628      	mov	r0, r5
   d6134:	f7ff fff8 	bl	d6128 <_ZNSt8_Rb_treeIiSt4pairIKifESt10_Select1stIS2_ESt4lessIiESaIS2_EE8_M_eraseEPSt13_Rb_tree_nodeIS2_E>
	  _Link_type __y = _S_left(__x);
   d6138:	68a6      	ldr	r6, [r4, #8]
   d613a:	4620      	mov	r0, r4
   d613c:	f7fd ffaf 	bl	d409e <_ZdlPv>
	  __x = __y;
   d6140:	4634      	mov	r4, r6
      while (__x != 0)
   d6142:	e7f4      	b.n	d612e <_ZNSt8_Rb_treeIiSt4pairIKifESt10_Select1stIS2_ESt4lessIiESaIS2_EE8_M_eraseEPSt13_Rb_tree_nodeIS2_E+0x6>
    }
   d6144:	bd70      	pop	{r4, r5, r6, pc}
	...

000d6148 <_GLOBAL__sub_I__ZN18UbiProtocolHandlerC2EPc11IotProtocol>:
}
   d6148:	b510      	push	{r4, lr}
        val_(val) {
   d614a:	4b10      	ldr	r3, [pc, #64]	; (d618c <_GLOBAL__sub_I__ZN18UbiProtocolHandlerC2EPc11IotProtocol+0x44>)
   d614c:	4c10      	ldr	r4, [pc, #64]	; (d6190 <_GLOBAL__sub_I__ZN18UbiProtocolHandlerC2EPc11IotProtocol+0x48>)
   d614e:	2200      	movs	r2, #0
   d6150:	701a      	strb	r2, [r3, #0]
   d6152:	4620      	mov	r0, r4
   d6154:	f002 fa82 	bl	d865c <_ZN9TCPClientC1Ev>
   d6158:	4620      	mov	r0, r4
   d615a:	4c0e      	ldr	r4, [pc, #56]	; (d6194 <_GLOBAL__sub_I__ZN18UbiProtocolHandlerC2EPc11IotProtocol+0x4c>)
   d615c:	4a0e      	ldr	r2, [pc, #56]	; (d6198 <_GLOBAL__sub_I__ZN18UbiProtocolHandlerC2EPc11IotProtocol+0x50>)
   d615e:	490f      	ldr	r1, [pc, #60]	; (d619c <_GLOBAL__sub_I__ZN18UbiProtocolHandlerC2EPc11IotProtocol+0x54>)
   d6160:	f003 f8a4 	bl	d92ac <__aeabi_atexit>
   d6164:	4620      	mov	r0, r4
   d6166:	f002 fa79 	bl	d865c <_ZN9TCPClientC1Ev>
   d616a:	4620      	mov	r0, r4
   d616c:	4c0c      	ldr	r4, [pc, #48]	; (d61a0 <_GLOBAL__sub_I__ZN18UbiProtocolHandlerC2EPc11IotProtocol+0x58>)
   d616e:	4a0a      	ldr	r2, [pc, #40]	; (d6198 <_GLOBAL__sub_I__ZN18UbiProtocolHandlerC2EPc11IotProtocol+0x50>)
   d6170:	490a      	ldr	r1, [pc, #40]	; (d619c <_GLOBAL__sub_I__ZN18UbiProtocolHandlerC2EPc11IotProtocol+0x54>)
   d6172:	f003 f89b 	bl	d92ac <__aeabi_atexit>
   d6176:	4620      	mov	r0, r4
   d6178:	f002 fc8c 	bl	d8a94 <_ZN3UDPC1Ev>
   d617c:	4620      	mov	r0, r4
   d617e:	4a06      	ldr	r2, [pc, #24]	; (d6198 <_GLOBAL__sub_I__ZN18UbiProtocolHandlerC2EPc11IotProtocol+0x50>)
   d6180:	4908      	ldr	r1, [pc, #32]	; (d61a4 <_GLOBAL__sub_I__ZN18UbiProtocolHandlerC2EPc11IotProtocol+0x5c>)
   d6182:	e8bd 4010 	ldmia.w	sp!, {r4, lr}
   d6186:	f003 b891 	b.w	d92ac <__aeabi_atexit>
   d618a:	bf00      	nop
   d618c:	2003e5d8 	.word	0x2003e5d8
   d6190:	2003e5bc 	.word	0x2003e5bc
   d6194:	2003e554 	.word	0x2003e554
   d6198:	2003e470 	.word	0x2003e470
   d619c:	000d5181 	.word	0x000d5181
   d61a0:	2003e570 	.word	0x2003e570
   d61a4:	000d5161 	.word	0x000d5161

000d61a8 <_ZN6UbiTCP8setDebugEb>:

/**
 * Makes available debug traces
 */

void UbiTCP::setDebug(bool debug) { _debug = debug; }
   d61a8:	7501      	strb	r1, [r0, #20]
   d61aa:	4770      	bx	lr

000d61ac <_ZN6UbiTCPC1EPKciS1_S1_>:
UbiTCP::UbiTCP(const char* host, const int port, const char* user_agent, const char* token) {
   d61ac:	b530      	push	{r4, r5, lr}
   d61ae:	4d06      	ldr	r5, [pc, #24]	; (d61c8 <_ZN6UbiTCPC1EPKciS1_S1_+0x1c>)
   d61b0:	6005      	str	r5, [r0, #0]
  _user_agent = user_agent;
   d61b2:	e9c0 1301 	strd	r1, r3, [r0, #4]
UbiTCP::UbiTCP(const char* host, const int port, const char* user_agent, const char* token) {
   d61b6:	2500      	movs	r5, #0
  _token = token;
   d61b8:	9b03      	ldr	r3, [sp, #12]
UbiTCP::UbiTCP(const char* host, const int port, const char* user_agent, const char* token) {
   d61ba:	7505      	strb	r5, [r0, #20]
   d61bc:	f241 3588 	movw	r5, #5000	; 0x1388
  _port = port;
   d61c0:	e9c0 3203 	strd	r3, r2, [r0, #12]
UbiTCP::UbiTCP(const char* host, const int port, const char* user_agent, const char* token) {
   d61c4:	6185      	str	r5, [r0, #24]
}
   d61c6:	bd30      	pop	{r4, r5, pc}
   d61c8:	000dc9e0 	.word	0x000dc9e0

000d61cc <_ZN6UbiTCP9reconnectEPKci>:
void UbiTCP::reconnect(const char* host, const int port) {
   d61cc:	e92d 4ff8 	stmdb	sp!, {r3, r4, r5, r6, r7, r8, r9, sl, fp, lr}
   d61d0:	460d      	mov	r5, r1
   d61d2:	4617      	mov	r7, r2
   d61d4:	4680      	mov	r8, r0
  Serial.println("Attempting to reconnect");
   d61d6:	f002 fe8b 	bl	d8ef0 <_Z16_fetch_usbserialv>
   d61da:	491e      	ldr	r1, [pc, #120]	; (d6254 <_ZN6UbiTCP9reconnectEPKci+0x88>)
  while (!_client_tcp_ubi.status() && attempts < 5) {
   d61dc:	4e1e      	ldr	r6, [pc, #120]	; (d6258 <_ZN6UbiTCP9reconnectEPKci+0x8c>)
      Serial.print("Trying to connect to ");
   d61de:	f8df a07c 	ldr.w	sl, [pc, #124]	; d625c <_ZN6UbiTCP9reconnectEPKci+0x90>
      Serial.print(" , attempt number: ");
   d61e2:	f8df b07c 	ldr.w	fp, [pc, #124]	; d6260 <_ZN6UbiTCP9reconnectEPKci+0x94>
  Serial.println("Attempting to reconnect");
   d61e6:	f001 fe66 	bl	d7eb6 <_ZN5Print7printlnEPKc>
   d61ea:	2400      	movs	r4, #0
  while (!_client_tcp_ubi.status() && attempts < 5) {
   d61ec:	4630      	mov	r0, r6
   d61ee:	f002 f9fc 	bl	d85ea <_ZN9TCPClient6statusEv>
   d61f2:	bb60      	cbnz	r0, d624e <_ZN6UbiTCP9reconnectEPKci+0x82>
   d61f4:	2c05      	cmp	r4, #5
   d61f6:	d02a      	beq.n	d624e <_ZN6UbiTCP9reconnectEPKci+0x82>
    if (_debug) {
   d61f8:	f898 3014 	ldrb.w	r3, [r8, #20]
   d61fc:	b1c3      	cbz	r3, d6230 <_ZN6UbiTCP9reconnectEPKci+0x64>
      Serial.print("Trying to connect to ");
   d61fe:	f002 fe77 	bl	d8ef0 <_Z16_fetch_usbserialv>
   d6202:	4651      	mov	r1, sl
   d6204:	f001 fe44 	bl	d7e90 <_ZN5Print5printEPKc>
      Serial.print(host);
   d6208:	f002 fe72 	bl	d8ef0 <_Z16_fetch_usbserialv>
   d620c:	4629      	mov	r1, r5
   d620e:	f001 fe3f 	bl	d7e90 <_ZN5Print5printEPKc>
      Serial.print(" , attempt number: ");
   d6212:	f002 fe6d 	bl	d8ef0 <_Z16_fetch_usbserialv>
   d6216:	4659      	mov	r1, fp
   d6218:	f001 fe3a 	bl	d7e90 <_ZN5Print5printEPKc>
      Serial.println(attempts);
   d621c:	f002 fe68 	bl	d8ef0 <_Z16_fetch_usbserialv>
   d6220:	220a      	movs	r2, #10
   d6222:	4681      	mov	r9, r0
   d6224:	4621      	mov	r1, r4
   d6226:	f001 fe50 	bl	d7eca <_ZN5Print11printNumberEmh>
        n += println();
   d622a:	4648      	mov	r0, r9
   d622c:	f001 fe37 	bl	d7e9e <_ZN5Print7printlnEv>
    _client_tcp_ubi.stop();
   d6230:	4630      	mov	r0, r6
   d6232:	f002 f9c3 	bl	d85bc <_ZN9TCPClient4stopEv>
    _client_tcp_ubi.connect(host, port);
   d6236:	2300      	movs	r3, #0
   d6238:	b2ba      	uxth	r2, r7
   d623a:	4629      	mov	r1, r5
   d623c:	4630      	mov	r0, r6
   d623e:	f002 fa31 	bl	d86a4 <_ZN9TCPClient7connectEPKctm>
    delay(1000);
   d6242:	f44f 707a 	mov.w	r0, #1000	; 0x3e8
   d6246:	f000 fed1 	bl	d6fec <delay>
   d624a:	3401      	adds	r4, #1
  while (!_client_tcp_ubi.status() && attempts < 5) {
   d624c:	e7ce      	b.n	d61ec <_ZN6UbiTCP9reconnectEPKci+0x20>
}
   d624e:	e8bd 8ff8 	ldmia.w	sp!, {r3, r4, r5, r6, r7, r8, r9, sl, fp, pc}
   d6252:	bf00      	nop
   d6254:	000dc943 	.word	0x000dc943
   d6258:	2003e5dc 	.word	0x2003e5dc
   d625c:	000dc638 	.word	0x000dc638
   d6260:	000dc64e 	.word	0x000dc64e

000d6264 <_ZN6UbiTCP21buildAndSendGetPacketEPKcS1_>:
void UbiTCP::buildAndSendGetPacket(const char* device_label, const char* variable_labels) {
   d6264:	b570      	push	{r4, r5, r6, lr}
   d6266:	4604      	mov	r4, r0
   d6268:	460e      	mov	r6, r1
  _client_tcp_ubi.print(_user_agent);
   d626a:	6881      	ldr	r1, [r0, #8]
   d626c:	482e      	ldr	r0, [pc, #184]	; (d6328 <_ZN6UbiTCP21buildAndSendGetPacketEPKcS1_+0xc4>)
void UbiTCP::buildAndSendGetPacket(const char* device_label, const char* variable_labels) {
   d626e:	4615      	mov	r5, r2
  _client_tcp_ubi.print(_user_agent);
   d6270:	f001 fe0e 	bl	d7e90 <_ZN5Print5printEPKc>
  _client_tcp_ubi.print("|LV|");
   d6274:	492d      	ldr	r1, [pc, #180]	; (d632c <_ZN6UbiTCP21buildAndSendGetPacketEPKcS1_+0xc8>)
   d6276:	482c      	ldr	r0, [pc, #176]	; (d6328 <_ZN6UbiTCP21buildAndSendGetPacketEPKcS1_+0xc4>)
   d6278:	f001 fe0a 	bl	d7e90 <_ZN5Print5printEPKc>
  _client_tcp_ubi.print(_token);
   d627c:	68e1      	ldr	r1, [r4, #12]
   d627e:	482a      	ldr	r0, [pc, #168]	; (d6328 <_ZN6UbiTCP21buildAndSendGetPacketEPKcS1_+0xc4>)
   d6280:	f001 fe06 	bl	d7e90 <_ZN5Print5printEPKc>
  _client_tcp_ubi.print("|");
   d6284:	492a      	ldr	r1, [pc, #168]	; (d6330 <_ZN6UbiTCP21buildAndSendGetPacketEPKcS1_+0xcc>)
   d6286:	4828      	ldr	r0, [pc, #160]	; (d6328 <_ZN6UbiTCP21buildAndSendGetPacketEPKcS1_+0xc4>)
   d6288:	f001 fe02 	bl	d7e90 <_ZN5Print5printEPKc>
  _client_tcp_ubi.print(device_label);
   d628c:	4631      	mov	r1, r6
   d628e:	4826      	ldr	r0, [pc, #152]	; (d6328 <_ZN6UbiTCP21buildAndSendGetPacketEPKcS1_+0xc4>)
   d6290:	f001 fdfe 	bl	d7e90 <_ZN5Print5printEPKc>
  _client_tcp_ubi.print(":");
   d6294:	4927      	ldr	r1, [pc, #156]	; (d6334 <_ZN6UbiTCP21buildAndSendGetPacketEPKcS1_+0xd0>)
   d6296:	4824      	ldr	r0, [pc, #144]	; (d6328 <_ZN6UbiTCP21buildAndSendGetPacketEPKcS1_+0xc4>)
   d6298:	f001 fdfa 	bl	d7e90 <_ZN5Print5printEPKc>
  _client_tcp_ubi.print(variable_labels);
   d629c:	4629      	mov	r1, r5
   d629e:	4822      	ldr	r0, [pc, #136]	; (d6328 <_ZN6UbiTCP21buildAndSendGetPacketEPKcS1_+0xc4>)
   d62a0:	f001 fdf6 	bl	d7e90 <_ZN5Print5printEPKc>
  _client_tcp_ubi.print("|end");
   d62a4:	4924      	ldr	r1, [pc, #144]	; (d6338 <_ZN6UbiTCP21buildAndSendGetPacketEPKcS1_+0xd4>)
   d62a6:	4820      	ldr	r0, [pc, #128]	; (d6328 <_ZN6UbiTCP21buildAndSendGetPacketEPKcS1_+0xc4>)
   d62a8:	f001 fdf2 	bl	d7e90 <_ZN5Print5printEPKc>
  if (_debug) {
   d62ac:	7d23      	ldrb	r3, [r4, #20]
   d62ae:	2b00      	cmp	r3, #0
   d62b0:	d038      	beq.n	d6324 <_ZN6UbiTCP21buildAndSendGetPacketEPKcS1_+0xc0>
    Serial.println("----");
   d62b2:	f002 fe1d 	bl	d8ef0 <_Z16_fetch_usbserialv>
   d62b6:	4921      	ldr	r1, [pc, #132]	; (d633c <_ZN6UbiTCP21buildAndSendGetPacketEPKcS1_+0xd8>)
   d62b8:	f001 fdfd 	bl	d7eb6 <_ZN5Print7printlnEPKc>
    Serial.println("Payload for request:");
   d62bc:	f002 fe18 	bl	d8ef0 <_Z16_fetch_usbserialv>
   d62c0:	491f      	ldr	r1, [pc, #124]	; (d6340 <_ZN6UbiTCP21buildAndSendGetPacketEPKcS1_+0xdc>)
   d62c2:	f001 fdf8 	bl	d7eb6 <_ZN5Print7printlnEPKc>
    Serial.print(_user_agent);
   d62c6:	f002 fe13 	bl	d8ef0 <_Z16_fetch_usbserialv>
   d62ca:	68a1      	ldr	r1, [r4, #8]
   d62cc:	f001 fde0 	bl	d7e90 <_ZN5Print5printEPKc>
    Serial.print("|LV|");
   d62d0:	f002 fe0e 	bl	d8ef0 <_Z16_fetch_usbserialv>
   d62d4:	4915      	ldr	r1, [pc, #84]	; (d632c <_ZN6UbiTCP21buildAndSendGetPacketEPKcS1_+0xc8>)
   d62d6:	f001 fddb 	bl	d7e90 <_ZN5Print5printEPKc>
    Serial.print(_token);
   d62da:	f002 fe09 	bl	d8ef0 <_Z16_fetch_usbserialv>
   d62de:	68e1      	ldr	r1, [r4, #12]
   d62e0:	f001 fdd6 	bl	d7e90 <_ZN5Print5printEPKc>
    Serial.print("|");
   d62e4:	f002 fe04 	bl	d8ef0 <_Z16_fetch_usbserialv>
   d62e8:	4911      	ldr	r1, [pc, #68]	; (d6330 <_ZN6UbiTCP21buildAndSendGetPacketEPKcS1_+0xcc>)
   d62ea:	f001 fdd1 	bl	d7e90 <_ZN5Print5printEPKc>
    Serial.print(device_label);
   d62ee:	f002 fdff 	bl	d8ef0 <_Z16_fetch_usbserialv>
   d62f2:	4631      	mov	r1, r6
   d62f4:	f001 fdcc 	bl	d7e90 <_ZN5Print5printEPKc>
    Serial.print(":");
   d62f8:	f002 fdfa 	bl	d8ef0 <_Z16_fetch_usbserialv>
   d62fc:	490d      	ldr	r1, [pc, #52]	; (d6334 <_ZN6UbiTCP21buildAndSendGetPacketEPKcS1_+0xd0>)
   d62fe:	f001 fdc7 	bl	d7e90 <_ZN5Print5printEPKc>
    Serial.print(variable_labels);
   d6302:	f002 fdf5 	bl	d8ef0 <_Z16_fetch_usbserialv>
   d6306:	4629      	mov	r1, r5
   d6308:	f001 fdc2 	bl	d7e90 <_ZN5Print5printEPKc>
    Serial.print("|end");
   d630c:	f002 fdf0 	bl	d8ef0 <_Z16_fetch_usbserialv>
   d6310:	4909      	ldr	r1, [pc, #36]	; (d6338 <_ZN6UbiTCP21buildAndSendGetPacketEPKcS1_+0xd4>)
   d6312:	f001 fdbd 	bl	d7e90 <_ZN5Print5printEPKc>
    Serial.println("\n----");
   d6316:	f002 fdeb 	bl	d8ef0 <_Z16_fetch_usbserialv>
}
   d631a:	e8bd 4070 	ldmia.w	sp!, {r4, r5, r6, lr}
    Serial.println("\n----");
   d631e:	4909      	ldr	r1, [pc, #36]	; (d6344 <_ZN6UbiTCP21buildAndSendGetPacketEPKcS1_+0xe0>)
   d6320:	f001 bdc9 	b.w	d7eb6 <_ZN5Print7printlnEPKc>
}
   d6324:	bd70      	pop	{r4, r5, r6, pc}
   d6326:	bf00      	nop
   d6328:	2003e5dc 	.word	0x2003e5dc
   d632c:	000dc95b 	.word	0x000dc95b
   d6330:	000dc95e 	.word	0x000dc95e
   d6334:	000dc904 	.word	0x000dc904
   d6338:	000dc92e 	.word	0x000dc92e
   d633c:	000dc976 	.word	0x000dc976
   d6340:	000dc960 	.word	0x000dc960
   d6344:	000dc975 	.word	0x000dc975

000d6348 <_ZN6UbiTCP16waitServerAnswerEv>:
bool UbiTCP::waitServerAnswer() {
   d6348:	b5f8      	push	{r3, r4, r5, r6, r7, lr}
  while (!_client_tcp_ubi.available() && timeout < _timeout) {
   d634a:	4f0e      	ldr	r7, [pc, #56]	; (d6384 <_ZN6UbiTCP16waitServerAnswerEv+0x3c>)
bool UbiTCP::waitServerAnswer() {
   d634c:	4604      	mov	r4, r0
  int timeout = 0;
   d634e:	2600      	movs	r6, #0
  while (!_client_tcp_ubi.available() && timeout < _timeout) {
   d6350:	4638      	mov	r0, r7
   d6352:	f002 f8d9 	bl	d8508 <_ZN9TCPClient9availableEv>
   d6356:	4605      	mov	r5, r0
   d6358:	b990      	cbnz	r0, d6380 <_ZN6UbiTCP16waitServerAnswerEv+0x38>
   d635a:	69a3      	ldr	r3, [r4, #24]
   d635c:	42b3      	cmp	r3, r6
   d635e:	dd0f      	ble.n	d6380 <_ZN6UbiTCP16waitServerAnswerEv+0x38>
    delay(1);
   d6360:	2001      	movs	r0, #1
   d6362:	f000 fe43 	bl	d6fec <delay>
    if (timeout > _timeout - 1) {
   d6366:	69a3      	ldr	r3, [r4, #24]
    timeout++;
   d6368:	3601      	adds	r6, #1
    if (timeout > _timeout - 1) {
   d636a:	42b3      	cmp	r3, r6
   d636c:	dcf0      	bgt.n	d6350 <_ZN6UbiTCP16waitServerAnswerEv+0x8>
      if (_debug) {
   d636e:	7d20      	ldrb	r0, [r4, #20]
   d6370:	b128      	cbz	r0, d637e <_ZN6UbiTCP16waitServerAnswerEv+0x36>
        Serial.println("timeout, could not read any response from the host");
   d6372:	f002 fdbd 	bl	d8ef0 <_Z16_fetch_usbserialv>
   d6376:	4904      	ldr	r1, [pc, #16]	; (d6388 <_ZN6UbiTCP16waitServerAnswerEv+0x40>)
   d6378:	f001 fd9d 	bl	d7eb6 <_ZN5Print7printlnEPKc>
   d637c:	4628      	mov	r0, r5
}
   d637e:	bdf8      	pop	{r3, r4, r5, r6, r7, pc}
  return true;
   d6380:	2001      	movs	r0, #1
   d6382:	e7fc      	b.n	d637e <_ZN6UbiTCP16waitServerAnswerEv+0x36>
   d6384:	2003e5dc 	.word	0x2003e5dc
   d6388:	000dc692 	.word	0x000dc692

000d638c <_ZN6UbiTCP14parseTCPAnswerEPKcPc>:
float UbiTCP::parseTCPAnswer(const char* request_type, char* response) {
   d638c:	e92d 47f0 	stmdb	sp!, {r4, r5, r6, r7, r8, r9, sl, lr}
  if (_debug) {
   d6390:	7d03      	ldrb	r3, [r0, #20]
float UbiTCP::parseTCPAnswer(const char* request_type, char* response) {
   d6392:	4606      	mov	r6, r0
   d6394:	4688      	mov	r8, r1
   d6396:	4614      	mov	r4, r2
  if (_debug) {
   d6398:	b14b      	cbz	r3, d63ae <_ZN6UbiTCP14parseTCPAnswerEPKcPc+0x22>
    Serial.println("----------");
   d639a:	f002 fda9 	bl	d8ef0 <_Z16_fetch_usbserialv>
   d639e:	4927      	ldr	r1, [pc, #156]	; (d643c <_ZN6UbiTCP14parseTCPAnswerEPKcPc+0xb0>)
   d63a0:	f001 fd89 	bl	d7eb6 <_ZN5Print7printlnEPKc>
    Serial.println("Server's response:");
   d63a4:	f002 fda4 	bl	d8ef0 <_Z16_fetch_usbserialv>
   d63a8:	4925      	ldr	r1, [pc, #148]	; (d6440 <_ZN6UbiTCP14parseTCPAnswerEPKcPc+0xb4>)
   d63aa:	f001 fd84 	bl	d7eb6 <_ZN5Print7printlnEPKc>
  while (_client_tcp_ubi.available()) {
   d63ae:	f8df 90a4 	ldr.w	r9, [pc, #164]	; d6454 <_ZN6UbiTCP14parseTCPAnswerEPKcPc+0xc8>
float UbiTCP::parseTCPAnswer(const char* request_type, char* response) {
   d63b2:	2500      	movs	r5, #0
    if (j >= MAX_BUFFER_SIZE - 1) {
   d63b4:	f240 2abb 	movw	sl, #699	; 0x2bb
  while (_client_tcp_ubi.available()) {
   d63b8:	4648      	mov	r0, r9
   d63ba:	f002 f8a5 	bl	d8508 <_ZN9TCPClient9availableEv>
   d63be:	b178      	cbz	r0, d63e0 <_ZN6UbiTCP14parseTCPAnswerEPKcPc+0x54>
    char c = _client_tcp_ubi.read();
   d63c0:	4648      	mov	r0, r9
   d63c2:	f001 ffda 	bl	d837a <_ZN9TCPClient4readEv>
    if (_debug) {
   d63c6:	7d33      	ldrb	r3, [r6, #20]
    char c = _client_tcp_ubi.read();
   d63c8:	b2c7      	uxtb	r7, r0
    if (_debug) {
   d63ca:	b12b      	cbz	r3, d63d8 <_ZN6UbiTCP14parseTCPAnswerEPKcPc+0x4c>
      Serial.write(c);
   d63cc:	f002 fd90 	bl	d8ef0 <_Z16_fetch_usbserialv>
   d63d0:	6803      	ldr	r3, [r0, #0]
   d63d2:	4639      	mov	r1, r7
   d63d4:	689b      	ldr	r3, [r3, #8]
   d63d6:	4798      	blx	r3
    response[j] = c;
   d63d8:	5567      	strb	r7, [r4, r5]
    j++;
   d63da:	3501      	adds	r5, #1
    if (j >= MAX_BUFFER_SIZE - 1) {
   d63dc:	4555      	cmp	r5, sl
   d63de:	d1eb      	bne.n	d63b8 <_ZN6UbiTCP14parseTCPAnswerEPKcPc+0x2c>
  if (_debug) {
   d63e0:	7d33      	ldrb	r3, [r6, #20]
   d63e2:	b123      	cbz	r3, d63ee <_ZN6UbiTCP14parseTCPAnswerEPKcPc+0x62>
    Serial.println("\n----------");
   d63e4:	f002 fd84 	bl	d8ef0 <_Z16_fetch_usbserialv>
   d63e8:	4916      	ldr	r1, [pc, #88]	; (d6444 <_ZN6UbiTCP14parseTCPAnswerEPKcPc+0xb8>)
   d63ea:	f001 fd64 	bl	d7eb6 <_ZN5Print7printlnEPKc>
  response[j] = '\0';
   d63ee:	2300      	movs	r3, #0
   d63f0:	5563      	strb	r3, [r4, r5]
  if (strcmp(request_type, "POST") == 0) {
   d63f2:	4915      	ldr	r1, [pc, #84]	; (d6448 <_ZN6UbiTCP14parseTCPAnswerEPKcPc+0xbc>)
   d63f4:	4640      	mov	r0, r8
   d63f6:	f004 f81e 	bl	da436 <strcmp>
   d63fa:	b968      	cbnz	r0, d6418 <_ZN6UbiTCP14parseTCPAnswerEPKcPc+0x8c>
    char* pch = strstr(response, "OK");
   d63fc:	4913      	ldr	r1, [pc, #76]	; (d644c <_ZN6UbiTCP14parseTCPAnswerEPKcPc+0xc0>)
   d63fe:	4620      	mov	r0, r4
   d6400:	f004 f876 	bl	da4f0 <strstr>
      result = 1;
   d6404:	ed9f 0a12 	vldr	s0, [pc, #72]	; d6450 <_ZN6UbiTCP14parseTCPAnswerEPKcPc+0xc4>
   d6408:	2800      	cmp	r0, #0
   d640a:	eef7 7a00 	vmov.f32	s15, #112	; 0x3f800000  1.0
   d640e:	bf18      	it	ne
   d6410:	eeb0 0a67 	vmovne.f32	s0, s15
}
   d6414:	e8bd 87f0 	ldmia.w	sp!, {r4, r5, r6, r7, r8, r9, sl, pc}
  char* pch = strchr(response, '|');
   d6418:	217c      	movs	r1, #124	; 0x7c
   d641a:	4620      	mov	r0, r4
   d641c:	f003 fffe 	bl	da41c <strchr>
  if (pch != NULL) {
   d6420:	b148      	cbz	r0, d6436 <_ZN6UbiTCP14parseTCPAnswerEPKcPc+0xaa>
    result = atof(pch + 1);
   d6422:	3001      	adds	r0, #1
   d6424:	f003 ff7c 	bl	da320 <atof>
   d6428:	ec51 0b10 	vmov	r0, r1, d0
   d642c:	f003 fd8e 	bl	d9f4c <__aeabi_d2f>
   d6430:	ee00 0a10 	vmov	s0, r0
   d6434:	e7ee      	b.n	d6414 <_ZN6UbiTCP14parseTCPAnswerEPKcPc+0x88>
  float result = ERROR_VALUE;
   d6436:	ed9f 0a06 	vldr	s0, [pc, #24]	; d6450 <_ZN6UbiTCP14parseTCPAnswerEPKcPc+0xc4>
   d643a:	e7eb      	b.n	d6414 <_ZN6UbiTCP14parseTCPAnswerEPKcPc+0x88>
   d643c:	000dc687 	.word	0x000dc687
   d6440:	000dc673 	.word	0x000dc673
   d6444:	000dc686 	.word	0x000dc686
   d6448:	000dc97b 	.word	0x000dc97b
   d644c:	000dc980 	.word	0x000dc980
   d6450:	cda2425f 	.word	0xcda2425f
   d6454:	2003e5dc 	.word	0x2003e5dc

000d6458 <_ZN6UbiTCP8sendDataEPKcS1_PcP8UbiFlags>:
bool UbiTCP::sendData(const char* device_label, const char* device_name, char* payload, UbiFlags* flags) {
   d6458:	b570      	push	{r4, r5, r6, lr}
   d645a:	ed2d 8b02 	vpush	{d8}
   d645e:	4604      	mov	r4, r0
  _client_tcp_ubi.connect(_host, UBIDOTS_TCP_PORT);
   d6460:	6841      	ldr	r1, [r0, #4]
   d6462:	4822      	ldr	r0, [pc, #136]	; (d64ec <_ZN6UbiTCP8sendDataEPKcS1_PcP8UbiFlags+0x94>)
   d6464:	f242 3234 	movw	r2, #9012	; 0x2334
bool UbiTCP::sendData(const char* device_label, const char* device_name, char* payload, UbiFlags* flags) {
   d6468:	461d      	mov	r5, r3
  _client_tcp_ubi.connect(_host, UBIDOTS_TCP_PORT);
   d646a:	2300      	movs	r3, #0
   d646c:	f002 f91a 	bl	d86a4 <_ZN9TCPClient7connectEPKctm>
  reconnect(_host, UBIDOTS_TCP_PORT);
   d6470:	4620      	mov	r0, r4
   d6472:	6861      	ldr	r1, [r4, #4]
   d6474:	f242 3234 	movw	r2, #9012	; 0x2334
   d6478:	f7ff fea8 	bl	d61cc <_ZN6UbiTCP9reconnectEPKci>
  if (_client_tcp_ubi.connected()) {
   d647c:	481b      	ldr	r0, [pc, #108]	; (d64ec <_ZN6UbiTCP8sendDataEPKcS1_PcP8UbiFlags+0x94>)
   d647e:	f001 fee0 	bl	d8242 <_ZN9TCPClient9connectedEv>
   d6482:	b348      	cbz	r0, d64d8 <_ZN6UbiTCP8sendDataEPKcS1_PcP8UbiFlags+0x80>
    _client_tcp_ubi.print(payload);
   d6484:	4629      	mov	r1, r5
   d6486:	4819      	ldr	r0, [pc, #100]	; (d64ec <_ZN6UbiTCP8sendDataEPKcS1_PcP8UbiFlags+0x94>)
   d6488:	f001 fd02 	bl	d7e90 <_ZN5Print5printEPKc>
  if (!waitServerAnswer()) {
   d648c:	4620      	mov	r0, r4
   d648e:	f7ff ff5b 	bl	d6348 <_ZN6UbiTCP16waitServerAnswerEv>
   d6492:	4605      	mov	r5, r0
   d6494:	b938      	cbnz	r0, d64a6 <_ZN6UbiTCP8sendDataEPKcS1_PcP8UbiFlags+0x4e>
    _client_tcp_ubi.stop();
   d6496:	4815      	ldr	r0, [pc, #84]	; (d64ec <_ZN6UbiTCP8sendDataEPKcS1_PcP8UbiFlags+0x94>)
   d6498:	f002 f890 	bl	d85bc <_ZN9TCPClient4stopEv>
    return false;
   d649c:	2500      	movs	r5, #0
}
   d649e:	ecbd 8b02 	vpop	{d8}
   d64a2:	4628      	mov	r0, r5
   d64a4:	bd70      	pop	{r4, r5, r6, pc}
  char* response = (char*)malloc(sizeof(char) * 100);
   d64a6:	2064      	movs	r0, #100	; 0x64
   d64a8:	f000 fd60 	bl	d6f6c <malloc>
  float value = parseTCPAnswer("POST", response);
   d64ac:	4910      	ldr	r1, [pc, #64]	; (d64f0 <_ZN6UbiTCP8sendDataEPKcS1_PcP8UbiFlags+0x98>)
   d64ae:	4602      	mov	r2, r0
  char* response = (char*)malloc(sizeof(char) * 100);
   d64b0:	4606      	mov	r6, r0
  float value = parseTCPAnswer("POST", response);
   d64b2:	4620      	mov	r0, r4
   d64b4:	f7ff ff6a 	bl	d638c <_ZN6UbiTCP14parseTCPAnswerEPKcPc>
  free(response);
   d64b8:	4630      	mov	r0, r6
  float value = parseTCPAnswer("POST", response);
   d64ba:	eeb0 8a40 	vmov.f32	s16, s0
  free(response);
   d64be:	f000 fd5d 	bl	d6f7c <free>
  if (value != ERROR_VALUE) {
   d64c2:	eddf 7a0c 	vldr	s15, [pc, #48]	; d64f4 <_ZN6UbiTCP8sendDataEPKcS1_PcP8UbiFlags+0x9c>
   d64c6:	eeb4 8a67 	vcmp.f32	s16, s15
   d64ca:	eef1 fa10 	vmrs	APSR_nzcv, fpscr
   d64ce:	d0e2      	beq.n	d6496 <_ZN6UbiTCP8sendDataEPKcS1_PcP8UbiFlags+0x3e>
    _client_tcp_ubi.stop();
   d64d0:	4806      	ldr	r0, [pc, #24]	; (d64ec <_ZN6UbiTCP8sendDataEPKcS1_PcP8UbiFlags+0x94>)
   d64d2:	f002 f873 	bl	d85bc <_ZN9TCPClient4stopEv>
    return true;
   d64d6:	e7e2      	b.n	d649e <_ZN6UbiTCP8sendDataEPKcS1_PcP8UbiFlags+0x46>
    if (_debug) {
   d64d8:	7d23      	ldrb	r3, [r4, #20]
   d64da:	2b00      	cmp	r3, #0
   d64dc:	d0db      	beq.n	d6496 <_ZN6UbiTCP8sendDataEPKcS1_PcP8UbiFlags+0x3e>
      Serial.println("Could not connect to the host");
   d64de:	f002 fd07 	bl	d8ef0 <_Z16_fetch_usbserialv>
   d64e2:	4905      	ldr	r1, [pc, #20]	; (d64f8 <_ZN6UbiTCP8sendDataEPKcS1_PcP8UbiFlags+0xa0>)
   d64e4:	f001 fce7 	bl	d7eb6 <_ZN5Print7printlnEPKc>
   d64e8:	e7d5      	b.n	d6496 <_ZN6UbiTCP8sendDataEPKcS1_PcP8UbiFlags+0x3e>
   d64ea:	bf00      	nop
   d64ec:	2003e5dc 	.word	0x2003e5dc
   d64f0:	000dc97b 	.word	0x000dc97b
   d64f4:	cda2425f 	.word	0xcda2425f
   d64f8:	000dc983 	.word	0x000dc983

000d64fc <_ZN6UbiTCP3getEPKcS1_>:
float UbiTCP::get(const char* device_label, const char* variable_label) {
   d64fc:	b570      	push	{r4, r5, r6, lr}
   d64fe:	ed2d 8b02 	vpush	{d8}
   d6502:	4604      	mov	r4, r0
  _client_tcp_ubi.connect(_host, UBIDOTS_TCP_PORT);
   d6504:	2300      	movs	r3, #0
float UbiTCP::get(const char* device_label, const char* variable_label) {
   d6506:	460d      	mov	r5, r1
   d6508:	4616      	mov	r6, r2
  _client_tcp_ubi.connect(_host, UBIDOTS_TCP_PORT);
   d650a:	6841      	ldr	r1, [r0, #4]
   d650c:	481e      	ldr	r0, [pc, #120]	; (d6588 <_ZN6UbiTCP3getEPKcS1_+0x8c>)
   d650e:	f242 3234 	movw	r2, #9012	; 0x2334
   d6512:	f002 f8c7 	bl	d86a4 <_ZN9TCPClient7connectEPKctm>
  reconnect(_host, UBIDOTS_TCP_PORT);
   d6516:	4620      	mov	r0, r4
   d6518:	6861      	ldr	r1, [r4, #4]
   d651a:	f242 3234 	movw	r2, #9012	; 0x2334
   d651e:	f7ff fe55 	bl	d61cc <_ZN6UbiTCP9reconnectEPKci>
  if (_client_tcp_ubi.connected()) {
   d6522:	4819      	ldr	r0, [pc, #100]	; (d6588 <_ZN6UbiTCP3getEPKcS1_+0x8c>)
   d6524:	f001 fe8d 	bl	d8242 <_ZN9TCPClient9connectedEv>
   d6528:	b328      	cbz	r0, d6576 <_ZN6UbiTCP3getEPKcS1_+0x7a>
    buildAndSendGetPacket(device_label, variable_label);
   d652a:	4620      	mov	r0, r4
   d652c:	4632      	mov	r2, r6
   d652e:	4629      	mov	r1, r5
   d6530:	f7ff fe98 	bl	d6264 <_ZN6UbiTCP21buildAndSendGetPacketEPKcS1_>
    if (!waitServerAnswer()) {
   d6534:	4620      	mov	r0, r4
   d6536:	f7ff ff07 	bl	d6348 <_ZN6UbiTCP16waitServerAnswerEv>
   d653a:	b948      	cbnz	r0, d6550 <_ZN6UbiTCP3getEPKcS1_+0x54>
      _client_tcp_ubi.stop();
   d653c:	4812      	ldr	r0, [pc, #72]	; (d6588 <_ZN6UbiTCP3getEPKcS1_+0x8c>)
      return ERROR_VALUE;
   d653e:	ed9f 8a13 	vldr	s16, [pc, #76]	; d658c <_ZN6UbiTCP3getEPKcS1_+0x90>
      _client_tcp_ubi.stop();
   d6542:	f002 f83b 	bl	d85bc <_ZN9TCPClient4stopEv>
}
   d6546:	eeb0 0a48 	vmov.f32	s0, s16
   d654a:	ecbd 8b02 	vpop	{d8}
   d654e:	bd70      	pop	{r4, r5, r6, pc}
    char* response = (char*)malloc(sizeof(char) * MAX_BUFFER_SIZE);
   d6550:	f44f 702f 	mov.w	r0, #700	; 0x2bc
   d6554:	f000 fd0a 	bl	d6f6c <malloc>
    float value = parseTCPAnswer("LV", response);
   d6558:	490d      	ldr	r1, [pc, #52]	; (d6590 <_ZN6UbiTCP3getEPKcS1_+0x94>)
   d655a:	4602      	mov	r2, r0
    char* response = (char*)malloc(sizeof(char) * MAX_BUFFER_SIZE);
   d655c:	4605      	mov	r5, r0
    float value = parseTCPAnswer("LV", response);
   d655e:	4620      	mov	r0, r4
   d6560:	f7ff ff14 	bl	d638c <_ZN6UbiTCP14parseTCPAnswerEPKcPc>
    _client_tcp_ubi.stop();
   d6564:	4808      	ldr	r0, [pc, #32]	; (d6588 <_ZN6UbiTCP3getEPKcS1_+0x8c>)
    float value = parseTCPAnswer("LV", response);
   d6566:	eeb0 8a40 	vmov.f32	s16, s0
    _client_tcp_ubi.stop();
   d656a:	f002 f827 	bl	d85bc <_ZN9TCPClient4stopEv>
    free(response);
   d656e:	4628      	mov	r0, r5
   d6570:	f000 fd04 	bl	d6f7c <free>
    return value;
   d6574:	e7e7      	b.n	d6546 <_ZN6UbiTCP3getEPKcS1_+0x4a>
  if (_debug) {
   d6576:	7d23      	ldrb	r3, [r4, #20]
   d6578:	2b00      	cmp	r3, #0
   d657a:	d0df      	beq.n	d653c <_ZN6UbiTCP3getEPKcS1_+0x40>
    Serial.println("ERROR could not connect to the server");
   d657c:	f002 fcb8 	bl	d8ef0 <_Z16_fetch_usbserialv>
   d6580:	4904      	ldr	r1, [pc, #16]	; (d6594 <_ZN6UbiTCP3getEPKcS1_+0x98>)
   d6582:	f001 fc98 	bl	d7eb6 <_ZN5Print7printlnEPKc>
   d6586:	e7d9      	b.n	d653c <_ZN6UbiTCP3getEPKcS1_+0x40>
   d6588:	2003e5dc 	.word	0x2003e5dc
   d658c:	cda2425f 	.word	0xcda2425f
   d6590:	000dc9a1 	.word	0x000dc9a1
   d6594:	000dc9a4 	.word	0x000dc9a4

000d6598 <_ZNSt8_Rb_treeIiSt4pairIKifESt10_Select1stIS2_ESt4lessIiESaIS2_EE17_M_emplace_uniqueIJS0_IifEEEES0_ISt17_Rb_tree_iteratorIS2_EbEDpOT_>:
      _Rb_tree<_Key, _Val, _KeyOfValue, _Compare, _Alloc>::
   d6598:	e92d 47f0 	stmdb	sp!, {r4, r5, r6, r7, r8, r9, sl, lr}
   d659c:	4604      	mov	r4, r0
	return static_cast<_Tp*>(::operator new(__n * sizeof(_Tp)));
   d659e:	2018      	movs	r0, #24
   d65a0:	4615      	mov	r5, r2
   d65a2:	460f      	mov	r7, r1
   d65a4:	f7fd fd77 	bl	d4096 <_Znwj>
      { return &this->_M_impl._M_header; }
   d65a8:	f107 0a04 	add.w	sl, r7, #4
			  && _PCCFP<_U1, _U2>::template
			   _ImplicitlyMoveConvertiblePair<_U1, _U2>(),
                         bool>::type=true>
	constexpr pair(pair<_U1, _U2>&& __p)
	: first(std::forward<_U1>(__p.first)),
	  second(std::forward<_U2>(__p.second)) { }
   d65ac:	686b      	ldr	r3, [r5, #4]
   d65ae:	f8d5 9000 	ldr.w	r9, [r5]
      _Link_type __x = _M_begin();
   d65b2:	68ba      	ldr	r2, [r7, #8]
   d65b4:	6143      	str	r3, [r0, #20]
   d65b6:	4606      	mov	r6, r0
   d65b8:	f8c0 9010 	str.w	r9, [r0, #16]
      { return &this->_M_impl._M_header; }
   d65bc:	4655      	mov	r5, sl
      bool __comp = true;
   d65be:	2301      	movs	r3, #1
      while (__x != 0)
   d65c0:	b152      	cbz	r2, d65d8 <_ZNSt8_Rb_treeIiSt4pairIKifESt10_Select1stIS2_ESt4lessIiESaIS2_EE17_M_emplace_uniqueIJS0_IifEEEES0_ISt17_Rb_tree_iteratorIS2_EbEDpOT_+0x40>
	  __x = __comp ? _S_left(__x) : _S_right(__x);
   d65c2:	6913      	ldr	r3, [r2, #16]
   d65c4:	454b      	cmp	r3, r9
   d65c6:	bfcc      	ite	gt
   d65c8:	6891      	ldrgt	r1, [r2, #8]
   d65ca:	68d1      	ldrle	r1, [r2, #12]
   d65cc:	4615      	mov	r5, r2
   d65ce:	bfcc      	ite	gt
   d65d0:	2301      	movgt	r3, #1
   d65d2:	2300      	movle	r3, #0
   d65d4:	460a      	mov	r2, r1
   d65d6:	e7f3      	b.n	d65c0 <_ZNSt8_Rb_treeIiSt4pairIKifESt10_Select1stIS2_ESt4lessIiESaIS2_EE17_M_emplace_uniqueIJS0_IifEEEES0_ISt17_Rb_tree_iteratorIS2_EbEDpOT_+0x28>
      if (__comp)
   d65d8:	b1a3      	cbz	r3, d6604 <_ZNSt8_Rb_treeIiSt4pairIKifESt10_Select1stIS2_ESt4lessIiESaIS2_EE17_M_emplace_uniqueIJS0_IifEEEES0_ISt17_Rb_tree_iteratorIS2_EbEDpOT_+0x6c>
	  if (__j == begin())
   d65da:	68fb      	ldr	r3, [r7, #12]
   d65dc:	42ab      	cmp	r3, r5
   d65de:	d023      	beq.n	d6628 <_ZNSt8_Rb_treeIiSt4pairIKifESt10_Select1stIS2_ESt4lessIiESaIS2_EE17_M_emplace_uniqueIJS0_IifEEEES0_ISt17_Rb_tree_iteratorIS2_EbEDpOT_+0x90>
	_M_node = _Rb_tree_decrement(_M_node);
   d65e0:	4628      	mov	r0, r5
   d65e2:	f002 fec2 	bl	d936a <_ZSt18_Rb_tree_decrementPSt18_Rb_tree_node_base>
   d65e6:	4680      	mov	r8, r0
      if (_M_impl._M_key_compare(_S_key(__j._M_node), __k))
   d65e8:	f8d8 3010 	ldr.w	r3, [r8, #16]
   d65ec:	454b      	cmp	r3, r9
   d65ee:	db1b      	blt.n	d6628 <_ZNSt8_Rb_treeIiSt4pairIKifESt10_Select1stIS2_ESt4lessIiESaIS2_EE17_M_emplace_uniqueIJS0_IifEEEES0_ISt17_Rb_tree_iteratorIS2_EbEDpOT_+0x90>
	::operator delete(__p);
   d65f0:	4630      	mov	r0, r6
   d65f2:	f7fd fd54 	bl	d409e <_ZdlPv>
	: first(std::forward<_U1>(__x)), second(std::forward<_U2>(__y)) { }
   d65f6:	f8c4 8000 	str.w	r8, [r4]
   d65fa:	2300      	movs	r3, #0
   d65fc:	7123      	strb	r3, [r4, #4]
      }
   d65fe:	4620      	mov	r0, r4
   d6600:	e8bd 87f0 	ldmia.w	sp!, {r4, r5, r6, r7, r8, r9, sl, pc}
   d6604:	46a8      	mov	r8, r5
   d6606:	e7ef      	b.n	d65e8 <_ZNSt8_Rb_treeIiSt4pairIKifESt10_Select1stIS2_ESt4lessIiESaIS2_EE17_M_emplace_uniqueIJS0_IifEEEES0_ISt17_Rb_tree_iteratorIS2_EbEDpOT_+0x50>
			    || _M_impl._M_key_compare(_S_key(__z),
   d6608:	6928      	ldr	r0, [r5, #16]
   d660a:	4581      	cmp	r9, r0
   d660c:	bfac      	ite	ge
   d660e:	2000      	movge	r0, #0
   d6610:	2001      	movlt	r0, #1
      _Rb_tree_insert_and_rebalance(__insert_left, __z, __p,
   d6612:	4653      	mov	r3, sl
   d6614:	462a      	mov	r2, r5
   d6616:	4631      	mov	r1, r6
   d6618:	f002 fea9 	bl	d936e <_ZSt29_Rb_tree_insert_and_rebalancebPSt18_Rb_tree_node_baseS0_RS_>
      ++_M_impl._M_node_count;
   d661c:	697b      	ldr	r3, [r7, #20]
   d661e:	6026      	str	r6, [r4, #0]
   d6620:	3301      	adds	r3, #1
   d6622:	617b      	str	r3, [r7, #20]
   d6624:	2301      	movs	r3, #1
   d6626:	e7e9      	b.n	d65fc <_ZNSt8_Rb_treeIiSt4pairIKifESt10_Select1stIS2_ESt4lessIiESaIS2_EE17_M_emplace_uniqueIJS0_IifEEEES0_ISt17_Rb_tree_iteratorIS2_EbEDpOT_+0x64>
      bool __insert_left = (__x != 0 || __p == _M_end()
   d6628:	45aa      	cmp	sl, r5
   d662a:	d1ed      	bne.n	d6608 <_ZNSt8_Rb_treeIiSt4pairIKifESt10_Select1stIS2_ESt4lessIiESaIS2_EE17_M_emplace_uniqueIJS0_IifEEEES0_ISt17_Rb_tree_iteratorIS2_EbEDpOT_+0x70>
			    || _M_impl._M_key_compare(_S_key(__z),
   d662c:	2001      	movs	r0, #1
   d662e:	e7f0      	b.n	d6612 <_ZNSt8_Rb_treeIiSt4pairIKifESt10_Select1stIS2_ESt4lessIiESaIS2_EE17_M_emplace_uniqueIJS0_IifEEEES0_ISt17_Rb_tree_iteratorIS2_EbEDpOT_+0x7a>

000d6630 <_ZN6UbiTCP19parseMultipleValuesEv>:
tcpMap UbiTCP::parseMultipleValues() {
   d6630:	e92d 47ff 	stmdb	sp!, {r0, r1, r2, r3, r4, r5, r6, r7, r8, r9, sl, lr}
   d6634:	460d      	mov	r5, r1
   d6636:	4604      	mov	r4, r0
  char* response = (char*)malloc(sizeof(char) * MAX_BUFFER_SIZE);
   d6638:	f44f 702f 	mov.w	r0, #700	; 0x2bc
   d663c:	f000 fc96 	bl	d6f6c <malloc>
  if (_debug) {
   d6640:	7d2b      	ldrb	r3, [r5, #20]
  char* response = (char*)malloc(sizeof(char) * MAX_BUFFER_SIZE);
   d6642:	4607      	mov	r7, r0
  if (_debug) {
   d6644:	b14b      	cbz	r3, d665a <_ZN6UbiTCP19parseMultipleValuesEv+0x2a>
    Serial.println("----------");
   d6646:	f002 fc53 	bl	d8ef0 <_Z16_fetch_usbserialv>
   d664a:	493a      	ldr	r1, [pc, #232]	; (d6734 <_ZN6UbiTCP19parseMultipleValuesEv+0x104>)
   d664c:	f001 fc33 	bl	d7eb6 <_ZN5Print7printlnEPKc>
    Serial.println("Server's response:");
   d6650:	f002 fc4e 	bl	d8ef0 <_Z16_fetch_usbserialv>
   d6654:	4938      	ldr	r1, [pc, #224]	; (d6738 <_ZN6UbiTCP19parseMultipleValuesEv+0x108>)
   d6656:	f001 fc2e 	bl	d7eb6 <_ZN5Print7printlnEPKc>
  while (_client_tcp_ubi.available()) {
   d665a:	f8df 90f0 	ldr.w	r9, [pc, #240]	; d674c <_ZN6UbiTCP19parseMultipleValuesEv+0x11c>
tcpMap UbiTCP::parseMultipleValues() {
   d665e:	2600      	movs	r6, #0
    if (j >= MAX_BUFFER_SIZE - 1) {
   d6660:	f240 2abb 	movw	sl, #699	; 0x2bb
  while (_client_tcp_ubi.available()) {
   d6664:	4648      	mov	r0, r9
   d6666:	f001 ff4f 	bl	d8508 <_ZN9TCPClient9availableEv>
   d666a:	b188      	cbz	r0, d6690 <_ZN6UbiTCP19parseMultipleValuesEv+0x60>
    char c = _client_tcp_ubi.read();
   d666c:	4648      	mov	r0, r9
   d666e:	f001 fe84 	bl	d837a <_ZN9TCPClient4readEv>
    if (_debug) {
   d6672:	7d2b      	ldrb	r3, [r5, #20]
    char c = _client_tcp_ubi.read();
   d6674:	fa5f f880 	uxtb.w	r8, r0
    if (_debug) {
   d6678:	b12b      	cbz	r3, d6686 <_ZN6UbiTCP19parseMultipleValuesEv+0x56>
      Serial.write(c);
   d667a:	f002 fc39 	bl	d8ef0 <_Z16_fetch_usbserialv>
   d667e:	6803      	ldr	r3, [r0, #0]
   d6680:	4641      	mov	r1, r8
   d6682:	689b      	ldr	r3, [r3, #8]
   d6684:	4798      	blx	r3
    response[j] = c;
   d6686:	f807 8006 	strb.w	r8, [r7, r6]
    j++;
   d668a:	3601      	adds	r6, #1
    if (j >= MAX_BUFFER_SIZE - 1) {
   d668c:	4556      	cmp	r6, sl
   d668e:	d1e9      	bne.n	d6664 <_ZN6UbiTCP19parseMultipleValuesEv+0x34>
  if (_debug) {
   d6690:	7d2b      	ldrb	r3, [r5, #20]
   d6692:	b123      	cbz	r3, d669e <_ZN6UbiTCP19parseMultipleValuesEv+0x6e>
    Serial.println("\n----------");
   d6694:	f002 fc2c 	bl	d8ef0 <_Z16_fetch_usbserialv>
   d6698:	4928      	ldr	r1, [pc, #160]	; (d673c <_ZN6UbiTCP19parseMultipleValuesEv+0x10c>)
   d669a:	f001 fc0c 	bl	d7eb6 <_ZN5Print7printlnEPKc>
  response[j] = '\0';
   d669e:	2500      	movs	r5, #0
	  : _Node_allocator()
   d66a0:	1d23      	adds	r3, r4, #4
      _M_header._M_left = &_M_header;
   d66a2:	e9c4 5302 	strd	r5, r3, [r4, #8]
      _M_node_count = 0;
   d66a6:	e9c4 3504 	strd	r3, r5, [r4, #16]
  char* token = strtok(response, "|");
   d66aa:	4925      	ldr	r1, [pc, #148]	; (d6740 <_ZN6UbiTCP19parseMultipleValuesEv+0x110>)
      _M_header._M_color = _S_red;
   d66ac:	7125      	strb	r5, [r4, #4]
   d66ae:	4638      	mov	r0, r7
  response[j] = '\0';
   d66b0:	55bd      	strb	r5, [r7, r6]
  char* token = strtok(response, "|");
   d66b2:	f004 fd67 	bl	db184 <strtok>
    if (strcmp(token, "OK") == 0) {
   d66b6:	f8df 9098 	ldr.w	r9, [pc, #152]	; d6750 <_ZN6UbiTCP19parseMultipleValuesEv+0x120>
    } else if (strcmp(token, "ERROR") == 0) {
   d66ba:	f8df a098 	ldr.w	sl, [pc, #152]	; d6754 <_ZN6UbiTCP19parseMultipleValuesEv+0x124>
      token = strtok(NULL, "|");
   d66be:	f8df 8080 	ldr.w	r8, [pc, #128]	; d6740 <_ZN6UbiTCP19parseMultipleValuesEv+0x110>
  char* token = strtok(response, "|");
   d66c2:	4606      	mov	r6, r0
  while (token != NULL) {
   d66c4:	b37e      	cbz	r6, d6726 <_ZN6UbiTCP19parseMultipleValuesEv+0xf6>
    if (strcmp(token, "OK") == 0) {
   d66c6:	4649      	mov	r1, r9
   d66c8:	4630      	mov	r0, r6
   d66ca:	f003 feb4 	bl	da436 <strcmp>
   d66ce:	bb00      	cbnz	r0, d6712 <_ZN6UbiTCP19parseMultipleValuesEv+0xe2>
      token = strtok(NULL, "|");
   d66d0:	4641      	mov	r1, r8
   d66d2:	f004 fd57 	bl	db184 <strtok>
      if (strcmp(token, "null") == 0) {
   d66d6:	491b      	ldr	r1, [pc, #108]	; (d6744 <_ZN6UbiTCP19parseMultipleValuesEv+0x114>)
      token = strtok(NULL, "|");
   d66d8:	4606      	mov	r6, r0
      if (strcmp(token, "null") == 0) {
   d66da:	f003 feac 	bl	da436 <strcmp>
   d66de:	b918      	cbnz	r0, d66e8 <_ZN6UbiTCP19parseMultipleValuesEv+0xb8>
       : first(std::forward<_U1>(__x)), second(__y) { }
   d66e0:	4b19      	ldr	r3, [pc, #100]	; (d6748 <_ZN6UbiTCP19parseMultipleValuesEv+0x118>)
   d66e2:	9500      	str	r5, [sp, #0]
   d66e4:	9301      	str	r3, [sp, #4]
   d66e6:	e008      	b.n	d66fa <_ZN6UbiTCP19parseMultipleValuesEv+0xca>
        results.insert(std::pair<int, float>(mapKey, atof(token)));
   d66e8:	4630      	mov	r0, r6
   d66ea:	f003 fe19 	bl	da320 <atof>
   d66ee:	ec51 0b10 	vmov	r0, r1, d0
	: first(std::forward<_U1>(__x)), second(std::forward<_U2>(__y)) { }
   d66f2:	9500      	str	r5, [sp, #0]
   d66f4:	f003 fc2a 	bl	d9f4c <__aeabi_d2f>
   d66f8:	9001      	str	r0, [sp, #4]

      template<typename _Pair>
	__enable_if_t<is_constructible<value_type, _Pair>::value,
		      pair<iterator, bool>>
	insert(_Pair&& __x)
	{ return _M_t._M_emplace_unique(std::forward<_Pair>(__x)); }
   d66fa:	466a      	mov	r2, sp
   d66fc:	4621      	mov	r1, r4
   d66fe:	a802      	add	r0, sp, #8
   d6700:	f7ff ff4a 	bl	d6598 <_ZNSt8_Rb_treeIiSt4pairIKifESt10_Select1stIS2_ESt4lessIiESaIS2_EE17_M_emplace_uniqueIJS0_IifEEEES0_ISt17_Rb_tree_iteratorIS2_EbEDpOT_>
    token = strtok(NULL, "|");
   d6704:	4641      	mov	r1, r8
   d6706:	2000      	movs	r0, #0
   d6708:	f004 fd3c 	bl	db184 <strtok>
    mapKey++;
   d670c:	3501      	adds	r5, #1
    token = strtok(NULL, "|");
   d670e:	4606      	mov	r6, r0
  while (token != NULL) {
   d6710:	e7d8      	b.n	d66c4 <_ZN6UbiTCP19parseMultipleValuesEv+0x94>
    } else if (strcmp(token, "ERROR") == 0) {
   d6712:	4651      	mov	r1, sl
   d6714:	4630      	mov	r0, r6
   d6716:	f003 fe8e 	bl	da436 <strcmp>
   d671a:	2800      	cmp	r0, #0
   d671c:	d1f2      	bne.n	d6704 <_ZN6UbiTCP19parseMultipleValuesEv+0xd4>
      token = strtok(NULL, "|");
   d671e:	4641      	mov	r1, r8
   d6720:	f004 fd30 	bl	db184 <strtok>
   d6724:	e7dc      	b.n	d66e0 <_ZN6UbiTCP19parseMultipleValuesEv+0xb0>
  free(response);
   d6726:	4638      	mov	r0, r7
   d6728:	f000 fc28 	bl	d6f7c <free>
}
   d672c:	4620      	mov	r0, r4
   d672e:	b004      	add	sp, #16
   d6730:	e8bd 87f0 	ldmia.w	sp!, {r4, r5, r6, r7, r8, r9, sl, pc}
   d6734:	000dc687 	.word	0x000dc687
   d6738:	000dc673 	.word	0x000dc673
   d673c:	000dc686 	.word	0x000dc686
   d6740:	000dc95e 	.word	0x000dc95e
   d6744:	000dc9ca 	.word	0x000dc9ca
   d6748:	cda2425f 	.word	0xcda2425f
   d674c:	2003e5dc 	.word	0x2003e5dc
   d6750:	000dc980 	.word	0x000dc980
   d6754:	000dc9cf 	.word	0x000dc9cf

000d6758 <_ZN6UbiTCP17getMultipleValuesEPKcS1_>:
tcpMap UbiTCP::getMultipleValues(const char* device_label, const char* variable_labels) {
   d6758:	e92d 41f0 	stmdb	sp!, {r4, r5, r6, r7, r8, lr}
	  : _Node_allocator()
   d675c:	1d07      	adds	r7, r0, #4
   d675e:	4698      	mov	r8, r3
      _M_header._M_color = _S_red;
   d6760:	2300      	movs	r3, #0
      _M_header._M_left = &_M_header;
   d6762:	e9c0 3702 	strd	r3, r7, [r0, #8]
      _M_node_count = 0;
   d6766:	e9c0 7304 	strd	r7, r3, [r0, #16]
      _M_header._M_color = _S_red;
   d676a:	7103      	strb	r3, [r0, #4]
   d676c:	460d      	mov	r5, r1
   d676e:	b088      	sub	sp, #32
  _client_tcp_ubi.connect(_host, UBIDOTS_TCP_PORT);
   d6770:	6849      	ldr	r1, [r1, #4]
tcpMap UbiTCP::getMultipleValues(const char* device_label, const char* variable_labels) {
   d6772:	4604      	mov	r4, r0
   d6774:	4616      	mov	r6, r2
  _client_tcp_ubi.connect(_host, UBIDOTS_TCP_PORT);
   d6776:	482e      	ldr	r0, [pc, #184]	; (d6830 <_ZN6UbiTCP17getMultipleValuesEPKcS1_+0xd8>)
   d6778:	f242 3234 	movw	r2, #9012	; 0x2334
   d677c:	f001 ff92 	bl	d86a4 <_ZN9TCPClient7connectEPKctm>
  reconnect(_host, UBIDOTS_TCP_PORT);
   d6780:	4628      	mov	r0, r5
   d6782:	6869      	ldr	r1, [r5, #4]
   d6784:	f242 3234 	movw	r2, #9012	; 0x2334
   d6788:	f7ff fd20 	bl	d61cc <_ZN6UbiTCP9reconnectEPKci>
  if (_client_tcp_ubi.connected()) {
   d678c:	4828      	ldr	r0, [pc, #160]	; (d6830 <_ZN6UbiTCP17getMultipleValuesEPKcS1_+0xd8>)
   d678e:	f001 fd58 	bl	d8242 <_ZN9TCPClient9connectedEv>
   d6792:	b310      	cbz	r0, d67da <_ZN6UbiTCP17getMultipleValuesEPKcS1_+0x82>
    buildAndSendGetPacket(device_label, variable_labels);
   d6794:	4631      	mov	r1, r6
   d6796:	4642      	mov	r2, r8
   d6798:	4628      	mov	r0, r5
   d679a:	f7ff fd63 	bl	d6264 <_ZN6UbiTCP21buildAndSendGetPacketEPKcS1_>
    if (!waitServerAnswer()) {
   d679e:	4628      	mov	r0, r5
   d67a0:	f7ff fdd2 	bl	d6348 <_ZN6UbiTCP16waitServerAnswerEv>
   d67a4:	4606      	mov	r6, r0
   d67a6:	b9c0      	cbnz	r0, d67da <_ZN6UbiTCP17getMultipleValuesEPKcS1_+0x82>
      _client_tcp_ubi.stop();
   d67a8:	4821      	ldr	r0, [pc, #132]	; (d6830 <_ZN6UbiTCP17getMultipleValuesEPKcS1_+0xd8>)
       : first(std::forward<_U1>(__x)), second(__y) { }
   d67aa:	4f22      	ldr	r7, [pc, #136]	; (d6834 <_ZN6UbiTCP17getMultipleValuesEPKcS1_+0xdc>)
   d67ac:	f001 ff06 	bl	d85bc <_ZN9TCPClient4stopEv>
      char* token = strtok((char*)variable_labels, ",");
   d67b0:	4921      	ldr	r1, [pc, #132]	; (d6838 <_ZN6UbiTCP17getMultipleValuesEPKcS1_+0xe0>)
   d67b2:	4640      	mov	r0, r8
   d67b4:	f004 fce6 	bl	db184 <strtok>
      int mapKey = 0;
   d67b8:	4635      	mov	r5, r6
        token = strtok(NULL, ",");
   d67ba:	4e1f      	ldr	r6, [pc, #124]	; (d6838 <_ZN6UbiTCP17getMultipleValuesEPKcS1_+0xe0>)
      while (token != NULL) {
   d67bc:	2800      	cmp	r0, #0
   d67be:	d032      	beq.n	d6826 <_ZN6UbiTCP17getMultipleValuesEPKcS1_+0xce>
   d67c0:	4621      	mov	r1, r4
   d67c2:	a802      	add	r0, sp, #8
   d67c4:	466a      	mov	r2, sp
   d67c6:	9500      	str	r5, [sp, #0]
   d67c8:	9701      	str	r7, [sp, #4]
   d67ca:	f7ff fee5 	bl	d6598 <_ZNSt8_Rb_treeIiSt4pairIKifESt10_Select1stIS2_ESt4lessIiESaIS2_EE17_M_emplace_uniqueIJS0_IifEEEES0_ISt17_Rb_tree_iteratorIS2_EbEDpOT_>
        token = strtok(NULL, ",");
   d67ce:	4631      	mov	r1, r6
   d67d0:	2000      	movs	r0, #0
        mapKey++;
   d67d2:	3501      	adds	r5, #1
        token = strtok(NULL, ",");
   d67d4:	f004 fcd6 	bl	db184 <strtok>
      while (token != NULL) {
   d67d8:	e7f0      	b.n	d67bc <_ZN6UbiTCP17getMultipleValuesEPKcS1_+0x64>
  results = parseMultipleValues();
   d67da:	4629      	mov	r1, r5
   d67dc:	a802      	add	r0, sp, #8
   d67de:	f7ff ff27 	bl	d6630 <_ZN6UbiTCP19parseMultipleValuesEv>
	_M_erase(_M_begin());
   d67e2:	68a1      	ldr	r1, [r4, #8]
   d67e4:	4620      	mov	r0, r4
   d67e6:	f7ff fc9f 	bl	d6128 <_ZNSt8_Rb_treeIiSt4pairIKifESt10_Select1stIS2_ESt4lessIiESaIS2_EE8_M_eraseEPSt13_Rb_tree_nodeIS2_E>
      if (__x._M_root() != nullptr)
   d67ea:	9a04      	ldr	r2, [sp, #16]
      _M_header._M_parent = 0;
   d67ec:	2300      	movs	r3, #0
      _M_header._M_left = &_M_header;
   d67ee:	e9c4 3702 	strd	r3, r7, [r4, #8]
      _M_node_count = 0;
   d67f2:	e9c4 7304 	strd	r7, r3, [r4, #16]
      if (__x._M_root() != nullptr)
   d67f6:	b17a      	cbz	r2, d6818 <_ZN6UbiTCP17getMultipleValuesEPKcS1_+0xc0>
      _M_header._M_color = __from._M_header._M_color;
   d67f8:	f89d 100c 	ldrb.w	r1, [sp, #12]
   d67fc:	7121      	strb	r1, [r4, #4]
      _M_header._M_left = __from._M_header._M_left;
   d67fe:	9905      	ldr	r1, [sp, #20]
   d6800:	60e1      	str	r1, [r4, #12]
      _M_header._M_right = __from._M_header._M_right;
   d6802:	9906      	ldr	r1, [sp, #24]
      _M_header._M_parent = __from._M_header._M_parent;
   d6804:	60a2      	str	r2, [r4, #8]
      _M_header._M_right = __from._M_header._M_right;
   d6806:	6121      	str	r1, [r4, #16]
      _M_header._M_parent->_M_parent = &_M_header;
   d6808:	6057      	str	r7, [r2, #4]
      _M_node_count = __from._M_node_count;
   d680a:	9a07      	ldr	r2, [sp, #28]
   d680c:	6162      	str	r2, [r4, #20]
      _M_header._M_left = &_M_header;
   d680e:	aa03      	add	r2, sp, #12
      _M_header._M_right = &_M_header;
   d6810:	e9cd 2205 	strd	r2, r2, [sp, #20]
      _M_header._M_parent = 0;
   d6814:	9304      	str	r3, [sp, #16]
      _M_node_count = 0;
   d6816:	9307      	str	r3, [sp, #28]
      { _M_erase(_M_begin()); }
   d6818:	a802      	add	r0, sp, #8
   d681a:	9904      	ldr	r1, [sp, #16]
   d681c:	f7ff fc84 	bl	d6128 <_ZNSt8_Rb_treeIiSt4pairIKifESt10_Select1stIS2_ESt4lessIiESaIS2_EE8_M_eraseEPSt13_Rb_tree_nodeIS2_E>
  _client_tcp_ubi.stop();
   d6820:	4803      	ldr	r0, [pc, #12]	; (d6830 <_ZN6UbiTCP17getMultipleValuesEPKcS1_+0xd8>)
   d6822:	f001 fecb 	bl	d85bc <_ZN9TCPClient4stopEv>
}
   d6826:	4620      	mov	r0, r4
   d6828:	b008      	add	sp, #32
   d682a:	e8bd 81f0 	ldmia.w	sp!, {r4, r5, r6, r7, r8, pc}
   d682e:	bf00      	nop
   d6830:	2003e5dc 	.word	0x2003e5dc
   d6834:	cda2425f 	.word	0xcda2425f
   d6838:	000dc8fb 	.word	0x000dc8fb

000d683c <_GLOBAL__sub_I__ZN6UbiTCPC2EPKciS1_S1_>:
void UbiTCP::setDebug(bool debug) { _debug = debug; }
   d683c:	b510      	push	{r4, lr}
   d683e:	4c05      	ldr	r4, [pc, #20]	; (d6854 <_GLOBAL__sub_I__ZN6UbiTCPC2EPKciS1_S1_+0x18>)
   d6840:	4620      	mov	r0, r4
   d6842:	f001 ff0b 	bl	d865c <_ZN9TCPClientC1Ev>
   d6846:	4620      	mov	r0, r4
   d6848:	4a03      	ldr	r2, [pc, #12]	; (d6858 <_GLOBAL__sub_I__ZN6UbiTCPC2EPKciS1_S1_+0x1c>)
   d684a:	4904      	ldr	r1, [pc, #16]	; (d685c <_GLOBAL__sub_I__ZN6UbiTCPC2EPKciS1_S1_+0x20>)
   d684c:	e8bd 4010 	ldmia.w	sp!, {r4, lr}
   d6850:	f002 bd2c 	b.w	d92ac <__aeabi_atexit>
   d6854:	2003e5dc 	.word	0x2003e5dc
   d6858:	2003e470 	.word	0x2003e470
   d685c:	000d5181 	.word	0x000d5181

000d6860 <_ZN6UbiUDP3getEPKcS1_>:

  _client_udp_ubi.stop();
  return true;
}

float UbiUDP::get(const char *device_label, const char *variable_label) { return ERROR_VALUE; }
   d6860:	ed9f 0a01 	vldr	s0, [pc, #4]	; d6868 <_ZN6UbiUDP3getEPKcS1_+0x8>
   d6864:	4770      	bx	lr
   d6866:	bf00      	nop
   d6868:	cda2425f 	.word	0xcda2425f

000d686c <_ZN6UbiUDP8setDebugEb>:

/**
 * Makes available debug traces
 */

void UbiUDP::setDebug(bool debug) { _debug = debug; }
   d686c:	7501      	strb	r1, [r0, #20]
   d686e:	4770      	bx	lr

000d6870 <_ZN6UbiUDP17getMultipleValuesEPKcS1_>:
      _M_header._M_color = _S_red;
   d6870:	2200      	movs	r2, #0
	  : _Node_allocator()
   d6872:	1d01      	adds	r1, r0, #4
      _M_header._M_left = &_M_header;
   d6874:	e9c0 2102 	strd	r2, r1, [r0, #8]
      _M_node_count = 0;
   d6878:	e9c0 1204 	strd	r1, r2, [r0, #16]
      _M_header._M_color = _S_red;
   d687c:	7102      	strb	r2, [r0, #4]
}

tcpMap UbiUDP::getMultipleValues(const char *deviceLabel, const char *variableLabels) {
  tcpMap results;
  return results;
}
   d687e:	4770      	bx	lr

000d6880 <_ZN6UbiUDPC1EPKciS1_S1_>:
UbiUDP::UbiUDP(const char *host, const int port, const char *user_agent, const char *token) {
   d6880:	b530      	push	{r4, r5, lr}
   d6882:	4d06      	ldr	r5, [pc, #24]	; (d689c <_ZN6UbiUDPC1EPKciS1_S1_+0x1c>)
   d6884:	6005      	str	r5, [r0, #0]
  _user_agent = user_agent;
   d6886:	e9c0 1301 	strd	r1, r3, [r0, #4]
UbiUDP::UbiUDP(const char *host, const int port, const char *user_agent, const char *token) {
   d688a:	2500      	movs	r5, #0
  _token = token;
   d688c:	9b03      	ldr	r3, [sp, #12]
UbiUDP::UbiUDP(const char *host, const int port, const char *user_agent, const char *token) {
   d688e:	7505      	strb	r5, [r0, #20]
   d6890:	f241 3588 	movw	r5, #5000	; 0x1388
  _port = port;
   d6894:	e9c0 3203 	strd	r3, r2, [r0, #12]
UbiUDP::UbiUDP(const char *host, const int port, const char *user_agent, const char *token) {
   d6898:	6185      	str	r5, [r0, #24]
}
   d689a:	bd30      	pop	{r4, r5, pc}
   d689c:	000dcaa4 	.word	0x000dcaa4

000d68a0 <_GLOBAL__sub_I__ZN6UbiUDPC2EPKciS1_S1_>:
}
   d68a0:	b510      	push	{r4, lr}
   d68a2:	4c05      	ldr	r4, [pc, #20]	; (d68b8 <_GLOBAL__sub_I__ZN6UbiUDPC2EPKciS1_S1_+0x18>)
   d68a4:	4620      	mov	r0, r4
   d68a6:	f002 f8f5 	bl	d8a94 <_ZN3UDPC1Ev>
   d68aa:	4620      	mov	r0, r4
   d68ac:	4a03      	ldr	r2, [pc, #12]	; (d68bc <_GLOBAL__sub_I__ZN6UbiUDPC2EPKciS1_S1_+0x1c>)
   d68ae:	4904      	ldr	r1, [pc, #16]	; (d68c0 <_GLOBAL__sub_I__ZN6UbiUDPC2EPKciS1_S1_+0x20>)
   d68b0:	e8bd 4010 	ldmia.w	sp!, {r4, lr}
   d68b4:	f002 bcfa 	b.w	d92ac <__aeabi_atexit>
   d68b8:	2003e5f8 	.word	0x2003e5f8
   d68bc:	2003e470 	.word	0x2003e470
   d68c0:	000d5161 	.word	0x000d5161

000d68c4 <_ZN6UbiUDP11getServerIpEv>:
IPAddress UbiUDP::getServerIp() {
   d68c4:	b510      	push	{r4, lr}
   d68c6:	4604      	mov	r4, r0
  return WiFi.resolve(_host);
   d68c8:	684a      	ldr	r2, [r1, #4]
   d68ca:	4902      	ldr	r1, [pc, #8]	; (d68d4 <_ZN6UbiUDP11getServerIpEv+0x10>)
   d68cc:	f001 fa3e 	bl	d7d4c <_ZN5spark12NetworkClass7resolveEPKc>
}
   d68d0:	4620      	mov	r0, r4
   d68d2:	bd10      	pop	{r4, pc}
   d68d4:	2003e7b8 	.word	0x2003e7b8

000d68d8 <_ZN6UbiUDP8sendDataEPKcS1_PcP8UbiFlags>:
bool UbiUDP::sendData(const char *device_label, const char *device_name, char *payload, UbiFlags *flags) {
   d68d8:	b5f0      	push	{r4, r5, r6, r7, lr}
   d68da:	b08f      	sub	sp, #60	; 0x3c
  IPAddress serverIpAddress = getServerIp();
   d68dc:	4601      	mov	r1, r0
bool UbiUDP::sendData(const char *device_label, const char *device_name, char *payload, UbiFlags *flags) {
   d68de:	4606      	mov	r6, r0
  IPAddress serverIpAddress = getServerIp();
   d68e0:	a802      	add	r0, sp, #8
bool UbiUDP::sendData(const char *device_label, const char *device_name, char *payload, UbiFlags *flags) {
   d68e2:	461f      	mov	r7, r3
  IPAddress serverIpAddress = getServerIp();
   d68e4:	f7ff ffee 	bl	d68c4 <_ZN6UbiUDP11getServerIpEv>
    operator bool() const;

    // For some reason, without this non-const overload GCC struggles to pick right operator
    // for bool conversion of a non-const object
    operator bool() {
        return static_cast<const IPAddress*>(this)->operator bool();
   d68e8:	a802      	add	r0, sp, #8
   d68ea:	f000 ff4f 	bl	d778c <_ZNK9IPAddresscvbEv>
  if (!serverIpAddress) {
   d68ee:	b9a0      	cbnz	r0, d691a <_ZN6UbiUDP8sendDataEPKcS1_PcP8UbiFlags+0x42>
    if (_debug) {
   d68f0:	7d33      	ldrb	r3, [r6, #20]
   d68f2:	b123      	cbz	r3, d68fe <_ZN6UbiUDP8sendDataEPKcS1_PcP8UbiFlags+0x26>
      Serial.println(
   d68f4:	f002 fafc 	bl	d8ef0 <_Z16_fetch_usbserialv>
   d68f8:	4927      	ldr	r1, [pc, #156]	; (d6998 <_ZN6UbiUDP8sendDataEPKcS1_PcP8UbiFlags+0xc0>)
   d68fa:	f001 fadc 	bl	d7eb6 <_ZN5Print7printlnEPKc>
    serverIpAddress = IPAddress(169, 55, 61, 243);
   d68fe:	23f3      	movs	r3, #243	; 0xf3
   d6900:	9300      	str	r3, [sp, #0]
   d6902:	2237      	movs	r2, #55	; 0x37
   d6904:	233d      	movs	r3, #61	; 0x3d
   d6906:	21a9      	movs	r1, #169	; 0xa9
   d6908:	a808      	add	r0, sp, #32
class IPAddress : public Printable {
   d690a:	ad09      	add	r5, sp, #36	; 0x24
   d690c:	f000 ff62 	bl	d77d4 <_ZN9IPAddressC1Ehhhh>
   d6910:	cd0f      	ldmia	r5!, {r0, r1, r2, r3}
   d6912:	ac03      	add	r4, sp, #12
   d6914:	c40f      	stmia	r4!, {r0, r1, r2, r3}
   d6916:	682b      	ldr	r3, [r5, #0]
   d6918:	7023      	strb	r3, [r4, #0]
  _client_udp_ubi.setBuffer(MAX_BUFFER_SIZE + 1);  // Sets the max buffer size to send data
   d691a:	2200      	movs	r2, #0
   d691c:	f240 21bd 	movw	r1, #701	; 0x2bd
   d6920:	481e      	ldr	r0, [pc, #120]	; (d699c <_ZN6UbiUDP8sendDataEPKcS1_PcP8UbiFlags+0xc4>)
   d6922:	f002 f8e9 	bl	d8af8 <_ZN3UDP9setBufferEjPh>
  _client_udp_ubi.begin(UBIDOTS_TCP_PORT);
   d6926:	2200      	movs	r2, #0
   d6928:	f242 3134 	movw	r1, #9012	; 0x2334
   d692c:	481b      	ldr	r0, [pc, #108]	; (d699c <_ZN6UbiUDP8sendDataEPKcS1_PcP8UbiFlags+0xc4>)
   d692e:	f001 ff8b 	bl	d8848 <_ZN3UDP5beginEtm>
   d6932:	ad03      	add	r5, sp, #12
   d6934:	4b1a      	ldr	r3, [pc, #104]	; (d69a0 <_ZN6UbiUDP8sendDataEPKcS1_PcP8UbiFlags+0xc8>)
   d6936:	9308      	str	r3, [sp, #32]
   d6938:	cd0f      	ldmia	r5!, {r0, r1, r2, r3}
   d693a:	ac09      	add	r4, sp, #36	; 0x24
   d693c:	c40f      	stmia	r4!, {r0, r1, r2, r3}
   d693e:	682b      	ldr	r3, [r5, #0]
  if (!(_client_udp_ubi.beginPacket(serverIpAddress, UBIDOTS_TCP_PORT) && _client_udp_ubi.write(payload) &&
   d6940:	4816      	ldr	r0, [pc, #88]	; (d699c <_ZN6UbiUDP8sendDataEPKcS1_PcP8UbiFlags+0xc4>)
   d6942:	7023      	strb	r3, [r4, #0]
   d6944:	f242 3234 	movw	r2, #9012	; 0x2334
   d6948:	a908      	add	r1, sp, #32
   d694a:	f002 f8f1 	bl	d8b30 <_ZN3UDP11beginPacketE9IPAddresst>
   d694e:	b958      	cbnz	r0, d6968 <_ZN6UbiUDP8sendDataEPKcS1_PcP8UbiFlags+0x90>
    if (_debug) {
   d6950:	7d33      	ldrb	r3, [r6, #20]
   d6952:	b123      	cbz	r3, d695e <_ZN6UbiUDP8sendDataEPKcS1_PcP8UbiFlags+0x86>
      Serial.println("ERROR sending values with UDP");
   d6954:	f002 facc 	bl	d8ef0 <_Z16_fetch_usbserialv>
   d6958:	4912      	ldr	r1, [pc, #72]	; (d69a4 <_ZN6UbiUDP8sendDataEPKcS1_PcP8UbiFlags+0xcc>)
   d695a:	f001 faac 	bl	d7eb6 <_ZN5Print7printlnEPKc>
    _client_udp_ubi.stop();
   d695e:	480f      	ldr	r0, [pc, #60]	; (d699c <_ZN6UbiUDP8sendDataEPKcS1_PcP8UbiFlags+0xc4>)
   d6960:	f001 ffbe 	bl	d88e0 <_ZN3UDP4stopEv>
    return false;
   d6964:	2000      	movs	r0, #0
   d6966:	e014      	b.n	d6992 <_ZN6UbiUDP8sendDataEPKcS1_PcP8UbiFlags+0xba>
      if (str == NULL) return 0;
   d6968:	2f00      	cmp	r7, #0
   d696a:	d0f1      	beq.n	d6950 <_ZN6UbiUDP8sendDataEPKcS1_PcP8UbiFlags+0x78>
      return write((const uint8_t *)str, strlen(str));
   d696c:	4638      	mov	r0, r7
   d696e:	f003 fd92 	bl	da496 <strlen>
   d6972:	4639      	mov	r1, r7
   d6974:	4602      	mov	r2, r0
   d6976:	4809      	ldr	r0, [pc, #36]	; (d699c <_ZN6UbiUDP8sendDataEPKcS1_PcP8UbiFlags+0xc4>)
   d6978:	f001 ffc0 	bl	d88fc <_ZN3UDP5writeEPKhj>
  if (!(_client_udp_ubi.beginPacket(serverIpAddress, UBIDOTS_TCP_PORT) && _client_udp_ubi.write(payload) &&
   d697c:	2800      	cmp	r0, #0
   d697e:	d0e7      	beq.n	d6950 <_ZN6UbiUDP8sendDataEPKcS1_PcP8UbiFlags+0x78>
        _client_udp_ubi.endPacket())) {
   d6980:	4806      	ldr	r0, [pc, #24]	; (d699c <_ZN6UbiUDP8sendDataEPKcS1_PcP8UbiFlags+0xc4>)
   d6982:	f002 f81b 	bl	d89bc <_ZN3UDP9endPacketEv>
  if (!(_client_udp_ubi.beginPacket(serverIpAddress, UBIDOTS_TCP_PORT) && _client_udp_ubi.write(payload) &&
   d6986:	2800      	cmp	r0, #0
   d6988:	d0e2      	beq.n	d6950 <_ZN6UbiUDP8sendDataEPKcS1_PcP8UbiFlags+0x78>
  _client_udp_ubi.stop();
   d698a:	4804      	ldr	r0, [pc, #16]	; (d699c <_ZN6UbiUDP8sendDataEPKcS1_PcP8UbiFlags+0xc4>)
   d698c:	f001 ffa8 	bl	d88e0 <_ZN3UDP4stopEv>
  return true;
   d6990:	2001      	movs	r0, #1
}
   d6992:	b00f      	add	sp, #60	; 0x3c
   d6994:	bdf0      	pop	{r4, r5, r6, r7, pc}
   d6996:	bf00      	nop
   d6998:	000dc9f0 	.word	0x000dc9f0
   d699c:	2003e5f8 	.word	0x2003e5f8
   d69a0:	000dcb60 	.word	0x000dcb60
   d69a4:	000dca7c 	.word	0x000dca7c

000d69a8 <_ZN7Ubidots8_builderEPcPKc11IotProtocol>:

Ubidots::Ubidots(char* token, IotProtocol iotProtocol) { _builder(token, UBI_INDUSTRIAL, iotProtocol); }

Ubidots::Ubidots(char* token, UbiServer server, IotProtocol iotProtocol) { _builder(token, server, iotProtocol); }

void Ubidots::_builder(char* token, UbiServer server, IotProtocol iotProtocol) {
   d69a8:	b573      	push	{r0, r1, r4, r5, r6, lr}
  _iotProtocol = iotProtocol;
   d69aa:	7203      	strb	r3, [r0, #8]
void Ubidots::_builder(char* token, UbiServer server, IotProtocol iotProtocol) {
   d69ac:	4604      	mov	r4, r0
  _context = (ContextUbi*)malloc(MAX_VALUES * sizeof(ContextUbi));
   d69ae:	2050      	movs	r0, #80	; 0x50
void Ubidots::_builder(char* token, UbiServer server, IotProtocol iotProtocol) {
   d69b0:	e9cd 2100 	strd	r2, r1, [sp]
   d69b4:	461e      	mov	r6, r3
  _context = (ContextUbi*)malloc(MAX_VALUES * sizeof(ContextUbi));
   d69b6:	f000 fad9 	bl	d6f6c <malloc>
   d69ba:	6060      	str	r0, [r4, #4]

  _cloudProtocol = new UbiProtocolHandler(token, server, iotProtocol);
   d69bc:	2014      	movs	r0, #20
   d69be:	f7fd fb6a 	bl	d4096 <_Znwj>
   d69c2:	4605      	mov	r5, r0
   d69c4:	b120      	cbz	r0, d69d0 <_ZN7Ubidots8_builderEPcPKc11IotProtocol+0x28>
   d69c6:	e9dd 2100 	ldrd	r2, r1, [sp]
   d69ca:	4633      	mov	r3, r6
   d69cc:	f7ff fba4 	bl	d6118 <_ZN18UbiProtocolHandlerC1EPcPKc11IotProtocol>
   d69d0:	6025      	str	r5, [r4, #0]
}
   d69d2:	b002      	add	sp, #8
   d69d4:	bd70      	pop	{r4, r5, r6, pc}
	...

000d69d8 <_ZN7UbidotsC1EPc11IotProtocol>:
Ubidots::Ubidots(char* token, IotProtocol iotProtocol) { _builder(token, UBI_INDUSTRIAL, iotProtocol); }
   d69d8:	b538      	push	{r3, r4, r5, lr}
   d69da:	2500      	movs	r5, #0
   d69dc:	4604      	mov	r4, r0
   d69de:	4613      	mov	r3, r2
   d69e0:	7245      	strb	r5, [r0, #9]
   d69e2:	7285      	strb	r5, [r0, #10]
   d69e4:	4a02      	ldr	r2, [pc, #8]	; (d69f0 <_ZN7UbidotsC1EPc11IotProtocol+0x18>)
   d69e6:	f7ff ffdf 	bl	d69a8 <_ZN7Ubidots8_builderEPcPKc11IotProtocol>
   d69ea:	4620      	mov	r0, r4
   d69ec:	bd38      	pop	{r3, r4, r5, pc}
   d69ee:	bf00      	nop
   d69f0:	000dcab4 	.word	0x000dcab4

000d69f4 <_ZN7UbidotsD1Ev>:

/**************************************************************************
 * Destructor
 ***************************************************************************/

Ubidots::~Ubidots() {
   d69f4:	b538      	push	{r3, r4, r5, lr}
   d69f6:	4604      	mov	r4, r0
  free(_context);
   d69f8:	6840      	ldr	r0, [r0, #4]
   d69fa:	f000 fabf 	bl	d6f7c <free>
  delete _cloudProtocol;
   d69fe:	6825      	ldr	r5, [r4, #0]
   d6a00:	b135      	cbz	r5, d6a10 <_ZN7UbidotsD1Ev+0x1c>
   d6a02:	4628      	mov	r0, r5
   d6a04:	f7ff f90a 	bl	d5c1c <_ZN18UbiProtocolHandlerD1Ev>
   d6a08:	2114      	movs	r1, #20
   d6a0a:	4628      	mov	r0, r5
   d6a0c:	f002 fc53 	bl	d92b6 <_ZdlPvj>
}
   d6a10:	4620      	mov	r0, r4
   d6a12:	bd38      	pop	{r3, r4, r5, pc}

000d6a14 <_ZN7Ubidots3addEPcfS0_mj>:
  add(variable_label, value, context, dot_timestamp_seconds, NULL);
}

void Ubidots::add(char* variable_label, float value, char* context, long unsigned dot_timestamp_seconds,
                  unsigned int dot_timestamp_millis) {
  _cloudProtocol->add(variable_label, value, context, dot_timestamp_seconds, dot_timestamp_millis);
   d6a14:	6800      	ldr	r0, [r0, #0]
   d6a16:	f7ff b911 	b.w	d5c3c <_ZN18UbiProtocolHandler3addEPcfS0_mj>

000d6a1a <_ZN7Ubidots3addEPcf>:
void Ubidots::add(char* variable_label, float value) { add(variable_label, value, NULL, NULL, NULL); }
   d6a1a:	b507      	push	{r0, r1, r2, lr}
   d6a1c:	2300      	movs	r3, #0
   d6a1e:	9300      	str	r3, [sp, #0]
   d6a20:	461a      	mov	r2, r3
   d6a22:	f7ff fff7 	bl	d6a14 <_ZN7Ubidots3addEPcfS0_mj>
   d6a26:	b003      	add	sp, #12
   d6a28:	f85d fb04 	ldr.w	pc, [sp], #4

000d6a2c <_ZN7Ubidots4sendEPKcN8particle5FlagsI15PublishFlagTypehEE>:

bool Ubidots::send(const char* device_label, const char* device_name) {
  return _cloudProtocol->send(device_label, device_name);
}

bool Ubidots::send(const char* device_label, PublishFlags flag) { return _cloudProtocol->send(device_label, flag); }
   d6a2c:	6800      	ldr	r0, [r0, #0]
   d6a2e:	f7ff bb21 	b.w	d6074 <_ZN18UbiProtocolHandler4sendEPKcN8particle5FlagsI15PublishFlagTypehEE>
	...

000d6a34 <os_mutex_recursive_create>:
DYNALIB_FN(13, hal_concurrent, os_mutex_destroy, int(os_mutex_t))
DYNALIB_FN(14, hal_concurrent, os_mutex_lock, int(os_mutex_t))
DYNALIB_FN(15, hal_concurrent, os_mutex_trylock, int(os_mutex_t))
DYNALIB_FN(16, hal_concurrent, os_mutex_unlock, int(os_mutex_t))

DYNALIB_FN(17, hal_concurrent, os_mutex_recursive_create, int(os_mutex_recursive_t*))
   d6a34:	b508      	push	{r3, lr}
   d6a36:	4b02      	ldr	r3, [pc, #8]	; (d6a40 <os_mutex_recursive_create+0xc>)
   d6a38:	681b      	ldr	r3, [r3, #0]
   d6a3a:	6c5b      	ldr	r3, [r3, #68]	; 0x44
   d6a3c:	9301      	str	r3, [sp, #4]
   d6a3e:	bd08      	pop	{r3, pc}
   d6a40:	00030248 	.word	0x00030248

000d6a44 <os_mutex_recursive_destroy>:
DYNALIB_FN(18, hal_concurrent, os_mutex_recursive_destroy, int(os_mutex_recursive_t))
   d6a44:	b508      	push	{r3, lr}
   d6a46:	4b02      	ldr	r3, [pc, #8]	; (d6a50 <os_mutex_recursive_destroy+0xc>)
   d6a48:	681b      	ldr	r3, [r3, #0]
   d6a4a:	6c9b      	ldr	r3, [r3, #72]	; 0x48
   d6a4c:	9301      	str	r3, [sp, #4]
   d6a4e:	bd08      	pop	{r3, pc}
   d6a50:	00030248 	.word	0x00030248

000d6a54 <HAL_RNG_GetRandomNumber>:

DYNALIB_BEGIN(hal)

#if PLATFORM_ID > 3
DYNALIB_FN(0, hal, HAL_RNG_Configuration, void(void))
DYNALIB_FN(1, hal, HAL_RNG_GetRandomNumber, uint32_t(void))
   d6a54:	b508      	push	{r3, lr}
   d6a56:	4b02      	ldr	r3, [pc, #8]	; (d6a60 <HAL_RNG_GetRandomNumber+0xc>)
   d6a58:	681b      	ldr	r3, [r3, #0]
   d6a5a:	685b      	ldr	r3, [r3, #4]
   d6a5c:	9301      	str	r3, [sp, #4]
   d6a5e:	bd08      	pop	{r3, pc}
   d6a60:	00030218 	.word	0x00030218

000d6a64 <HAL_Delay_Microseconds>:
#else
#define BASE_IDX 0
#endif

DYNALIB_FN(BASE_IDX + 0, hal, HAL_Delay_Milliseconds, void(uint32_t))
DYNALIB_FN(BASE_IDX + 1, hal, HAL_Delay_Microseconds, void(uint32_t))
   d6a64:	b508      	push	{r3, lr}
   d6a66:	4b02      	ldr	r3, [pc, #8]	; (d6a70 <HAL_Delay_Microseconds+0xc>)
   d6a68:	681b      	ldr	r3, [r3, #0]
   d6a6a:	68db      	ldr	r3, [r3, #12]
   d6a6c:	9301      	str	r3, [sp, #4]
   d6a6e:	bd08      	pop	{r3, pc}
   d6a70:	00030218 	.word	0x00030218

000d6a74 <HAL_Timer_Get_Milli_Seconds>:
DYNALIB_FN(BASE_IDX + 2, hal, HAL_Timer_Get_Micro_Seconds, system_tick_t(void))
DYNALIB_FN(BASE_IDX + 3, hal, HAL_Timer_Get_Milli_Seconds, system_tick_t(void))
   d6a74:	b508      	push	{r3, lr}
   d6a76:	4b02      	ldr	r3, [pc, #8]	; (d6a80 <HAL_Timer_Get_Milli_Seconds+0xc>)
   d6a78:	681b      	ldr	r3, [r3, #0]
   d6a7a:	695b      	ldr	r3, [r3, #20]
   d6a7c:	9301      	str	r3, [sp, #4]
   d6a7e:	bd08      	pop	{r3, pc}
   d6a80:	00030218 	.word	0x00030218

000d6a84 <HAL_Pin_Map>:
// New HAL functions must be added to the end of this list.
// GNINRAW

DYNALIB_BEGIN(hal_gpio)

DYNALIB_FN(0, hal_gpio, HAL_Pin_Map, Hal_Pin_Info*(void))
   d6a84:	b508      	push	{r3, lr}
   d6a86:	4b02      	ldr	r3, [pc, #8]	; (d6a90 <HAL_Pin_Map+0xc>)
   d6a88:	681b      	ldr	r3, [r3, #0]
   d6a8a:	681b      	ldr	r3, [r3, #0]
   d6a8c:	9301      	str	r3, [sp, #4]
   d6a8e:	bd08      	pop	{r3, pc}
   d6a90:	0003022c 	.word	0x0003022c

000d6a94 <HAL_Pin_Mode>:
DYNALIB_FN(1, hal_gpio, HAL_Validate_Pin_Function, PinFunction(pin_t, PinFunction))
DYNALIB_FN(2, hal_gpio, HAL_Pin_Mode, void(pin_t, PinMode))
   d6a94:	b508      	push	{r3, lr}
   d6a96:	4b02      	ldr	r3, [pc, #8]	; (d6aa0 <HAL_Pin_Mode+0xc>)
   d6a98:	681b      	ldr	r3, [r3, #0]
   d6a9a:	689b      	ldr	r3, [r3, #8]
   d6a9c:	9301      	str	r3, [sp, #4]
   d6a9e:	bd08      	pop	{r3, pc}
   d6aa0:	0003022c 	.word	0x0003022c

000d6aa4 <HAL_Get_Pin_Mode>:
DYNALIB_FN(3, hal_gpio, HAL_Get_Pin_Mode, PinMode(pin_t))
   d6aa4:	b508      	push	{r3, lr}
   d6aa6:	4b02      	ldr	r3, [pc, #8]	; (d6ab0 <HAL_Get_Pin_Mode+0xc>)
   d6aa8:	681b      	ldr	r3, [r3, #0]
   d6aaa:	68db      	ldr	r3, [r3, #12]
   d6aac:	9301      	str	r3, [sp, #4]
   d6aae:	bd08      	pop	{r3, pc}
   d6ab0:	0003022c 	.word	0x0003022c

000d6ab4 <HAL_GPIO_Write>:
DYNALIB_FN(4, hal_gpio, HAL_GPIO_Write, void(pin_t, uint8_t))
   d6ab4:	b508      	push	{r3, lr}
   d6ab6:	4b02      	ldr	r3, [pc, #8]	; (d6ac0 <HAL_GPIO_Write+0xc>)
   d6ab8:	681b      	ldr	r3, [r3, #0]
   d6aba:	691b      	ldr	r3, [r3, #16]
   d6abc:	9301      	str	r3, [sp, #4]
   d6abe:	bd08      	pop	{r3, pc}
   d6ac0:	0003022c 	.word	0x0003022c

000d6ac4 <HAL_Interrupts_Enable_All>:
DYNALIB_FN(5, hal_gpio, HAL_GPIO_Read, int32_t(pin_t))
DYNALIB_FN(6, hal_gpio, HAL_Interrupts_Attach, int(uint16_t, HAL_InterruptHandler, void*, InterruptMode, HAL_InterruptExtraConfiguration*))
DYNALIB_FN(7, hal_gpio, HAL_Interrupts_Detach, int(uint16_t))
DYNALIB_FN(8, hal_gpio, HAL_Interrupts_Enable_All, void(void))
   d6ac4:	b508      	push	{r3, lr}
   d6ac6:	4b02      	ldr	r3, [pc, #8]	; (d6ad0 <HAL_Interrupts_Enable_All+0xc>)
   d6ac8:	681b      	ldr	r3, [r3, #0]
   d6aca:	6a1b      	ldr	r3, [r3, #32]
   d6acc:	9301      	str	r3, [sp, #4]
   d6ace:	bd08      	pop	{r3, pc}
   d6ad0:	0003022c 	.word	0x0003022c

000d6ad4 <HAL_Interrupts_Disable_All>:
DYNALIB_FN(9, hal_gpio, HAL_Interrupts_Disable_All, void(void))
   d6ad4:	b508      	push	{r3, lr}
   d6ad6:	4b02      	ldr	r3, [pc, #8]	; (d6ae0 <HAL_Interrupts_Disable_All+0xc>)
   d6ad8:	681b      	ldr	r3, [r3, #0]
   d6ada:	6a5b      	ldr	r3, [r3, #36]	; 0x24
   d6adc:	9301      	str	r3, [sp, #4]
   d6ade:	bd08      	pop	{r3, pc}
   d6ae0:	0003022c 	.word	0x0003022c

000d6ae4 <hal_i2c_begin>:
#endif

DYNALIB_FN(BASE_IDX + 0, hal_i2c, hal_i2c_set_speed, void(hal_i2c_interface_t, uint32_t, void*))
DYNALIB_FN(BASE_IDX + 1, hal_i2c, hal_i2c_enable_dma_mode, void(hal_i2c_interface_t, bool, void*))
DYNALIB_FN(BASE_IDX + 2, hal_i2c, hal_i2c_stretch_clock, void(hal_i2c_interface_t, bool, void*))
DYNALIB_FN(BASE_IDX + 3, hal_i2c, hal_i2c_begin, void(hal_i2c_interface_t, hal_i2c_mode_t, uint8_t, void*))
   d6ae4:	b508      	push	{r3, lr}
   d6ae6:	4b02      	ldr	r3, [pc, #8]	; (d6af0 <hal_i2c_begin+0xc>)
   d6ae8:	681b      	ldr	r3, [r3, #0]
   d6aea:	68db      	ldr	r3, [r3, #12]
   d6aec:	9301      	str	r3, [sp, #4]
   d6aee:	bd08      	pop	{r3, pc}
   d6af0:	00030228 	.word	0x00030228

000d6af4 <hal_i2c_begin_transmission>:
DYNALIB_FN(BASE_IDX + 4, hal_i2c, hal_i2c_end, void(hal_i2c_interface_t, void*))
DYNALIB_FN(BASE_IDX + 5, hal_i2c, hal_i2c_request, uint32_t(hal_i2c_interface_t, uint8_t, uint8_t, uint8_t, void*))
DYNALIB_FN(BASE_IDX + 6, hal_i2c, hal_i2c_begin_transmission, void(hal_i2c_interface_t, uint8_t, const hal_i2c_transmission_config_t*))
   d6af4:	b508      	push	{r3, lr}
   d6af6:	4b02      	ldr	r3, [pc, #8]	; (d6b00 <hal_i2c_begin_transmission+0xc>)
   d6af8:	681b      	ldr	r3, [r3, #0]
   d6afa:	699b      	ldr	r3, [r3, #24]
   d6afc:	9301      	str	r3, [sp, #4]
   d6afe:	bd08      	pop	{r3, pc}
   d6b00:	00030228 	.word	0x00030228

000d6b04 <hal_i2c_end_transmission>:
DYNALIB_FN(BASE_IDX + 7, hal_i2c, hal_i2c_end_transmission, uint8_t(hal_i2c_interface_t, uint8_t, void*))
   d6b04:	b508      	push	{r3, lr}
   d6b06:	4b02      	ldr	r3, [pc, #8]	; (d6b10 <hal_i2c_end_transmission+0xc>)
   d6b08:	681b      	ldr	r3, [r3, #0]
   d6b0a:	69db      	ldr	r3, [r3, #28]
   d6b0c:	9301      	str	r3, [sp, #4]
   d6b0e:	bd08      	pop	{r3, pc}
   d6b10:	00030228 	.word	0x00030228

000d6b14 <hal_i2c_write>:
DYNALIB_FN(BASE_IDX + 8, hal_i2c, hal_i2c_write, uint32_t(hal_i2c_interface_t, uint8_t, void*))
   d6b14:	b508      	push	{r3, lr}
   d6b16:	4b02      	ldr	r3, [pc, #8]	; (d6b20 <hal_i2c_write+0xc>)
   d6b18:	681b      	ldr	r3, [r3, #0]
   d6b1a:	6a1b      	ldr	r3, [r3, #32]
   d6b1c:	9301      	str	r3, [sp, #4]
   d6b1e:	bd08      	pop	{r3, pc}
   d6b20:	00030228 	.word	0x00030228

000d6b24 <hal_i2c_available>:
DYNALIB_FN(BASE_IDX + 9, hal_i2c, hal_i2c_available, int32_t(hal_i2c_interface_t, void*))
   d6b24:	b508      	push	{r3, lr}
   d6b26:	4b02      	ldr	r3, [pc, #8]	; (d6b30 <hal_i2c_available+0xc>)
   d6b28:	681b      	ldr	r3, [r3, #0]
   d6b2a:	6a5b      	ldr	r3, [r3, #36]	; 0x24
   d6b2c:	9301      	str	r3, [sp, #4]
   d6b2e:	bd08      	pop	{r3, pc}
   d6b30:	00030228 	.word	0x00030228

000d6b34 <hal_i2c_read>:
DYNALIB_FN(BASE_IDX + 10, hal_i2c, hal_i2c_read, int32_t(hal_i2c_interface_t, void*))
   d6b34:	b508      	push	{r3, lr}
   d6b36:	4b02      	ldr	r3, [pc, #8]	; (d6b40 <hal_i2c_read+0xc>)
   d6b38:	681b      	ldr	r3, [r3, #0]
   d6b3a:	6a9b      	ldr	r3, [r3, #40]	; 0x28
   d6b3c:	9301      	str	r3, [sp, #4]
   d6b3e:	bd08      	pop	{r3, pc}
   d6b40:	00030228 	.word	0x00030228

000d6b44 <hal_i2c_peek>:
DYNALIB_FN(BASE_IDX + 11, hal_i2c, hal_i2c_peek, int32_t(hal_i2c_interface_t, void*))
   d6b44:	b508      	push	{r3, lr}
   d6b46:	4b02      	ldr	r3, [pc, #8]	; (d6b50 <hal_i2c_peek+0xc>)
   d6b48:	681b      	ldr	r3, [r3, #0]
   d6b4a:	6adb      	ldr	r3, [r3, #44]	; 0x2c
   d6b4c:	9301      	str	r3, [sp, #4]
   d6b4e:	bd08      	pop	{r3, pc}
   d6b50:	00030228 	.word	0x00030228

000d6b54 <hal_i2c_flush>:
DYNALIB_FN(BASE_IDX + 12, hal_i2c, hal_i2c_flush, void(hal_i2c_interface_t, void*))
   d6b54:	b508      	push	{r3, lr}
   d6b56:	4b02      	ldr	r3, [pc, #8]	; (d6b60 <hal_i2c_flush+0xc>)
   d6b58:	681b      	ldr	r3, [r3, #0]
   d6b5a:	6b1b      	ldr	r3, [r3, #48]	; 0x30
   d6b5c:	9301      	str	r3, [sp, #4]
   d6b5e:	bd08      	pop	{r3, pc}
   d6b60:	00030228 	.word	0x00030228

000d6b64 <hal_i2c_is_enabled>:
DYNALIB_FN(BASE_IDX + 13, hal_i2c, hal_i2c_is_enabled, bool(hal_i2c_interface_t, void*))
   d6b64:	b508      	push	{r3, lr}
   d6b66:	4b02      	ldr	r3, [pc, #8]	; (d6b70 <hal_i2c_is_enabled+0xc>)
   d6b68:	681b      	ldr	r3, [r3, #0]
   d6b6a:	6b5b      	ldr	r3, [r3, #52]	; 0x34
   d6b6c:	9301      	str	r3, [sp, #4]
   d6b6e:	bd08      	pop	{r3, pc}
   d6b70:	00030228 	.word	0x00030228

000d6b74 <hal_i2c_init>:
DYNALIB_FN(BASE_IDX + 14, hal_i2c, hal_i2c_set_callback_on_received, void(hal_i2c_interface_t, void(*)(int), void*))
DYNALIB_FN(BASE_IDX + 15, hal_i2c, hal_i2c_set_callback_on_requested, void(hal_i2c_interface_t, void(*)(void), void*))
DYNALIB_FN(BASE_IDX + 16, hal_i2c, hal_i2c_init, int(hal_i2c_interface_t, const hal_i2c_config_t*))
   d6b74:	b508      	push	{r3, lr}
   d6b76:	4b02      	ldr	r3, [pc, #8]	; (d6b80 <hal_i2c_init+0xc>)
   d6b78:	681b      	ldr	r3, [r3, #0]
   d6b7a:	6c1b      	ldr	r3, [r3, #64]	; 0x40
   d6b7c:	9301      	str	r3, [sp, #4]
   d6b7e:	bd08      	pop	{r3, pc}
   d6b80:	00030228 	.word	0x00030228

000d6b84 <if_index_to_name>:
DYNALIB_FN(0, hal_ifapi, if_get_list, int(struct if_list**))
DYNALIB_FN(1, hal_ifapi, if_free_list, int(struct if_list*))
DYNALIB_FN(2, hal_ifapi, if_get_name_index, int(struct if_nameindex**))
DYNALIB_FN(3, hal_ifapi, if_free_name_index, int(struct if_nameindex*))
DYNALIB_FN(4, hal_ifapi, if_name_to_index, int(const char*, uint8_t*))
DYNALIB_FN(5, hal_ifapi, if_index_to_name, int(uint8_t, char*))
   d6b84:	b508      	push	{r3, lr}
   d6b86:	4b02      	ldr	r3, [pc, #8]	; (d6b90 <if_index_to_name+0xc>)
   d6b88:	681b      	ldr	r3, [r3, #0]
   d6b8a:	695b      	ldr	r3, [r3, #20]
   d6b8c:	9301      	str	r3, [sp, #4]
   d6b8e:	bd08      	pop	{r3, pc}
   d6b90:	0003026c 	.word	0x0003026c

000d6b94 <inet_inet_ntop>:
DYNALIB_FN(0, hal_inet, inet_inet_addr, in_addr_t(const char*))
DYNALIB_FN(1, hal_inet, inet_inet_aton, int(const char*, struct in_addr*))
DYNALIB_FN(2, hal_inet, inet_inet_network, in_addr_t(const char*))
DYNALIB_FN(3, hal_inet, inet_inet_ntoa, char*(struct in_addr))
DYNALIB_FN(4, hal_inet, inet_inet_ntoa_r, char*(struct in_addr, char*, socklen_t))
DYNALIB_FN(5, hal_inet, inet_inet_ntop, const char*(int, const void*, char*, socklen_t))
   d6b94:	b508      	push	{r3, lr}
   d6b96:	4b02      	ldr	r3, [pc, #8]	; (d6ba0 <inet_inet_ntop+0xc>)
   d6b98:	681b      	ldr	r3, [r3, #0]
   d6b9a:	695b      	ldr	r3, [r3, #20]
   d6b9c:	9301      	str	r3, [sp, #4]
   d6b9e:	bd08      	pop	{r3, pc}
   d6ba0:	00030264 	.word	0x00030264

000d6ba4 <inet_htonl>:
DYNALIB_FN(6, hal_inet, inet_inet_pton, int(int, const char*, void*))
DYNALIB_FN(7, hal_inet, inet_ntohl, uint32_t(uint32_t))
DYNALIB_FN(8, hal_inet, inet_htonl, uint32_t(uint32_t))
   d6ba4:	b508      	push	{r3, lr}
   d6ba6:	4b02      	ldr	r3, [pc, #8]	; (d6bb0 <inet_htonl+0xc>)
   d6ba8:	681b      	ldr	r3, [r3, #0]
   d6baa:	6a1b      	ldr	r3, [r3, #32]
   d6bac:	9301      	str	r3, [sp, #4]
   d6bae:	bd08      	pop	{r3, pc}
   d6bb0:	00030264 	.word	0x00030264

000d6bb4 <inet_ntohs>:
DYNALIB_FN(9, hal_inet, inet_ntohs, uint16_t(uint16_t))
   d6bb4:	b508      	push	{r3, lr}
   d6bb6:	4b02      	ldr	r3, [pc, #8]	; (d6bc0 <inet_ntohs+0xc>)
   d6bb8:	681b      	ldr	r3, [r3, #0]
   d6bba:	6a5b      	ldr	r3, [r3, #36]	; 0x24
   d6bbc:	9301      	str	r3, [sp, #4]
   d6bbe:	bd08      	pop	{r3, pc}
   d6bc0:	00030264 	.word	0x00030264

000d6bc4 <inet_htons>:
DYNALIB_FN(10, hal_inet, inet_htons, uint16_t(uint16_t))
   d6bc4:	b508      	push	{r3, lr}
   d6bc6:	4b02      	ldr	r3, [pc, #8]	; (d6bd0 <inet_htons+0xc>)
   d6bc8:	681b      	ldr	r3, [r3, #0]
   d6bca:	6a9b      	ldr	r3, [r3, #40]	; 0x28
   d6bcc:	9301      	str	r3, [sp, #4]
   d6bce:	bd08      	pop	{r3, pc}
   d6bd0:	00030264 	.word	0x00030264

000d6bd4 <netdb_freeaddrinfo>:

DYNALIB_BEGIN(hal_netdb)

DYNALIB_FN(0, hal_netdb, netdb_gethostbyname, struct hostent*(const char*))
DYNALIB_FN(1, hal_netdb, netdb_gethostbyname_r, int(const char*, struct hostent*, char*, size_t, struct hostent**, int*))
DYNALIB_FN(2, hal_netdb, netdb_freeaddrinfo, void(struct addrinfo*))
   d6bd4:	b508      	push	{r3, lr}
   d6bd6:	4b02      	ldr	r3, [pc, #8]	; (d6be0 <netdb_freeaddrinfo+0xc>)
   d6bd8:	681b      	ldr	r3, [r3, #0]
   d6bda:	689b      	ldr	r3, [r3, #8]
   d6bdc:	9301      	str	r3, [sp, #4]
   d6bde:	bd08      	pop	{r3, pc}
   d6be0:	00030268 	.word	0x00030268

000d6be4 <netdb_getaddrinfo>:
DYNALIB_FN(3, hal_netdb, netdb_getaddrinfo, int(const char*, const char*, const struct addrinfo*, struct addrinfo**))
   d6be4:	b508      	push	{r3, lr}
   d6be6:	4b02      	ldr	r3, [pc, #8]	; (d6bf0 <netdb_getaddrinfo+0xc>)
   d6be8:	681b      	ldr	r3, [r3, #0]
   d6bea:	68db      	ldr	r3, [r3, #12]
   d6bec:	9301      	str	r3, [sp, #4]
   d6bee:	bd08      	pop	{r3, pc}
   d6bf0:	00030268 	.word	0x00030268

000d6bf4 <sock_bind>:
// GNINRAW

DYNALIB_BEGIN(hal_socket)

DYNALIB_FN(0, hal_socket, sock_accept, int(int, struct sockaddr*, socklen_t*))
DYNALIB_FN(1, hal_socket, sock_bind, int(int, const struct sockaddr*, socklen_t))
   d6bf4:	b508      	push	{r3, lr}
   d6bf6:	4b02      	ldr	r3, [pc, #8]	; (d6c00 <sock_bind+0xc>)
   d6bf8:	681b      	ldr	r3, [r3, #0]
   d6bfa:	685b      	ldr	r3, [r3, #4]
   d6bfc:	9301      	str	r3, [sp, #4]
   d6bfe:	bd08      	pop	{r3, pc}
   d6c00:	00030238 	.word	0x00030238

000d6c04 <sock_setsockopt>:
DYNALIB_FN(2, hal_socket, sock_shutdown, int(int, int))
DYNALIB_FN(3, hal_socket, sock_getpeername, int(int, struct sockaddr*, socklen_t*))
DYNALIB_FN(4, hal_socket, sock_getsockname, int(int, struct sockaddr*, socklen_t*))
DYNALIB_FN(5, hal_socket, sock_getsockopt, int(int, int, int, void*, socklen_t*))
DYNALIB_FN(6, hal_socket, sock_setsockopt, int(int, int, int, const void*, socklen_t))
   d6c04:	b508      	push	{r3, lr}
   d6c06:	4b02      	ldr	r3, [pc, #8]	; (d6c10 <sock_setsockopt+0xc>)
   d6c08:	681b      	ldr	r3, [r3, #0]
   d6c0a:	699b      	ldr	r3, [r3, #24]
   d6c0c:	9301      	str	r3, [sp, #4]
   d6c0e:	bd08      	pop	{r3, pc}
   d6c10:	00030238 	.word	0x00030238

000d6c14 <sock_close>:
DYNALIB_FN(7, hal_socket, sock_close, int(int))
   d6c14:	b508      	push	{r3, lr}
   d6c16:	4b02      	ldr	r3, [pc, #8]	; (d6c20 <sock_close+0xc>)
   d6c18:	681b      	ldr	r3, [r3, #0]
   d6c1a:	69db      	ldr	r3, [r3, #28]
   d6c1c:	9301      	str	r3, [sp, #4]
   d6c1e:	bd08      	pop	{r3, pc}
   d6c20:	00030238 	.word	0x00030238

000d6c24 <sock_connect>:
DYNALIB_FN(8, hal_socket, sock_connect, int(int, const struct sockaddr*, socklen_t))
   d6c24:	b508      	push	{r3, lr}
   d6c26:	4b02      	ldr	r3, [pc, #8]	; (d6c30 <sock_connect+0xc>)
   d6c28:	681b      	ldr	r3, [r3, #0]
   d6c2a:	6a1b      	ldr	r3, [r3, #32]
   d6c2c:	9301      	str	r3, [sp, #4]
   d6c2e:	bd08      	pop	{r3, pc}
   d6c30:	00030238 	.word	0x00030238

000d6c34 <sock_recv>:
DYNALIB_FN(9, hal_socket, sock_listen, int(int, int))
DYNALIB_FN(10, hal_socket, sock_recv, int(int, void*, size_t, int))
   d6c34:	b508      	push	{r3, lr}
   d6c36:	4b02      	ldr	r3, [pc, #8]	; (d6c40 <sock_recv+0xc>)
   d6c38:	681b      	ldr	r3, [r3, #0]
   d6c3a:	6a9b      	ldr	r3, [r3, #40]	; 0x28
   d6c3c:	9301      	str	r3, [sp, #4]
   d6c3e:	bd08      	pop	{r3, pc}
   d6c40:	00030238 	.word	0x00030238

000d6c44 <sock_recvfrom>:
DYNALIB_FN(11, hal_socket, sock_recvfrom, int(int, void*, size_t, int, struct sockaddr*, socklen_t*))
   d6c44:	b508      	push	{r3, lr}
   d6c46:	4b02      	ldr	r3, [pc, #8]	; (d6c50 <sock_recvfrom+0xc>)
   d6c48:	681b      	ldr	r3, [r3, #0]
   d6c4a:	6adb      	ldr	r3, [r3, #44]	; 0x2c
   d6c4c:	9301      	str	r3, [sp, #4]
   d6c4e:	bd08      	pop	{r3, pc}
   d6c50:	00030238 	.word	0x00030238

000d6c54 <sock_send>:
DYNALIB_FN(12, hal_socket, sock_send, int(int, const void*, size_t, int))
   d6c54:	b508      	push	{r3, lr}
   d6c56:	4b02      	ldr	r3, [pc, #8]	; (d6c60 <sock_send+0xc>)
   d6c58:	681b      	ldr	r3, [r3, #0]
   d6c5a:	6b1b      	ldr	r3, [r3, #48]	; 0x30
   d6c5c:	9301      	str	r3, [sp, #4]
   d6c5e:	bd08      	pop	{r3, pc}
   d6c60:	00030238 	.word	0x00030238

000d6c64 <sock_sendto>:
DYNALIB_FN(13, hal_socket, sock_sendto, int(int, const void*, size_t, int, const struct sockaddr*, socklen_t))
   d6c64:	b508      	push	{r3, lr}
   d6c66:	4b02      	ldr	r3, [pc, #8]	; (d6c70 <sock_sendto+0xc>)
   d6c68:	681b      	ldr	r3, [r3, #0]
   d6c6a:	6b5b      	ldr	r3, [r3, #52]	; 0x34
   d6c6c:	9301      	str	r3, [sp, #4]
   d6c6e:	bd08      	pop	{r3, pc}
   d6c70:	00030238 	.word	0x00030238

000d6c74 <sock_socket>:
DYNALIB_FN(14, hal_socket, sock_socket, int(int, int, int))
   d6c74:	b508      	push	{r3, lr}
   d6c76:	4b02      	ldr	r3, [pc, #8]	; (d6c80 <sock_socket+0xc>)
   d6c78:	681b      	ldr	r3, [r3, #0]
   d6c7a:	6b9b      	ldr	r3, [r3, #56]	; 0x38
   d6c7c:	9301      	str	r3, [sp, #4]
   d6c7e:	bd08      	pop	{r3, pc}
   d6c80:	00030238 	.word	0x00030238

000d6c84 <hal_spi_init>:
DYNALIB_FN(2, hal_spi, hal_spi_set_bit_order, void(hal_spi_interface_t, uint8_t))
DYNALIB_FN(3, hal_spi, hal_spi_set_data_mode, void(hal_spi_interface_t, uint8_t))
DYNALIB_FN(4, hal_spi, hal_spi_set_clock_divider, void(hal_spi_interface_t, uint8_t))
DYNALIB_FN(5, hal_spi, hal_spi_transfer, uint16_t(hal_spi_interface_t, uint16_t))
DYNALIB_FN(6, hal_spi, hal_spi_is_enabled_deprecated, bool(void))
DYNALIB_FN(7, hal_spi, hal_spi_init, void(hal_spi_interface_t))
   d6c84:	b508      	push	{r3, lr}
   d6c86:	4b02      	ldr	r3, [pc, #8]	; (d6c90 <hal_spi_init+0xc>)
   d6c88:	681b      	ldr	r3, [r3, #0]
   d6c8a:	69db      	ldr	r3, [r3, #28]
   d6c8c:	9301      	str	r3, [sp, #4]
   d6c8e:	bd08      	pop	{r3, pc}
   d6c90:	00030230 	.word	0x00030230

000d6c94 <hal_spi_is_enabled>:
DYNALIB_FN(8, hal_spi, hal_spi_is_enabled, bool(hal_spi_interface_t))
   d6c94:	b508      	push	{r3, lr}
   d6c96:	4b02      	ldr	r3, [pc, #8]	; (d6ca0 <hal_spi_is_enabled+0xc>)
   d6c98:	681b      	ldr	r3, [r3, #0]
   d6c9a:	6a1b      	ldr	r3, [r3, #32]
   d6c9c:	9301      	str	r3, [sp, #4]
   d6c9e:	bd08      	pop	{r3, pc}
   d6ca0:	00030230 	.word	0x00030230

000d6ca4 <hal_usart_init>:
#define BASE_IDX 6 // Base index for all subsequent functions
#else
#define BASE_IDX 0
#endif

DYNALIB_FN(BASE_IDX + 0, hal_usart, hal_usart_init, void(hal_usart_interface_t, hal_usart_ring_buffer_t*, hal_usart_ring_buffer_t*))
   d6ca4:	b508      	push	{r3, lr}
   d6ca6:	4b02      	ldr	r3, [pc, #8]	; (d6cb0 <hal_usart_init+0xc>)
   d6ca8:	681b      	ldr	r3, [r3, #0]
   d6caa:	681b      	ldr	r3, [r3, #0]
   d6cac:	9301      	str	r3, [sp, #4]
   d6cae:	bd08      	pop	{r3, pc}
   d6cb0:	0003023c 	.word	0x0003023c

000d6cb4 <hal_usart_write>:
DYNALIB_FN(BASE_IDX + 1, hal_usart, hal_usart_begin, void(hal_usart_interface_t, uint32_t))
DYNALIB_FN(BASE_IDX + 2, hal_usart, hal_usart_end, void(hal_usart_interface_t))
DYNALIB_FN(BASE_IDX + 3, hal_usart, hal_usart_write, uint32_t(hal_usart_interface_t, uint8_t))
   d6cb4:	b508      	push	{r3, lr}
   d6cb6:	4b02      	ldr	r3, [pc, #8]	; (d6cc0 <hal_usart_write+0xc>)
   d6cb8:	681b      	ldr	r3, [r3, #0]
   d6cba:	68db      	ldr	r3, [r3, #12]
   d6cbc:	9301      	str	r3, [sp, #4]
   d6cbe:	bd08      	pop	{r3, pc}
   d6cc0:	0003023c 	.word	0x0003023c

000d6cc4 <hal_usart_available>:
DYNALIB_FN(BASE_IDX + 4, hal_usart, hal_usart_available, int32_t(hal_usart_interface_t))
   d6cc4:	b508      	push	{r3, lr}
   d6cc6:	4b02      	ldr	r3, [pc, #8]	; (d6cd0 <hal_usart_available+0xc>)
   d6cc8:	681b      	ldr	r3, [r3, #0]
   d6cca:	691b      	ldr	r3, [r3, #16]
   d6ccc:	9301      	str	r3, [sp, #4]
   d6cce:	bd08      	pop	{r3, pc}
   d6cd0:	0003023c 	.word	0x0003023c

000d6cd4 <hal_usart_read>:
DYNALIB_FN(BASE_IDX + 5, hal_usart, hal_usart_read, int32_t(hal_usart_interface_t))
   d6cd4:	b508      	push	{r3, lr}
   d6cd6:	4b02      	ldr	r3, [pc, #8]	; (d6ce0 <hal_usart_read+0xc>)
   d6cd8:	681b      	ldr	r3, [r3, #0]
   d6cda:	695b      	ldr	r3, [r3, #20]
   d6cdc:	9301      	str	r3, [sp, #4]
   d6cde:	bd08      	pop	{r3, pc}
   d6ce0:	0003023c 	.word	0x0003023c

000d6ce4 <hal_usart_peek>:
DYNALIB_FN(BASE_IDX + 6, hal_usart, hal_usart_peek, int32_t(hal_usart_interface_t))
   d6ce4:	b508      	push	{r3, lr}
   d6ce6:	4b02      	ldr	r3, [pc, #8]	; (d6cf0 <hal_usart_peek+0xc>)
   d6ce8:	681b      	ldr	r3, [r3, #0]
   d6cea:	699b      	ldr	r3, [r3, #24]
   d6cec:	9301      	str	r3, [sp, #4]
   d6cee:	bd08      	pop	{r3, pc}
   d6cf0:	0003023c 	.word	0x0003023c

000d6cf4 <hal_usart_flush>:
DYNALIB_FN(BASE_IDX + 7, hal_usart, hal_usart_flush, void(hal_usart_interface_t))
   d6cf4:	b508      	push	{r3, lr}
   d6cf6:	4b02      	ldr	r3, [pc, #8]	; (d6d00 <hal_usart_flush+0xc>)
   d6cf8:	681b      	ldr	r3, [r3, #0]
   d6cfa:	69db      	ldr	r3, [r3, #28]
   d6cfc:	9301      	str	r3, [sp, #4]
   d6cfe:	bd08      	pop	{r3, pc}
   d6d00:	0003023c 	.word	0x0003023c

000d6d04 <hal_usart_is_enabled>:
DYNALIB_FN(BASE_IDX + 8, hal_usart, hal_usart_is_enabled, bool(hal_usart_interface_t))
   d6d04:	b508      	push	{r3, lr}
   d6d06:	4b02      	ldr	r3, [pc, #8]	; (d6d10 <hal_usart_is_enabled+0xc>)
   d6d08:	681b      	ldr	r3, [r3, #0]
   d6d0a:	6a1b      	ldr	r3, [r3, #32]
   d6d0c:	9301      	str	r3, [sp, #4]
   d6d0e:	bd08      	pop	{r3, pc}
   d6d10:	0003023c 	.word	0x0003023c

000d6d14 <hal_usart_available_data_for_write>:
DYNALIB_FN(BASE_IDX + 9, hal_usart, hal_usart_half_duplex, void(hal_usart_interface_t, bool))
DYNALIB_FN(BASE_IDX + 10, hal_usart, hal_usart_available_data_for_write, int32_t(hal_usart_interface_t))
   d6d14:	b508      	push	{r3, lr}
   d6d16:	4b02      	ldr	r3, [pc, #8]	; (d6d20 <hal_usart_available_data_for_write+0xc>)
   d6d18:	681b      	ldr	r3, [r3, #0]
   d6d1a:	6a9b      	ldr	r3, [r3, #40]	; 0x28
   d6d1c:	9301      	str	r3, [sp, #4]
   d6d1e:	bd08      	pop	{r3, pc}
   d6d20:	0003023c 	.word	0x0003023c

000d6d24 <HAL_USB_USART_Init>:
#endif

DYNALIB_BEGIN(hal_usb)

#ifdef USB_CDC_ENABLE
DYNALIB_FN(0, hal_usb, HAL_USB_USART_Init, void(HAL_USB_USART_Serial, const HAL_USB_USART_Config*))
   d6d24:	b508      	push	{r3, lr}
   d6d26:	4b02      	ldr	r3, [pc, #8]	; (d6d30 <HAL_USB_USART_Init+0xc>)
   d6d28:	681b      	ldr	r3, [r3, #0]
   d6d2a:	681b      	ldr	r3, [r3, #0]
   d6d2c:	9301      	str	r3, [sp, #4]
   d6d2e:	bd08      	pop	{r3, pc}
   d6d30:	0003024c 	.word	0x0003024c

000d6d34 <HAL_USB_USART_Begin>:
DYNALIB_FN(1, hal_usb, HAL_USB_USART_Begin, void(HAL_USB_USART_Serial, uint32_t, void *))
   d6d34:	b508      	push	{r3, lr}
   d6d36:	4b02      	ldr	r3, [pc, #8]	; (d6d40 <HAL_USB_USART_Begin+0xc>)
   d6d38:	681b      	ldr	r3, [r3, #0]
   d6d3a:	685b      	ldr	r3, [r3, #4]
   d6d3c:	9301      	str	r3, [sp, #4]
   d6d3e:	bd08      	pop	{r3, pc}
   d6d40:	0003024c 	.word	0x0003024c

000d6d44 <HAL_USB_USART_Available_Data>:
DYNALIB_FN(2, hal_usb, HAL_USB_USART_End, void(HAL_USB_USART_Serial))
DYNALIB_FN(3, hal_usb, HAL_USB_USART_Baud_Rate, unsigned int(HAL_USB_USART_Serial))
DYNALIB_FN(4, hal_usb, HAL_USB_USART_Available_Data, int32_t(HAL_USB_USART_Serial))
   d6d44:	b508      	push	{r3, lr}
   d6d46:	4b02      	ldr	r3, [pc, #8]	; (d6d50 <HAL_USB_USART_Available_Data+0xc>)
   d6d48:	681b      	ldr	r3, [r3, #0]
   d6d4a:	691b      	ldr	r3, [r3, #16]
   d6d4c:	9301      	str	r3, [sp, #4]
   d6d4e:	bd08      	pop	{r3, pc}
   d6d50:	0003024c 	.word	0x0003024c

000d6d54 <HAL_USB_USART_Available_Data_For_Write>:
DYNALIB_FN(5, hal_usb, HAL_USB_USART_Available_Data_For_Write, int32_t(HAL_USB_USART_Serial))
   d6d54:	b508      	push	{r3, lr}
   d6d56:	4b02      	ldr	r3, [pc, #8]	; (d6d60 <HAL_USB_USART_Available_Data_For_Write+0xc>)
   d6d58:	681b      	ldr	r3, [r3, #0]
   d6d5a:	695b      	ldr	r3, [r3, #20]
   d6d5c:	9301      	str	r3, [sp, #4]
   d6d5e:	bd08      	pop	{r3, pc}
   d6d60:	0003024c 	.word	0x0003024c

000d6d64 <HAL_USB_USART_Receive_Data>:
DYNALIB_FN(6, hal_usb, HAL_USB_USART_Receive_Data, int32_t(HAL_USB_USART_Serial, uint8_t))
   d6d64:	b508      	push	{r3, lr}
   d6d66:	4b02      	ldr	r3, [pc, #8]	; (d6d70 <HAL_USB_USART_Receive_Data+0xc>)
   d6d68:	681b      	ldr	r3, [r3, #0]
   d6d6a:	699b      	ldr	r3, [r3, #24]
   d6d6c:	9301      	str	r3, [sp, #4]
   d6d6e:	bd08      	pop	{r3, pc}
   d6d70:	0003024c 	.word	0x0003024c

000d6d74 <HAL_USB_USART_Send_Data>:
DYNALIB_FN(7, hal_usb, HAL_USB_USART_Send_Data, int32_t(HAL_USB_USART_Serial, uint8_t))
   d6d74:	b508      	push	{r3, lr}
   d6d76:	4b02      	ldr	r3, [pc, #8]	; (d6d80 <HAL_USB_USART_Send_Data+0xc>)
   d6d78:	681b      	ldr	r3, [r3, #0]
   d6d7a:	69db      	ldr	r3, [r3, #28]
   d6d7c:	9301      	str	r3, [sp, #4]
   d6d7e:	bd08      	pop	{r3, pc}
   d6d80:	0003024c 	.word	0x0003024c

000d6d84 <HAL_USB_USART_Flush_Data>:
DYNALIB_FN(8, hal_usb, HAL_USB_USART_Flush_Data, void(HAL_USB_USART_Serial))
   d6d84:	b508      	push	{r3, lr}
   d6d86:	4b02      	ldr	r3, [pc, #8]	; (d6d90 <HAL_USB_USART_Flush_Data+0xc>)
   d6d88:	681b      	ldr	r3, [r3, #0]
   d6d8a:	6a1b      	ldr	r3, [r3, #32]
   d6d8c:	9301      	str	r3, [sp, #4]
   d6d8e:	bd08      	pop	{r3, pc}
   d6d90:	0003024c 	.word	0x0003024c

000d6d94 <panic_>:
DYNALIB_FN(9, services, LED_Toggle, void(Led_TypeDef))
DYNALIB_FN(10, services, LED_Fade, void(Led_TypeDef))
DYNALIB_FN(11, services, Get_LED_Brightness, uint8_t(void))

DYNALIB_FN(12, services, set_logger_output, void(debug_output_fn, LoggerOutputLevel)) // Deprecated
DYNALIB_FN(13, services, panic_, void(ePanicCode, void*, void(*)(uint32_t)))
   d6d94:	b508      	push	{r3, lr}
   d6d96:	4b02      	ldr	r3, [pc, #8]	; (d6da0 <panic_+0xc>)
   d6d98:	681b      	ldr	r3, [r3, #0]
   d6d9a:	6b5b      	ldr	r3, [r3, #52]	; 0x34
   d6d9c:	9301      	str	r3, [sp, #4]
   d6d9e:	bd08      	pop	{r3, pc}
   d6da0:	00030260 	.word	0x00030260

000d6da4 <jsmn_init>:

DYNALIB_FN(14, services, jsmn_init, void(jsmn_parser*, void*))
   d6da4:	b508      	push	{r3, lr}
   d6da6:	4b02      	ldr	r3, [pc, #8]	; (d6db0 <jsmn_init+0xc>)
   d6da8:	681b      	ldr	r3, [r3, #0]
   d6daa:	6b9b      	ldr	r3, [r3, #56]	; 0x38
   d6dac:	9301      	str	r3, [sp, #4]
   d6dae:	bd08      	pop	{r3, pc}
   d6db0:	00030260 	.word	0x00030260

000d6db4 <jsmn_parse>:
DYNALIB_FN(15, services, jsmn_parse, jsmnerr_t(jsmn_parser*, const char*, size_t, jsmntok_t*, unsigned int, void*))
   d6db4:	b508      	push	{r3, lr}
   d6db6:	4b02      	ldr	r3, [pc, #8]	; (d6dc0 <jsmn_parse+0xc>)
   d6db8:	681b      	ldr	r3, [r3, #0]
   d6dba:	6bdb      	ldr	r3, [r3, #60]	; 0x3c
   d6dbc:	9301      	str	r3, [sp, #4]
   d6dbe:	bd08      	pop	{r3, pc}
   d6dc0:	00030260 	.word	0x00030260

000d6dc4 <log_message>:
DYNALIB_FN(16, services, log_print_, void(int, int, const char*, const char*, const char*, ...)) // Deprecated
DYNALIB_FN(17, services, LED_RGB_SetChangeHandler, void(led_update_handler_fn, void*))
DYNALIB_FN(18, services, log_print_direct_, void(int, void*, const char*, ...)) // Deprecated
DYNALIB_FN(19, services, LED_GetColor, uint32_t(uint32_t, void*))

DYNALIB_FN(20, services, log_message, void(int, const char*, LogAttributes*, void*, const char*, ...))
   d6dc4:	b508      	push	{r3, lr}
   d6dc6:	4b02      	ldr	r3, [pc, #8]	; (d6dd0 <log_message+0xc>)
   d6dc8:	681b      	ldr	r3, [r3, #0]
   d6dca:	6d1b      	ldr	r3, [r3, #80]	; 0x50
   d6dcc:	9301      	str	r3, [sp, #4]
   d6dce:	bd08      	pop	{r3, pc}
   d6dd0:	00030260 	.word	0x00030260

000d6dd4 <log_message_v>:
DYNALIB_FN(21, services, log_message_v, void(int, const char*, LogAttributes*, void*, const char*, va_list))
   d6dd4:	b508      	push	{r3, lr}
   d6dd6:	4b02      	ldr	r3, [pc, #8]	; (d6de0 <log_message_v+0xc>)
   d6dd8:	681b      	ldr	r3, [r3, #0]
   d6dda:	6d5b      	ldr	r3, [r3, #84]	; 0x54
   d6ddc:	9301      	str	r3, [sp, #4]
   d6dde:	bd08      	pop	{r3, pc}
   d6de0:	00030260 	.word	0x00030260

000d6de4 <set_system_mode>:
#endif

DYNALIB_BEGIN(system)

DYNALIB_FN(0, system, system_mode, System_Mode_TypeDef(void))
DYNALIB_FN(1, system, set_system_mode, void(System_Mode_TypeDef))
   d6de4:	b508      	push	{r3, lr}
   d6de6:	4b02      	ldr	r3, [pc, #8]	; (d6df0 <set_system_mode+0xc>)
   d6de8:	681b      	ldr	r3, [r3, #0]
   d6dea:	685b      	ldr	r3, [r3, #4]
   d6dec:	9301      	str	r3, [sp, #4]
   d6dee:	bd08      	pop	{r3, pc}
   d6df0:	00030220 	.word	0x00030220

000d6df4 <system_delay_ms>:

DYNALIB_FN(2, system, set_ymodem_serial_flash_update_handler, void(ymodem_serial_flash_update_handler))
DYNALIB_FN(3, system, system_firmwareUpdate, bool(Stream*, void*))
DYNALIB_FN(4, system, system_fileTransfer, bool(system_file_transfer_t*, void*))

DYNALIB_FN(5, system, system_delay_ms, void(unsigned long, bool))
   d6df4:	b508      	push	{r3, lr}
   d6df6:	4b02      	ldr	r3, [pc, #8]	; (d6e00 <system_delay_ms+0xc>)
   d6df8:	681b      	ldr	r3, [r3, #0]
   d6dfa:	695b      	ldr	r3, [r3, #20]
   d6dfc:	9301      	str	r3, [sp, #4]
   d6dfe:	bd08      	pop	{r3, pc}
   d6e00:	00030220 	.word	0x00030220

000d6e04 <application_thread_current>:
DYNALIB_FN(15, system, system_get_flag, int(system_flag_t, uint8_t*, void*))
DYNALIB_FN(16, system, Spark_Prepare_For_Firmware_Update, int(FileTransfer::Descriptor&, uint32_t, void*))
DYNALIB_FN(17, system, Spark_Save_Firmware_Chunk, int(FileTransfer::Descriptor&, const uint8_t*, void*))
DYNALIB_FN(18, system, Spark_Finish_Firmware_Update, int(FileTransfer::Descriptor&, uint32_t, void*))

DYNALIB_FN(19, system, application_thread_current, uint8_t(void*))
   d6e04:	b508      	push	{r3, lr}
   d6e06:	4b02      	ldr	r3, [pc, #8]	; (d6e10 <application_thread_current+0xc>)
   d6e08:	681b      	ldr	r3, [r3, #0]
   d6e0a:	6cdb      	ldr	r3, [r3, #76]	; 0x4c
   d6e0c:	9301      	str	r3, [sp, #4]
   d6e0e:	bd08      	pop	{r3, pc}
   d6e10:	00030220 	.word	0x00030220

000d6e14 <application_thread_invoke>:
DYNALIB_FN(20, system, system_thread_current, uint8_t(void*))
DYNALIB_FN(21, system, application_thread_invoke, uint8_t(void(*)(void*), void*, void*))
   d6e14:	b508      	push	{r3, lr}
   d6e16:	4b02      	ldr	r3, [pc, #8]	; (d6e20 <application_thread_invoke+0xc>)
   d6e18:	681b      	ldr	r3, [r3, #0]
   d6e1a:	6d5b      	ldr	r3, [r3, #84]	; 0x54
   d6e1c:	9301      	str	r3, [sp, #4]
   d6e1e:	bd08      	pop	{r3, pc}
   d6e20:	00030220 	.word	0x00030220

000d6e24 <system_ctrl_set_app_request_handler>:
DYNALIB_FN(BASE_IDX + 6, system, led_pattern_period, uint16_t(int, int, void*))
DYNALIB_FN(BASE_IDX + 7, system, system_set_tester_handlers, int(system_tester_handlers_t*, void*))
DYNALIB_FN(BASE_IDX + 8, system, system_format_diag_data, int(const uint16_t*, size_t, unsigned, appender_fn, void*, void*))

// Control requests
DYNALIB_FN(BASE_IDX + 9, system, system_ctrl_set_app_request_handler, int(ctrl_request_handler_fn, void*))
   d6e24:	b508      	push	{r3, lr}
   d6e26:	4b03      	ldr	r3, [pc, #12]	; (d6e34 <system_ctrl_set_app_request_handler+0x10>)
   d6e28:	681b      	ldr	r3, [r3, #0]
   d6e2a:	f8d3 3088 	ldr.w	r3, [r3, #136]	; 0x88
   d6e2e:	9301      	str	r3, [sp, #4]
   d6e30:	bd08      	pop	{r3, pc}
   d6e32:	0000      	.short	0x0000
   d6e34:	00030220 	.word	0x00030220

000d6e38 <system_ctrl_set_result>:
DYNALIB_FN(BASE_IDX + 10, system, system_ctrl_alloc_reply_data, int(ctrl_request*, size_t, void*))
DYNALIB_FN(BASE_IDX + 11, system, system_ctrl_free_request_data, void(ctrl_request*, void*))
DYNALIB_FN(BASE_IDX + 12, system, system_ctrl_set_result, void(ctrl_request*, int, ctrl_completion_handler_fn, void*, void*))
   d6e38:	b508      	push	{r3, lr}
   d6e3a:	4b03      	ldr	r3, [pc, #12]	; (d6e48 <system_ctrl_set_result+0x10>)
   d6e3c:	681b      	ldr	r3, [r3, #0]
   d6e3e:	f8d3 3094 	ldr.w	r3, [r3, #148]	; 0x94
   d6e42:	9301      	str	r3, [sp, #4]
   d6e44:	bd08      	pop	{r3, pc}
   d6e46:	0000      	.short	0x0000
   d6e48:	00030220 	.word	0x00030220

000d6e4c <spark_process>:

DYNALIB_BEGIN(system_cloud)

DYNALIB_FN(0, system_cloud, spark_variable, bool(const char*, const void*, Spark_Data_TypeDef, spark_variable_t*))
DYNALIB_FN(1, system_cloud, spark_function, bool(const char*, p_user_function_int_str_t, void*))
DYNALIB_FN(2, system_cloud, spark_process, void(void))
   d6e4c:	b508      	push	{r3, lr}
   d6e4e:	4b02      	ldr	r3, [pc, #8]	; (d6e58 <spark_process+0xc>)
   d6e50:	681b      	ldr	r3, [r3, #0]
   d6e52:	689b      	ldr	r3, [r3, #8]
   d6e54:	9301      	str	r3, [sp, #4]
   d6e56:	bd08      	pop	{r3, pc}
   d6e58:	00030244 	.word	0x00030244

000d6e5c <spark_cloud_flag_connected>:
DYNALIB_FN(3, system_cloud, spark_cloud_flag_connect, void(void))
DYNALIB_FN(4, system_cloud, spark_cloud_flag_disconnect, void(void))
DYNALIB_FN(5, system_cloud, spark_cloud_flag_connected, bool(void))
   d6e5c:	b508      	push	{r3, lr}
   d6e5e:	4b02      	ldr	r3, [pc, #8]	; (d6e68 <spark_cloud_flag_connected+0xc>)
   d6e60:	681b      	ldr	r3, [r3, #0]
   d6e62:	695b      	ldr	r3, [r3, #20]
   d6e64:	9301      	str	r3, [sp, #4]
   d6e66:	bd08      	pop	{r3, pc}
   d6e68:	00030244 	.word	0x00030244

000d6e6c <spark_deviceID>:
DYNALIB_FN(6, system_cloud, system_cloud_protocol_instance, ProtocolFacade*(void))
DYNALIB_FN(7, system_cloud, spark_deviceID, String(void))
   d6e6c:	b508      	push	{r3, lr}
   d6e6e:	4b02      	ldr	r3, [pc, #8]	; (d6e78 <spark_deviceID+0xc>)
   d6e70:	681b      	ldr	r3, [r3, #0]
   d6e72:	69db      	ldr	r3, [r3, #28]
   d6e74:	9301      	str	r3, [sp, #4]
   d6e76:	bd08      	pop	{r3, pc}
   d6e78:	00030244 	.word	0x00030244

000d6e7c <spark_send_event>:
DYNALIB_FN(8, system_cloud, spark_send_event, bool(const char*, const char*, int, uint32_t, void*))
   d6e7c:	b508      	push	{r3, lr}
   d6e7e:	4b02      	ldr	r3, [pc, #8]	; (d6e88 <spark_send_event+0xc>)
   d6e80:	681b      	ldr	r3, [r3, #0]
   d6e82:	6a1b      	ldr	r3, [r3, #32]
   d6e84:	9301      	str	r3, [sp, #4]
   d6e86:	bd08      	pop	{r3, pc}
   d6e88:	00030244 	.word	0x00030244

000d6e8c <spark_subscribe>:
DYNALIB_FN(9, system_cloud, spark_subscribe, bool(const char*, EventHandler, void*, Spark_Subscription_Scope_TypeDef, const char*, void*))
   d6e8c:	b508      	push	{r3, lr}
   d6e8e:	4b02      	ldr	r3, [pc, #8]	; (d6e98 <spark_subscribe+0xc>)
   d6e90:	681b      	ldr	r3, [r3, #0]
   d6e92:	6a5b      	ldr	r3, [r3, #36]	; 0x24
   d6e94:	9301      	str	r3, [sp, #4]
   d6e96:	bd08      	pop	{r3, pc}
   d6e98:	00030244 	.word	0x00030244

000d6e9c <spark_set_random_seed_from_cloud_handler>:
DYNALIB_FN(10, system_cloud, spark_unsubscribe, void(void*))
DYNALIB_FN(11, system_cloud, spark_sync_time, bool(void*))
DYNALIB_FN(12, system_cloud, spark_sync_time_pending, bool(void*))
DYNALIB_FN(13, system_cloud, spark_sync_time_last, system_tick_t(time32_t*, time_t*))
DYNALIB_FN(14, system_cloud, spark_set_connection_property, int(unsigned, unsigned, const void*, void*))
DYNALIB_FN(15, system_cloud, spark_set_random_seed_from_cloud_handler, int(void (*handler)(unsigned int), void*))
   d6e9c:	b508      	push	{r3, lr}
   d6e9e:	4b02      	ldr	r3, [pc, #8]	; (d6ea8 <spark_set_random_seed_from_cloud_handler+0xc>)
   d6ea0:	681b      	ldr	r3, [r3, #0]
   d6ea2:	6bdb      	ldr	r3, [r3, #60]	; 0x3c
   d6ea4:	9301      	str	r3, [sp, #4]
   d6ea6:	bd08      	pop	{r3, pc}
   d6ea8:	00030244 	.word	0x00030244

000d6eac <network_connect>:
#endif

DYNALIB_BEGIN(system_net)

DYNALIB_FN(0, system_net, network_config, const void*(network_handle_t, uint32_t, void*))
DYNALIB_FN(1, system_net, network_connect, void(network_handle_t, uint32_t, uint32_t, void*))
   d6eac:	b508      	push	{r3, lr}
   d6eae:	4b02      	ldr	r3, [pc, #8]	; (d6eb8 <network_connect+0xc>)
   d6eb0:	681b      	ldr	r3, [r3, #0]
   d6eb2:	685b      	ldr	r3, [r3, #4]
   d6eb4:	9301      	str	r3, [sp, #4]
   d6eb6:	bd08      	pop	{r3, pc}
   d6eb8:	00030240 	.word	0x00030240

000d6ebc <network_connecting>:
DYNALIB_FN(2, system_net, network_connecting, bool(network_handle_t, uint32_t, void*))
   d6ebc:	b508      	push	{r3, lr}
   d6ebe:	4b02      	ldr	r3, [pc, #8]	; (d6ec8 <network_connecting+0xc>)
   d6ec0:	681b      	ldr	r3, [r3, #0]
   d6ec2:	689b      	ldr	r3, [r3, #8]
   d6ec4:	9301      	str	r3, [sp, #4]
   d6ec6:	bd08      	pop	{r3, pc}
   d6ec8:	00030240 	.word	0x00030240

000d6ecc <network_disconnect>:
DYNALIB_FN(3, system_net, network_disconnect, void(network_handle_t, uint32_t, void*))
   d6ecc:	b508      	push	{r3, lr}
   d6ece:	4b02      	ldr	r3, [pc, #8]	; (d6ed8 <network_disconnect+0xc>)
   d6ed0:	681b      	ldr	r3, [r3, #0]
   d6ed2:	68db      	ldr	r3, [r3, #12]
   d6ed4:	9301      	str	r3, [sp, #4]
   d6ed6:	bd08      	pop	{r3, pc}
   d6ed8:	00030240 	.word	0x00030240

000d6edc <network_ready>:
DYNALIB_FN(4, system_net, network_ready, bool(network_handle_t, uint32_t, void*))
   d6edc:	b508      	push	{r3, lr}
   d6ede:	4b02      	ldr	r3, [pc, #8]	; (d6ee8 <network_ready+0xc>)
   d6ee0:	681b      	ldr	r3, [r3, #0]
   d6ee2:	691b      	ldr	r3, [r3, #16]
   d6ee4:	9301      	str	r3, [sp, #4]
   d6ee6:	bd08      	pop	{r3, pc}
   d6ee8:	00030240 	.word	0x00030240

000d6eec <network_on>:
DYNALIB_FN(5, system_net, network_on, void(network_handle_t, uint32_t, uint32_t, void*))
   d6eec:	b508      	push	{r3, lr}
   d6eee:	4b02      	ldr	r3, [pc, #8]	; (d6ef8 <network_on+0xc>)
   d6ef0:	681b      	ldr	r3, [r3, #0]
   d6ef2:	695b      	ldr	r3, [r3, #20]
   d6ef4:	9301      	str	r3, [sp, #4]
   d6ef6:	bd08      	pop	{r3, pc}
   d6ef8:	00030240 	.word	0x00030240

000d6efc <network_off>:
DYNALIB_FN(6, system_net, network_off, void(network_handle_t, uint32_t, uint32_t, void*))
   d6efc:	b508      	push	{r3, lr}
   d6efe:	4b02      	ldr	r3, [pc, #8]	; (d6f08 <network_off+0xc>)
   d6f00:	681b      	ldr	r3, [r3, #0]
   d6f02:	699b      	ldr	r3, [r3, #24]
   d6f04:	9301      	str	r3, [sp, #4]
   d6f06:	bd08      	pop	{r3, pc}
   d6f08:	00030240 	.word	0x00030240

000d6f0c <network_listen>:
DYNALIB_FN(7, system_net, network_listen, void(network_handle_t, uint32_t, void*))
   d6f0c:	b508      	push	{r3, lr}
   d6f0e:	4b02      	ldr	r3, [pc, #8]	; (d6f18 <network_listen+0xc>)
   d6f10:	681b      	ldr	r3, [r3, #0]
   d6f12:	69db      	ldr	r3, [r3, #28]
   d6f14:	9301      	str	r3, [sp, #4]
   d6f16:	bd08      	pop	{r3, pc}
   d6f18:	00030240 	.word	0x00030240

000d6f1c <network_listening>:
DYNALIB_FN(8, system_net, network_listening, bool(network_handle_t, uint32_t, void*))
   d6f1c:	b508      	push	{r3, lr}
   d6f1e:	4b02      	ldr	r3, [pc, #8]	; (d6f28 <network_listening+0xc>)
   d6f20:	681b      	ldr	r3, [r3, #0]
   d6f22:	6a1b      	ldr	r3, [r3, #32]
   d6f24:	9301      	str	r3, [sp, #4]
   d6f26:	bd08      	pop	{r3, pc}
   d6f28:	00030240 	.word	0x00030240

000d6f2c <network_set_listen_timeout>:
DYNALIB_FN(9, system_net, network_has_credentials, bool(network_handle_t, uint32_t, void*))
DYNALIB_FN(10, system_net, network_set_credentials, int(network_handle_t, uint32_t, NetworkCredentials*, void*))
DYNALIB_FN(11, system_net, network_clear_credentials, bool(network_handle_t, uint32_t, NetworkCredentials*, void*))
DYNALIB_FN(12, system_net, network_set_listen_timeout, void(network_handle_t, uint16_t, void*))
   d6f2c:	b508      	push	{r3, lr}
   d6f2e:	4b02      	ldr	r3, [pc, #8]	; (d6f38 <network_set_listen_timeout+0xc>)
   d6f30:	681b      	ldr	r3, [r3, #0]
   d6f32:	6b1b      	ldr	r3, [r3, #48]	; 0x30
   d6f34:	9301      	str	r3, [sp, #4]
   d6f36:	bd08      	pop	{r3, pc}
   d6f38:	00030240 	.word	0x00030240

000d6f3c <network_get_listen_timeout>:
DYNALIB_FN(13, system_net, network_get_listen_timeout, uint16_t(network_handle_t, uint32_t, void*))
   d6f3c:	b508      	push	{r3, lr}
   d6f3e:	4b02      	ldr	r3, [pc, #8]	; (d6f48 <network_get_listen_timeout+0xc>)
   d6f40:	681b      	ldr	r3, [r3, #0]
   d6f42:	6b5b      	ldr	r3, [r3, #52]	; 0x34
   d6f44:	9301      	str	r3, [sp, #4]
   d6f46:	bd08      	pop	{r3, pc}
   d6f48:	00030240 	.word	0x00030240

000d6f4c <network_is_on>:
DYNALIB_FN(14, system_net, network_set_hostname, int(network_handle_t, uint32_t, const char*, void*))
DYNALIB_FN(15, system_net, network_get_hostname, int(network_handle_t, uint32_t, char*, size_t, void*))
DYNALIB_FN(16, system_net, network_is_on, bool(network_handle_t, void*))
   d6f4c:	b508      	push	{r3, lr}
   d6f4e:	4b02      	ldr	r3, [pc, #8]	; (d6f58 <network_is_on+0xc>)
   d6f50:	681b      	ldr	r3, [r3, #0]
   d6f52:	6c1b      	ldr	r3, [r3, #64]	; 0x40
   d6f54:	9301      	str	r3, [sp, #4]
   d6f56:	bd08      	pop	{r3, pc}
   d6f58:	00030240 	.word	0x00030240

000d6f5c <network_is_off>:
DYNALIB_FN(17, system_net, network_is_off, bool(network_handle_t, void*))
   d6f5c:	b508      	push	{r3, lr}
   d6f5e:	4b02      	ldr	r3, [pc, #8]	; (d6f68 <network_is_off+0xc>)
   d6f60:	681b      	ldr	r3, [r3, #0]
   d6f62:	6c5b      	ldr	r3, [r3, #68]	; 0x44
   d6f64:	9301      	str	r3, [sp, #4]
   d6f66:	bd08      	pop	{r3, pc}
   d6f68:	00030240 	.word	0x00030240

000d6f6c <malloc>:
#include "hal_platform.h"
#endif // defined(DYNALIB_EXPORT) || (defined(DYNALIB_IMPORT) && !defined(RT_DYNALIB_NO_DEPENDENCY_BREAKING_IMPORTS))

DYNALIB_BEGIN(rt)

DYNALIB_FN(0, rt, malloc, void*(size_t))
   d6f6c:	b508      	push	{r3, lr}
   d6f6e:	4b02      	ldr	r3, [pc, #8]	; (d6f78 <malloc+0xc>)
   d6f70:	681b      	ldr	r3, [r3, #0]
   d6f72:	681b      	ldr	r3, [r3, #0]
   d6f74:	9301      	str	r3, [sp, #4]
   d6f76:	bd08      	pop	{r3, pc}
   d6f78:	0003021c 	.word	0x0003021c

000d6f7c <free>:
DYNALIB_FN(1, rt, free, void(void*))
   d6f7c:	b508      	push	{r3, lr}
   d6f7e:	4b02      	ldr	r3, [pc, #8]	; (d6f88 <free+0xc>)
   d6f80:	681b      	ldr	r3, [r3, #0]
   d6f82:	685b      	ldr	r3, [r3, #4]
   d6f84:	9301      	str	r3, [sp, #4]
   d6f86:	bd08      	pop	{r3, pc}
   d6f88:	0003021c 	.word	0x0003021c

000d6f8c <realloc>:
DYNALIB_FN(2, rt, realloc, void*(void*, size_t))
   d6f8c:	b508      	push	{r3, lr}
   d6f8e:	4b02      	ldr	r3, [pc, #8]	; (d6f98 <realloc+0xc>)
   d6f90:	681b      	ldr	r3, [r3, #0]
   d6f92:	689b      	ldr	r3, [r3, #8]
   d6f94:	9301      	str	r3, [sp, #4]
   d6f96:	bd08      	pop	{r3, pc}
   d6f98:	0003021c 	.word	0x0003021c

000d6f9c <sprintf>:
DYNALIB_FN(3, rt, sprintf, int(char*, const char*, ...))
   d6f9c:	b508      	push	{r3, lr}
   d6f9e:	4b02      	ldr	r3, [pc, #8]	; (d6fa8 <sprintf+0xc>)
   d6fa0:	681b      	ldr	r3, [r3, #0]
   d6fa2:	68db      	ldr	r3, [r3, #12]
   d6fa4:	9301      	str	r3, [sp, #4]
   d6fa6:	bd08      	pop	{r3, pc}
   d6fa8:	0003021c 	.word	0x0003021c

000d6fac <abort>:
DYNALIB_FN(6, rt, siscanf, int(const char*, const char*, ...))
DYNALIB_FN(7, rt, snprintf, int(char*, size_t, const char*, ...))
DYNALIB_FN(8, rt, sniprintf, int(char*, size_t, const char*, ...))
DYNALIB_FN(9, rt, vsnprintf, int(char*, size_t, const char*, va_list))
DYNALIB_FN(10, rt, vsniprintf, int(char*, size_t, const char*, va_list))
DYNALIB_FN(11, rt, abort, void(void))
   d6fac:	b508      	push	{r3, lr}
   d6fae:	4b02      	ldr	r3, [pc, #8]	; (d6fb8 <abort+0xc>)
   d6fb0:	681b      	ldr	r3, [r3, #0]
   d6fb2:	6adb      	ldr	r3, [r3, #44]	; 0x2c
   d6fb4:	9301      	str	r3, [sp, #4]
   d6fb6:	bd08      	pop	{r3, pc}
   d6fb8:	0003021c 	.word	0x0003021c

000d6fbc <_malloc_r>:
DYNALIB_FN(12, rt, _malloc_r, void*(struct _reent*, size_t))
   d6fbc:	b508      	push	{r3, lr}
   d6fbe:	4b02      	ldr	r3, [pc, #8]	; (d6fc8 <_malloc_r+0xc>)
   d6fc0:	681b      	ldr	r3, [r3, #0]
   d6fc2:	6b1b      	ldr	r3, [r3, #48]	; 0x30
   d6fc4:	9301      	str	r3, [sp, #4]
   d6fc6:	bd08      	pop	{r3, pc}
   d6fc8:	0003021c 	.word	0x0003021c

000d6fcc <__errno>:
DYNALIB_FN(13, rt, _free_r, void(struct _reent*, void*))
DYNALIB_FN(14, rt, _realloc_r, void*(struct _reent*, void*, size_t))
DYNALIB_FN(15, rt, __errno, int*())
   d6fcc:	b508      	push	{r3, lr}
   d6fce:	4b02      	ldr	r3, [pc, #8]	; (d6fd8 <__errno+0xc>)
   d6fd0:	681b      	ldr	r3, [r3, #0]
   d6fd2:	6bdb      	ldr	r3, [r3, #60]	; 0x3c
   d6fd4:	9301      	str	r3, [sp, #4]
   d6fd6:	bd08      	pop	{r3, pc}
   d6fd8:	0003021c 	.word	0x0003021c

000d6fdc <newlib_impure_ptr_callback>:
// RT is currently being imported into system-part1 from system-part2,
// which is the reverse direction.

#if defined(DYNALIB_EXPORT) || (defined(DYNALIB_IMPORT) && !defined(RT_DYNALIB_NO_DEPENDENCY_BREAKING_IMPORTS))
DYNALIB_FN(16, rt, __assert_func, void(const char*, int, const char*, const char*))
DYNALIB_FN(17, rt, newlib_impure_ptr_callback, void(void (*)(struct _reent*, size_t, uint32_t, void*), void*))
   d6fdc:	b508      	push	{r3, lr}
   d6fde:	4b02      	ldr	r3, [pc, #8]	; (d6fe8 <newlib_impure_ptr_callback+0xc>)
   d6fe0:	681b      	ldr	r3, [r3, #0]
   d6fe2:	6c5b      	ldr	r3, [r3, #68]	; 0x44
   d6fe4:	9301      	str	r3, [sp, #4]
   d6fe6:	bd08      	pop	{r3, pc}
   d6fe8:	0003021c 	.word	0x0003021c

000d6fec <delay>:
    return (value - fromStart) * (toEnd - toStart) / (fromEnd - fromStart) + toStart;
}

void delay(unsigned long ms)
{
    system_delay_ms(ms, false);
   d6fec:	2100      	movs	r1, #0
   d6fee:	f7ff bf01 	b.w	d6df4 <system_delay_ms>

000d6ff2 <_ZN8particle6detail21futureCallbackWrapperEPv>:
 * License along with this library; if not, see <http://www.gnu.org/licenses/>.
 */

#include "spark_wiring_async.h"

void particle::detail::futureCallbackWrapper(void* data) {
   d6ff2:	b510      	push	{r4, lr}
      if (_M_empty())
   d6ff4:	6883      	ldr	r3, [r0, #8]
   d6ff6:	4604      	mov	r4, r0
   d6ff8:	b90b      	cbnz	r3, d6ffe <_ZN8particle6detail21futureCallbackWrapperEPv+0xc>
	__throw_bad_function_call();
   d6ffa:	f002 fa14 	bl	d9426 <_ZSt25__throw_bad_function_callv>
      return _M_invoker(_M_functor, std::forward<_ArgTypes>(__args)...);
   d6ffe:	68c3      	ldr	r3, [r0, #12]
   d7000:	4798      	blx	r3
      if (_M_manager)
   d7002:	68a3      	ldr	r3, [r4, #8]
   d7004:	b11b      	cbz	r3, d700e <_ZN8particle6detail21futureCallbackWrapperEPv+0x1c>
	_M_manager(_M_functor, _M_functor, __destroy_functor);
   d7006:	2203      	movs	r2, #3
   d7008:	4621      	mov	r1, r4
   d700a:	4620      	mov	r0, r4
   d700c:	4798      	blx	r3
    auto callbackPtr = static_cast<const std::function<void()>*>(data);
    (*callbackPtr)();
    delete callbackPtr;
   d700e:	4620      	mov	r0, r4
   d7010:	2110      	movs	r1, #16
}
   d7012:	e8bd 4010 	ldmia.w	sp!, {r4, lr}
    delete callbackPtr;
   d7016:	f002 b94e 	b.w	d92b6 <_ZdlPvj>

000d701a <_ZN14RecursiveMutexD1Ev>:
    RecursiveMutex() : handle_(nullptr)
    {
        os_mutex_recursive_create(&handle_);
    }

    ~RecursiveMutex() {
   d701a:	b510      	push	{r4, lr}
   d701c:	4604      	mov	r4, r0
        dispose();
    }

    void dispose()
    {
        if (handle_) {
   d701e:	6800      	ldr	r0, [r0, #0]
   d7020:	b108      	cbz	r0, d7026 <_ZN14RecursiveMutexD1Ev+0xc>
            os_mutex_recursive_destroy(handle_);
   d7022:	f7ff fd0f 	bl	d6a44 <os_mutex_recursive_destroy>
    }
   d7026:	4620      	mov	r0, r4
   d7028:	bd10      	pop	{r4, pc}

000d702a <_ZSt4swapISt9_Any_dataENSt9enable_ifIXsrSt6__and_IJSt6__not_ISt15__is_tuple_likeIT_EESt21is_move_constructibleIS5_ESt18is_move_assignableIS5_EEE5valueEvE4typeERS5_SF_>:
    swap(_Tp& __a, _Tp& __b)
   d702a:	b513      	push	{r0, r1, r4, lr}
   d702c:	460b      	mov	r3, r1
   d702e:	4602      	mov	r2, r0
      _Tp __tmp = _GLIBCXX_MOVE(__a);
   d7030:	e9d0 0100 	ldrd	r0, r1, [r0]
   d7034:	466c      	mov	r4, sp
   d7036:	e884 0003 	stmia.w	r4, {r0, r1}
      __a = _GLIBCXX_MOVE(__b);
   d703a:	e893 0003 	ldmia.w	r3, {r0, r1}
   d703e:	e882 0003 	stmia.w	r2, {r0, r1}
      __b = _GLIBCXX_MOVE(__tmp);
   d7042:	e894 0003 	ldmia.w	r4, {r0, r1}
   d7046:	e883 0003 	stmia.w	r3, {r0, r1}
    }
   d704a:	b002      	add	sp, #8
   d704c:	bd10      	pop	{r4, pc}
	...

000d7050 <_GLOBAL__sub_I__ZN8particle3ble13WiringBleLock6mutex_E>:
BleCharacteristic BleLocalDevice::addCharacteristic(EnumFlags<BleCharacteristicProperty> properties, const String& desc, const BleOnDataReceivedStdFunction& callback) {
    WiringBleLock lk;
    return addCharacteristic(properties, desc.c_str(), callback);
}

} /* namespace particle */
   d7050:	b510      	push	{r4, lr}
    RecursiveMutex() : handle_(nullptr)
   d7052:	4c06      	ldr	r4, [pc, #24]	; (d706c <_GLOBAL__sub_I__ZN8particle3ble13WiringBleLock6mutex_E+0x1c>)
   d7054:	2300      	movs	r3, #0
        os_mutex_recursive_create(&handle_);
   d7056:	4620      	mov	r0, r4
    RecursiveMutex() : handle_(nullptr)
   d7058:	6023      	str	r3, [r4, #0]
        os_mutex_recursive_create(&handle_);
   d705a:	f7ff fceb 	bl	d6a34 <os_mutex_recursive_create>
RecursiveMutex WiringBleLock::mutex_;
   d705e:	4620      	mov	r0, r4
   d7060:	4a03      	ldr	r2, [pc, #12]	; (d7070 <_GLOBAL__sub_I__ZN8particle3ble13WiringBleLock6mutex_E+0x20>)
   d7062:	4904      	ldr	r1, [pc, #16]	; (d7074 <_GLOBAL__sub_I__ZN8particle3ble13WiringBleLock6mutex_E+0x24>)
} /* namespace particle */
   d7064:	e8bd 4010 	ldmia.w	sp!, {r4, lr}
RecursiveMutex WiringBleLock::mutex_;
   d7068:	f002 b920 	b.w	d92ac <__aeabi_atexit>
   d706c:	2003e644 	.word	0x2003e644
   d7070:	2003e470 	.word	0x2003e470
   d7074:	000d701b 	.word	0x000d701b

000d7078 <_ZNSt15_Sp_counted_ptrIPN8particle6detail10FutureImplIbNS1_13FutureContextEEELN9__gnu_cxx12_Lock_policyE0EED1Ev>:
    class _Sp_counted_ptr final : public _Sp_counted_base<_Lp>
   d7078:	4770      	bx	lr

000d707a <_ZNSt15_Sp_counted_ptrIPN8particle6detail10FutureImplIbNS1_13FutureContextEEELN9__gnu_cxx12_Lock_policyE0EE14_M_get_deleterERKSt9type_info>:
      { return nullptr; }
   d707a:	2000      	movs	r0, #0
   d707c:	4770      	bx	lr

000d707e <_ZNSt15_Sp_counted_ptrIPN8particle6detail10FutureImplIbNS1_13FutureContextEEELN9__gnu_cxx12_Lock_policyE0EED0Ev>:
    class _Sp_counted_ptr final : public _Sp_counted_base<_Lp>
   d707e:	b510      	push	{r4, lr}
   d7080:	2110      	movs	r1, #16
   d7082:	4604      	mov	r4, r0
   d7084:	f002 f917 	bl	d92b6 <_ZdlPvj>
   d7088:	4620      	mov	r0, r4
   d708a:	bd10      	pop	{r4, pc}

000d708c <_ZNSt15_Sp_counted_ptrIPN8particle6detail10FutureImplIbNS1_13FutureContextEEELN9__gnu_cxx12_Lock_policyE0EE10_M_destroyEv>:
      _M_destroy() noexcept
   d708c:	b508      	push	{r3, lr}
      { delete this; }
   d708e:	f7ff fff6 	bl	d707e <_ZNSt15_Sp_counted_ptrIPN8particle6detail10FutureImplIbNS1_13FutureContextEEELN9__gnu_cxx12_Lock_policyE0EED0Ev>
   d7092:	bd08      	pop	{r3, pc}

000d7094 <_ZN8particle5ErrorC1EOS0_>:

inline particle::Error::Error(const Error& error) :
        Error(error.type_, error.msg_) {
}

inline particle::Error::Error(Error&& error) :
   d7094:	b530      	push	{r4, r5, lr}
        type_(type) {
   d7096:	2200      	movs	r2, #0
   d7098:	f64f 749c 	movw	r4, #65436	; 0xff9c
   d709c:	6002      	str	r2, [r0, #0]
   d709e:	8084      	strh	r4, [r0, #4]
      __a = _GLIBCXX_MOVE(__b);
   d70a0:	888d      	ldrh	r5, [r1, #4]
      __b = _GLIBCXX_MOVE(__tmp);
   d70a2:	808c      	strh	r4, [r1, #4]
      __a = _GLIBCXX_MOVE(__b);
   d70a4:	680c      	ldr	r4, [r1, #0]
   d70a6:	8085      	strh	r5, [r0, #4]
   d70a8:	6004      	str	r4, [r0, #0]
      __b = _GLIBCXX_MOVE(__tmp);
   d70aa:	600a      	str	r2, [r1, #0]
        Error() {
    swap(*this, error);
}
   d70ac:	bd30      	pop	{r4, r5, pc}

000d70ae <_ZN8particle5ErrorD1Ev>:

inline particle::Error::~Error() {
   d70ae:	b510      	push	{r4, lr}
   d70b0:	4604      	mov	r4, r0
    free((void*)msg_);
   d70b2:	6800      	ldr	r0, [r0, #0]
   d70b4:	f7ff ff62 	bl	d6f7c <free>
}
   d70b8:	4620      	mov	r0, r4
   d70ba:	bd10      	pop	{r4, pc}

000d70bc <_ZNSt15_Sp_counted_ptrIPN8particle6detail10FutureImplIbNS1_13FutureContextEEELN9__gnu_cxx12_Lock_policyE0EE10_M_disposeEv>:
      _M_dispose() noexcept
   d70bc:	b538      	push	{r3, r4, r5, lr}
      { delete _M_ptr; }
   d70be:	68c4      	ldr	r4, [r0, #12]
   d70c0:	b1f4      	cbz	r4, d7100 <_ZNSt15_Sp_counted_ptrIPN8particle6detail10FutureImplIbNS1_13FutureContextEEELN9__gnu_cxx12_Lock_policyE0EE10_M_disposeEv+0x44>
   d70c2:	7823      	ldrb	r3, [r4, #0]
    ~FutureImpl() {
        // Call destructor of the appropriate unnamed enum's field
        const State s = this->state();
        if (s == State::SUCCEEDED) {
            result_.~ResultT();
        } else if (s == State::FAILED) {
   d70c4:	2b02      	cmp	r3, #2
   d70c6:	d103      	bne.n	d70d0 <_ZNSt15_Sp_counted_ptrIPN8particle6detail10FutureImplIbNS1_13FutureContextEEELN9__gnu_cxx12_Lock_policyE0EE10_M_disposeEv+0x14>
            error_.~Error();
   d70c8:	f104 000c 	add.w	r0, r4, #12
   d70cc:	f7ff ffef 	bl	d70ae <_ZN8particle5ErrorD1Ev>
      {
	memory_order __b = __m & __memory_order_mask;
	__glibcxx_assert(__b != memory_order_release);
	__glibcxx_assert(__b != memory_order_acq_rel);

	return __atomic_load_n(&_M_p, int(__m));
   d70d0:	6865      	ldr	r5, [r4, #4]
        delete onSuccess_.load(std::memory_order_relaxed);
   d70d2:	b135      	cbz	r5, d70e2 <_ZNSt15_Sp_counted_ptrIPN8particle6detail10FutureImplIbNS1_13FutureContextEEELN9__gnu_cxx12_Lock_policyE0EE10_M_disposeEv+0x26>
    class function<_Res(_ArgTypes...)>
   d70d4:	4628      	mov	r0, r5
   d70d6:	f7fe f86d 	bl	d51b4 <_ZNSt14_Function_baseD1Ev>
   d70da:	2110      	movs	r1, #16
   d70dc:	4628      	mov	r0, r5
   d70de:	f002 f8ea 	bl	d92b6 <_ZdlPvj>
   d70e2:	68a5      	ldr	r5, [r4, #8]
        delete onError_.load(std::memory_order_relaxed);
   d70e4:	b135      	cbz	r5, d70f4 <_ZNSt15_Sp_counted_ptrIPN8particle6detail10FutureImplIbNS1_13FutureContextEEELN9__gnu_cxx12_Lock_policyE0EE10_M_disposeEv+0x38>
   d70e6:	4628      	mov	r0, r5
   d70e8:	f7fe f864 	bl	d51b4 <_ZNSt14_Function_baseD1Ev>
   d70ec:	2110      	movs	r1, #16
   d70ee:	4628      	mov	r0, r5
   d70f0:	f002 f8e1 	bl	d92b6 <_ZdlPvj>
   d70f4:	4620      	mov	r0, r4
   d70f6:	2114      	movs	r1, #20
   d70f8:	e8bd 4038 	ldmia.w	sp!, {r3, r4, r5, lr}
   d70fc:	f002 b8db 	b.w	d92b6 <_ZdlPvj>
   d7100:	bd38      	pop	{r3, r4, r5, pc}

000d7102 <_ZN8particle11PromiseBaseIbNS_6detail13FutureContextEE11fromDataPtrEPv>:
        // TODO: Use custom reference counting object to avoid unnecessary memory allocation
        return new detail::FutureImplPtr<ResultT, ContextT>(p_);
    }

    // Unwraps promise from an object pointer created via dataPtr() method
    static Promise<ResultT, ContextT> fromDataPtr(void* data) {
   d7102:	b573      	push	{r0, r1, r4, r5, r6, lr}
      __shared_ptr(const __shared_ptr&) noexcept = default;
   d7104:	460e      	mov	r6, r1
   d7106:	4604      	mov	r4, r0
   d7108:	f856 3b04 	ldr.w	r3, [r6], #4
   d710c:	9300      	str	r3, [sp, #0]
   d710e:	460d      	mov	r5, r1
   d7110:	a801      	add	r0, sp, #4
   d7112:	4631      	mov	r1, r6
   d7114:	f7fd fab2 	bl	d467c <_ZNSt14__shared_countILN9__gnu_cxx12_Lock_policyE0EEC1ERKS2_>
	_Sp_counted_base<_Lp>* __tmp = __r._M_pi;
   d7118:	9a01      	ldr	r2, [sp, #4]
	__shared_ptr(const __shared_ptr<_Yp, _Lp>& __r) noexcept
	: _M_ptr(__r._M_ptr), _M_refcount(__r._M_refcount)
	{ }

      __shared_ptr(__shared_ptr&& __r) noexcept
      : _M_ptr(__r._M_ptr), _M_refcount()
   d711a:	9b00      	ldr	r3, [sp, #0]
	_M_pi = __tmp;
   d711c:	6062      	str	r2, [r4, #4]
      : _M_ptr(__r._M_ptr), _M_refcount()
   d711e:	6023      	str	r3, [r4, #0]
      ~__shared_ptr() = default;
   d7120:	a801      	add	r0, sp, #4
	__r._M_pi = _M_pi;
   d7122:	2300      	movs	r3, #0
   d7124:	9301      	str	r3, [sp, #4]
      {
	_M_refcount._M_swap(__r._M_refcount);
	__r._M_ptr = 0;
   d7126:	9300      	str	r3, [sp, #0]
      ~__shared_ptr() = default;
   d7128:	f7fd f990 	bl	d444c <_ZNSt14__shared_countILN9__gnu_cxx12_Lock_policyE0EED1Ev>
   d712c:	4630      	mov	r0, r6
   d712e:	f7fd f98d 	bl	d444c <_ZNSt14__shared_countILN9__gnu_cxx12_Lock_policyE0EED1Ev>
        auto d = static_cast<detail::FutureImplPtr<ResultT, ContextT>*>(data);
        const Promise<ResultT, ContextT> p(*d);
        delete d;
   d7132:	4628      	mov	r0, r5
   d7134:	2108      	movs	r1, #8
   d7136:	f002 f8be 	bl	d92b6 <_ZdlPvj>
        return p;
    }
   d713a:	4620      	mov	r0, r4
   d713c:	b002      	add	sp, #8
   d713e:	bd70      	pop	{r4, r5, r6, pc}

000d7140 <_ZNKSt8functionIFvRKN8particle5ErrorEEEclES3_>:
      if (_M_empty())
   d7140:	6882      	ldr	r2, [r0, #8]
    function<_Res(_ArgTypes...)>::
   d7142:	b510      	push	{r4, lr}
      if (_M_empty())
   d7144:	b90a      	cbnz	r2, d714a <_ZNKSt8functionIFvRKN8particle5ErrorEEEclES3_+0xa>
	__throw_bad_function_call();
   d7146:	f002 f96e 	bl	d9426 <_ZSt25__throw_bad_function_callv>
    }
   d714a:	e8bd 4010 	ldmia.w	sp!, {r4, lr}
      return _M_invoker(_M_functor, std::forward<_ArgTypes>(__args)...);
   d714e:	68c3      	ldr	r3, [r0, #12]
   d7150:	4718      	bx	r3

000d7152 <_ZNSt17_Function_handlerIFvvESt5_BindIFSt8functionIFvRKN8particle5ErrorEEES4_EEE9_M_invokeERKSt9_Any_data>:
      _M_invoke(const _Any_data& __functor, _ArgTypes&&... __args)
   d7152:	b508      	push	{r3, lr}
	    return __source._M_access<_Functor*>();
   d7154:	6800      	ldr	r0, [r0, #0]
    { return static_cast<_Up&&>(__t); }

  template<typename _Res, typename _Fn, typename... _Args>
    constexpr _Res
    __invoke_impl(__invoke_other, _Fn&& __f, _Args&&... __args)
    { return std::forward<_Fn>(__f)(std::forward<_Args>(__args)...); }
   d7156:	f100 0110 	add.w	r1, r0, #16
   d715a:	f7ff fff1 	bl	d7140 <_ZNKSt8functionIFvRKN8particle5ErrorEEEclES3_>
      }
   d715e:	bd08      	pop	{r3, pc}

000d7160 <_ZNKSt8functionIFvRKbEEclES1_>:
      if (_M_empty())
   d7160:	6882      	ldr	r2, [r0, #8]
    function<_Res(_ArgTypes...)>::
   d7162:	b510      	push	{r4, lr}
      if (_M_empty())
   d7164:	b90a      	cbnz	r2, d716a <_ZNKSt8functionIFvRKbEEclES1_+0xa>
	__throw_bad_function_call();
   d7166:	f002 f95e 	bl	d9426 <_ZSt25__throw_bad_function_callv>
    }
   d716a:	e8bd 4010 	ldmia.w	sp!, {r4, lr}
      return _M_invoker(_M_functor, std::forward<_ArgTypes>(__args)...);
   d716e:	68c3      	ldr	r3, [r0, #12]
   d7170:	4718      	bx	r3

000d7172 <_ZNSt17_Function_handlerIFvvESt5_BindIFSt8functionIFvRKbEEbEEE9_M_invokeERKSt9_Any_data>:
      _M_invoke(const _Any_data& __functor, _ArgTypes&&... __args)
   d7172:	b508      	push	{r3, lr}
	    return __source._M_access<_Functor*>();
   d7174:	6800      	ldr	r0, [r0, #0]
   d7176:	f100 0110 	add.w	r1, r0, #16
   d717a:	f7ff fff1 	bl	d7160 <_ZNKSt8functionIFvRKbEEclES1_>
      }
   d717e:	bd08      	pop	{r3, pc}

000d7180 <_ZNSt14__shared_countILN9__gnu_cxx12_Lock_policyE0EEC1IPN8particle6detail10FutureImplIbNS5_13FutureContextEEEEET_>:
	__shared_count(_Ptr __p) : _M_pi(0)
   d7180:	b538      	push	{r3, r4, r5, lr}
   d7182:	2300      	movs	r3, #0
   d7184:	4604      	mov	r4, r0
   d7186:	6003      	str	r3, [r0, #0]
	      _M_pi = new _Sp_counted_ptr<_Ptr, _Lp>(__p);
   d7188:	2010      	movs	r0, #16
	__shared_count(_Ptr __p) : _M_pi(0)
   d718a:	460d      	mov	r5, r1
	      _M_pi = new _Sp_counted_ptr<_Ptr, _Lp>(__p);
   d718c:	f7fc ff83 	bl	d4096 <_Znwj>
   d7190:	b128      	cbz	r0, d719e <_ZNSt14__shared_countILN9__gnu_cxx12_Lock_policyE0EEC1IPN8particle6detail10FutureImplIbNS5_13FutureContextEEEEET_+0x1e>
      : _M_use_count(1), _M_weak_count(1) { }
   d7192:	2301      	movs	r3, #1
   d7194:	e9c0 3301 	strd	r3, r3, [r0, #4]
      : _M_ptr(__p) { }
   d7198:	4b02      	ldr	r3, [pc, #8]	; (d71a4 <_ZNSt14__shared_countILN9__gnu_cxx12_Lock_policyE0EEC1IPN8particle6detail10FutureImplIbNS5_13FutureContextEEEEET_+0x24>)
   d719a:	6003      	str	r3, [r0, #0]
   d719c:	60c5      	str	r5, [r0, #12]
	      _M_pi = new _Sp_counted_ptr<_Ptr, _Lp>(__p);
   d719e:	6020      	str	r0, [r4, #0]
	}
   d71a0:	4620      	mov	r0, r4
   d71a2:	bd38      	pop	{r3, r4, r5, pc}
   d71a4:	000dcae0 	.word	0x000dcae0

000d71a8 <_ZNSt8functionIFvRKN8particle5ErrorEEEC1ERKS5_>:
    function<_Res(_ArgTypes...)>::
   d71a8:	b538      	push	{r3, r4, r5, lr}
    _Function_base() : _M_manager(nullptr) { }
   d71aa:	2300      	movs	r3, #0
   d71ac:	6083      	str	r3, [r0, #8]
      { return !_M_empty(); }
   d71ae:	688b      	ldr	r3, [r1, #8]
    function<_Res(_ArgTypes...)>::
   d71b0:	4604      	mov	r4, r0
   d71b2:	460d      	mov	r5, r1
      if (static_cast<bool>(__x))
   d71b4:	b12b      	cbz	r3, d71c2 <_ZNSt8functionIFvRKN8particle5ErrorEEEC1ERKS5_+0x1a>
	  __x._M_manager(_M_functor, __x._M_functor, __clone_functor);
   d71b6:	2202      	movs	r2, #2
   d71b8:	4798      	blx	r3
	  _M_invoker = __x._M_invoker;
   d71ba:	68eb      	ldr	r3, [r5, #12]
   d71bc:	60e3      	str	r3, [r4, #12]
	  _M_manager = __x._M_manager;
   d71be:	68ab      	ldr	r3, [r5, #8]
   d71c0:	60a3      	str	r3, [r4, #8]
    }
   d71c2:	4620      	mov	r0, r4
   d71c4:	bd38      	pop	{r3, r4, r5, pc}
	...

000d71c8 <_ZN8particle11PromiseBaseIbNS_6detail13FutureContextEE8setErrorENS_5ErrorE>:
    void setError(Error error) {
   d71c8:	b5f0      	push	{r4, r5, r6, r7, lr}
   d71ca:	b089      	sub	sp, #36	; 0x24
      { return static_cast<const __shared_ptr<_Tp, _Lp>*>(this)->get(); }
   d71cc:	6804      	ldr	r4, [r0, #0]
        p_->setError(std::move(error));
   d71ce:	4668      	mov	r0, sp
   d71d0:	f7ff ff60 	bl	d7094 <_ZN8particle5ErrorC1EOS0_>

      bool
      compare_exchange_strong(_Tp& __e, _Tp __i, memory_order __s,
			      memory_order __f) noexcept
      {
	return __atomic_compare_exchange(std::__addressof(_M_i),
   d71d4:	f04f 0302 	mov.w	r3, #2
   d71d8:	e8d4 2f4f 	ldrexb	r2, [r4]
   d71dc:	2a00      	cmp	r2, #0
   d71de:	d103      	bne.n	d71e8 <_ZN8particle11PromiseBaseIbNS_6detail13FutureContextEE8setErrorENS_5ErrorE+0x20>
   d71e0:	e8c4 3f41 	strexb	r1, r3, [r4]
   d71e4:	2900      	cmp	r1, #0
   d71e6:	d1f7      	bne.n	d71d8 <_ZN8particle11PromiseBaseIbNS_6detail13FutureContextEE8setErrorENS_5ErrorE+0x10>
        if (this->changeState(State::FAILED)) {
   d71e8:	d125      	bne.n	d7236 <_ZN8particle11PromiseBaseIbNS_6detail13FutureContextEE8setErrorENS_5ErrorE+0x6e>
            new(&error_) Error(std::move(error));
   d71ea:	f104 050c 	add.w	r5, r4, #12
   d71ee:	4669      	mov	r1, sp
   d71f0:	4628      	mov	r0, r5
   d71f2:	f7ff ff4f 	bl	d7094 <_ZN8particle5ErrorC1EOS0_>
	__atomic_store_n(&_M_i, __i, int(__m));
   d71f6:	f3bf 8f5b 	dmb	ish
   d71fa:	2301      	movs	r3, #1
   d71fc:	7063      	strb	r3, [r4, #1]

      _GLIBCXX_ALWAYS_INLINE __pointer_type
      exchange(__pointer_type __p,
	       memory_order __m = memory_order_seq_cst) noexcept
      {
	return __atomic_exchange_n(&_M_p, __p, int(__m));
   d71fe:	2000      	movs	r0, #0
   d7200:	f104 0308 	add.w	r3, r4, #8
   d7204:	f3bf 8f5b 	dmb	ish
   d7208:	e853 6f00 	ldrex	r6, [r3]
   d720c:	e843 0200 	strex	r2, r0, [r3]
   d7210:	2a00      	cmp	r2, #0
   d7212:	d1f9      	bne.n	d7208 <_ZN8particle11PromiseBaseIbNS_6detail13FutureContextEE8setErrorENS_5ErrorE+0x40>
   d7214:	f3bf 8f5b 	dmb	ish
        if (callbackPtr) {
   d7218:	b16e      	cbz	r6, d7236 <_ZN8particle11PromiseBaseIbNS_6detail13FutureContextEE8setErrorENS_5ErrorE+0x6e>
        return (application_thread_current(nullptr) != 0);
   d721a:	f7ff fdf3 	bl	d6e04 <application_thread_current>
        if (ContextT::isApplicationThreadCurrent()) {
   d721e:	b178      	cbz	r0, d7240 <_ZN8particle11PromiseBaseIbNS_6detail13FutureContextEE8setErrorENS_5ErrorE+0x78>
            callback(std::forward<ArgsT>(args)...); // Synchronous call
   d7220:	4629      	mov	r1, r5
   d7222:	4630      	mov	r0, r6
   d7224:	f7ff ff8c 	bl	d7140 <_ZNKSt8functionIFvRKN8particle5ErrorEEEclES3_>
    class function<_Res(_ArgTypes...)>
   d7228:	4630      	mov	r0, r6
   d722a:	f7fd ffc3 	bl	d51b4 <_ZNSt14_Function_baseD1Ev>
            delete callbackPtr;
   d722e:	2110      	movs	r1, #16
   d7230:	4630      	mov	r0, r6
   d7232:	f002 f840 	bl	d92b6 <_ZdlPvj>
        p_->setError(std::move(error));
   d7236:	4668      	mov	r0, sp
   d7238:	f7ff ff39 	bl	d70ae <_ZN8particle5ErrorD1Ev>
    }
   d723c:	b009      	add	sp, #36	; 0x24
   d723e:	bdf0      	pop	{r4, r5, r6, r7, pc}
	  typename __cv_quals<_Bound_args>::type...>;

     public:
      template<typename... _Args>
	explicit _Bind(const _Functor& __f, _Args&&... __args)
	: _M_f(__f), _M_bound_args(std::forward<_Args>(__args)...)
   d7240:	4631      	mov	r1, r6
   d7242:	a802      	add	r0, sp, #8
   d7244:	f7ff ffb0 	bl	d71a8 <_ZNSt8functionIFvRKN8particle5ErrorEEEC1ERKS5_>
        Error(error.type_, error.msg_) {
   d7248:	68e0      	ldr	r0, [r4, #12]
   d724a:	f9b4 5010 	ldrsh.w	r5, [r4, #16]
        msg_(msg ? (const char*)strdup(msg) : nullptr),
   d724e:	b108      	cbz	r0, d7254 <_ZN8particle11PromiseBaseIbNS_6detail13FutureContextEE8setErrorENS_5ErrorE+0x8c>
   d7250:	f003 f904 	bl	da45c <strdup>
        type_(type) {
   d7254:	9006      	str	r0, [sp, #24]
            auto callbackPtr = new std::function<void()>(std::bind(callback, std::forward<ArgsT>(args)...));
   d7256:	2010      	movs	r0, #16
   d7258:	f8ad 501c 	strh.w	r5, [sp, #28]
   d725c:	f7fc ff1b 	bl	d4096 <_Znwj>
   d7260:	4605      	mov	r5, r0
   d7262:	b1e8      	cbz	r0, d72a0 <_ZN8particle11PromiseBaseIbNS_6detail13FutureContextEE8setErrorENS_5ErrorE+0xd8>
    _Function_base() : _M_manager(nullptr) { }
   d7264:	2700      	movs	r7, #0
   d7266:	6087      	str	r7, [r0, #8]
	{ __functor._M_access<_Functor*>() = new _Functor(std::move(__f)); }
   d7268:	2018      	movs	r0, #24
   d726a:	f7fc ff14 	bl	d4096 <_Znwj>
   d726e:	4604      	mov	r4, r0
   d7270:	b188      	cbz	r0, d7296 <_ZN8particle11PromiseBaseIbNS_6detail13FutureContextEE8setErrorENS_5ErrorE+0xce>
	std::swap(_M_functor, __x._M_functor);
   d7272:	4601      	mov	r1, r0
    _Function_base() : _M_manager(nullptr) { }
   d7274:	6087      	str	r7, [r0, #8]
	std::swap(_M_functor, __x._M_functor);
   d7276:	a802      	add	r0, sp, #8
   d7278:	f7ff fed7 	bl	d702a <_ZSt4swapISt9_Any_dataENSt9enable_ifIXsrSt6__and_IJSt6__not_ISt15__is_tuple_likeIT_EESt21is_move_constructibleIS5_ESt18is_move_assignableIS5_EEE5valueEvE4typeERS5_SF_>
      _Tp __tmp = _GLIBCXX_MOVE(__a);
   d727c:	9b04      	ldr	r3, [sp, #16]
      __a = _GLIBCXX_MOVE(__b);
   d727e:	68a2      	ldr	r2, [r4, #8]
      __b = _GLIBCXX_MOVE(__tmp);
   d7280:	60a3      	str	r3, [r4, #8]
      _Tp __tmp = _GLIBCXX_MOVE(__a);
   d7282:	9b05      	ldr	r3, [sp, #20]
      __a = _GLIBCXX_MOVE(__b);
   d7284:	9204      	str	r2, [sp, #16]
	: _M_head_impl(std::forward<_UHead>(__h)) { }
   d7286:	a906      	add	r1, sp, #24
   d7288:	68e2      	ldr	r2, [r4, #12]
      __b = _GLIBCXX_MOVE(__tmp);
   d728a:	60e3      	str	r3, [r4, #12]
   d728c:	f104 0010 	add.w	r0, r4, #16
      __a = _GLIBCXX_MOVE(__b);
   d7290:	9205      	str	r2, [sp, #20]
   d7292:	f7ff feff 	bl	d7094 <_ZN8particle5ErrorC1EOS0_>
	    _M_invoker = &_My_handler::_M_invoke;
   d7296:	4b08      	ldr	r3, [pc, #32]	; (d72b8 <_ZN8particle11PromiseBaseIbNS_6detail13FutureContextEE8setErrorENS_5ErrorE+0xf0>)
   d7298:	60eb      	str	r3, [r5, #12]
	    _M_manager = &_My_handler::_M_manager;
   d729a:	4b08      	ldr	r3, [pc, #32]	; (d72bc <_ZN8particle11PromiseBaseIbNS_6detail13FutureContextEE8setErrorENS_5ErrorE+0xf4>)
	{ __functor._M_access<_Functor*>() = new _Functor(std::move(__f)); }
   d729c:	602c      	str	r4, [r5, #0]
	    _M_manager = &_My_handler::_M_manager;
   d729e:	60ab      	str	r3, [r5, #8]
    struct _Head_base<_Idx, _Head, false>
   d72a0:	a806      	add	r0, sp, #24
   d72a2:	f7ff ff04 	bl	d70ae <_ZN8particle5ErrorD1Ev>
    class function<_Res(_ArgTypes...)>
   d72a6:	a802      	add	r0, sp, #8
   d72a8:	f7fd ff84 	bl	d51b4 <_ZNSt14_Function_baseD1Ev>
        return (application_thread_invoke(callback, data, nullptr) == 0);
   d72ac:	2200      	movs	r2, #0
   d72ae:	4629      	mov	r1, r5
   d72b0:	4803      	ldr	r0, [pc, #12]	; (d72c0 <_ZN8particle11PromiseBaseIbNS_6detail13FutureContextEE8setErrorENS_5ErrorE+0xf8>)
   d72b2:	f7ff fdaf 	bl	d6e14 <application_thread_invoke>
   d72b6:	e7b7      	b.n	d7228 <_ZN8particle11PromiseBaseIbNS_6detail13FutureContextEE8setErrorENS_5ErrorE+0x60>
   d72b8:	000d7153 	.word	0x000d7153
   d72bc:	000d73e9 	.word	0x000d73e9
   d72c0:	000d6ff3 	.word	0x000d6ff3

000d72c4 <_ZN10CloudClass13publish_eventEPKcS1_iN8particle5FlagsI15PublishFlagTypehEE>:
    desc.data = (void*)data;
    desc.funcKey = funcKey;
    return spark_function(NULL, (user_function_int_str_t*)&desc, NULL);
}

Future<bool> CloudClass::publish_event(const char *eventName, const char *eventData, int ttl, PublishFlags flags) {
   d72c4:	e92d 47f0 	stmdb	sp!, {r4, r5, r6, r7, r8, r9, sl, lr}
   d72c8:	b08a      	sub	sp, #40	; 0x28
   d72ca:	4605      	mov	r5, r0
   d72cc:	f89d 9048 	ldrb.w	r9, [sp, #72]	; 0x48
   d72d0:	460c      	mov	r4, r1
   d72d2:	4617      	mov	r7, r2
   d72d4:	4698      	mov	r8, r3
    static void sleep(Spark_Sleep_TypeDef sleepMode, long seconds=0) __attribute__ ((deprecated("Please use System.sleep() instead.")))
    { SystemClass::sleep(sleepMode, seconds); }
    static void sleep(uint16_t wakeUpPin, InterruptMode edgeTriggerMode, long seconds=0) __attribute__ ((deprecated("Please use System.sleep() instead.")))
    { SystemClass::sleep(wakeUpPin, edgeTriggerMode, seconds); }

    static bool connected(void) { return spark_cloud_flag_connected(); }
   d72d6:	f7ff fdc1 	bl	d6e5c <spark_cloud_flag_connected>
   d72da:	ae07      	add	r6, sp, #28
    if (!connected()) {
   d72dc:	4682      	mov	sl, r0
   d72de:	bb38      	cbnz	r0, d7330 <_ZN10CloudClass13publish_eventEPKcS1_iN8particle5FlagsI15PublishFlagTypehEE+0x6c>
        type_(type) {
   d72e0:	f64f 732e 	movw	r3, #65326	; 0xff2e
   d72e4:	9005      	str	r0, [sp, #20]
    typedef typename detail::FutureImpl<ResultT, ContextT>::OnSuccessCallback OnSuccessCallback;
    typedef typename detail::FutureImpl<ResultT, ContextT>::OnErrorCallback OnErrorCallback;

    // Construct failed future
    explicit FutureBase(Error error) :
            p_(new detail::FutureImpl<ResultT, ContextT>(std::move(error))) {
   d72e6:	a905      	add	r1, sp, #20
   d72e8:	4630      	mov	r0, r6
   d72ea:	f8ad 3018 	strh.w	r3, [sp, #24]
   d72ee:	f7ff fed1 	bl	d7094 <_ZN8particle5ErrorC1EOS0_>
   d72f2:	2014      	movs	r0, #20
   d72f4:	f7fc fecf 	bl	d4096 <_Znwj>
   d72f8:	4604      	mov	r4, r0
   d72fa:	b148      	cbz	r0, d7310 <_ZN10CloudClass13publish_eventEPKcS1_iN8particle5FlagsI15PublishFlagTypehEE+0x4c>
      constexpr atomic(_Tp __i) noexcept : _M_i(__i) { }
   d72fc:	2302      	movs	r3, #2
   d72fe:	7003      	strb	r3, [r0, #0]
      constexpr __atomic_base(__int_type __i) noexcept : _M_i (__i) { }
   d7300:	2301      	movs	r3, #1
      constexpr __atomic_base(__pointer_type __p) noexcept : _M_p (__p) { }
   d7302:	e9c0 aa01 	strd	sl, sl, [r0, #4]
      constexpr __atomic_base(__int_type __i) noexcept : _M_i (__i) { }
   d7306:	7043      	strb	r3, [r0, #1]
            error_(std::move(error)) {
   d7308:	4631      	mov	r1, r6
   d730a:	300c      	adds	r0, #12
   d730c:	f7ff fec2 	bl	d7094 <_ZN8particle5ErrorC1EOS0_>
	: _M_ptr(__p), _M_refcount(__p, typename is_array<_Tp>::type())
   d7310:	4628      	mov	r0, r5
	: __shared_count(__p)
   d7312:	4621      	mov	r1, r4
	: _M_ptr(__p), _M_refcount(__p, typename is_array<_Tp>::type())
   d7314:	f840 4b04 	str.w	r4, [r0], #4
	: __shared_count(__p)
   d7318:	f7ff ff32 	bl	d7180 <_ZNSt14__shared_countILN9__gnu_cxx12_Lock_policyE0EEC1IPN8particle6detail10FutureImplIbNS5_13FutureContextEEEEET_>
            p_(new detail::FutureImpl<ResultT, ContextT>(std::move(error))) {
   d731c:	4630      	mov	r0, r6
   d731e:	f7ff fec6 	bl	d70ae <_ZN8particle5ErrorD1Ev>
    }

    explicit FutureBase(Error::Type error) :
            FutureBase(Error(error)) {
   d7322:	a805      	add	r0, sp, #20
   d7324:	f7ff fec3 	bl	d70ae <_ZN8particle5ErrorD1Ev>
        p.setError(Error::UNKNOWN);
        p.fromDataPtr(d.handler_data); // Free wrapper object
    }

    return p.future();
}
   d7328:	4628      	mov	r0, r5
   d732a:	b00a      	add	sp, #40	; 0x28
   d732c:	e8bd 87f0 	ldmia.w	sp!, {r4, r5, r6, r7, r8, r9, sl, pc}
    spark_send_event_data d = { sizeof(spark_send_event_data) };
   d7330:	230c      	movs	r3, #12
   d7332:	f04f 0a00 	mov.w	sl, #0
            p_(new detail::FutureImpl<ResultT, ContextT>(State::RUNNING)) {
   d7336:	2014      	movs	r0, #20
   d7338:	e9cd aa08 	strd	sl, sl, [sp, #32]
   d733c:	9307      	str	r3, [sp, #28]
   d733e:	f7fc feaa 	bl	d4096 <_Znwj>
   d7342:	4601      	mov	r1, r0
   d7344:	b128      	cbz	r0, d7352 <_ZN10CloudClass13publish_eventEPKcS1_iN8particle5FlagsI15PublishFlagTypehEE+0x8e>
      constexpr __atomic_base(__pointer_type __p) noexcept : _M_p (__p) { }
   d7346:	e9c0 aa01 	strd	sl, sl, [r0, #4]
   d734a:	f880 a000 	strb.w	sl, [r0]
      constexpr __atomic_base(__int_type __i) noexcept : _M_i (__i) { }
   d734e:	f880 a001 	strb.w	sl, [r0, #1]
   d7352:	a804      	add	r0, sp, #16
	: _M_ptr(__p), _M_refcount(__p, typename is_array<_Tp>::type())
   d7354:	9103      	str	r1, [sp, #12]
	: __shared_count(__p)
   d7356:	f7ff ff13 	bl	d7180 <_ZNSt14__shared_countILN9__gnu_cxx12_Lock_policyE0EEC1IPN8particle6detail10FutureImplIbNS5_13FutureContextEEEEET_>
    d.handler_callback = publishCompletionCallback;
   d735a:	4b22      	ldr	r3, [pc, #136]	; (d73e4 <_ZN10CloudClass13publish_eventEPKcS1_iN8particle5FlagsI15PublishFlagTypehEE+0x120>)
   d735c:	9308      	str	r3, [sp, #32]
        return new detail::FutureImplPtr<ResultT, ContextT>(p_);
   d735e:	2008      	movs	r0, #8
   d7360:	f7fc fe99 	bl	d4096 <_Znwj>
   d7364:	4682      	mov	sl, r0
   d7366:	b128      	cbz	r0, d7374 <_ZN10CloudClass13publish_eventEPKcS1_iN8particle5FlagsI15PublishFlagTypehEE+0xb0>
      __shared_ptr(const __shared_ptr&) noexcept = default;
   d7368:	9b03      	ldr	r3, [sp, #12]
   d736a:	f840 3b04 	str.w	r3, [r0], #4
   d736e:	a904      	add	r1, sp, #16
   d7370:	f7fd f984 	bl	d467c <_ZNSt14__shared_countILN9__gnu_cxx12_Lock_policyE0EEC1ERKS2_>
    if (!spark_send_event(eventName, eventData, ttl, flags.value(), &d) && !p.isDone()) {
   d7374:	9600      	str	r6, [sp, #0]
   d7376:	fa5f f389 	uxtb.w	r3, r9
   d737a:	4642      	mov	r2, r8
   d737c:	4639      	mov	r1, r7
   d737e:	4620      	mov	r0, r4
    d.handler_data = p.dataPtr();
   d7380:	f8cd a024 	str.w	sl, [sp, #36]	; 0x24
    if (!spark_send_event(eventName, eventData, ttl, flags.value(), &d) && !p.isDone()) {
   d7384:	f7ff fd7a 	bl	d6e7c <spark_send_event>
   d7388:	b9b8      	cbnz	r0, d73ba <_ZN10CloudClass13publish_eventEPKcS1_iN8particle5FlagsI15PublishFlagTypehEE+0xf6>
	return __atomic_load_n(&_M_i, int(__m));
   d738a:	9b03      	ldr	r3, [sp, #12]
   d738c:	785b      	ldrb	r3, [r3, #1]
   d738e:	f003 02ff 	and.w	r2, r3, #255	; 0xff
   d7392:	b993      	cbnz	r3, d73ba <_ZN10CloudClass13publish_eventEPKcS1_iN8particle5FlagsI15PublishFlagTypehEE+0xf6>
   d7394:	f64f 739c 	movw	r3, #65436	; 0xff9c
        p.setError(Error::UNKNOWN);
   d7398:	a905      	add	r1, sp, #20
   d739a:	a803      	add	r0, sp, #12
   d739c:	9205      	str	r2, [sp, #20]
   d739e:	f8ad 3018 	strh.w	r3, [sp, #24]
   d73a2:	f7ff ff11 	bl	d71c8 <_ZN8particle11PromiseBaseIbNS_6detail13FutureContextEE8setErrorENS_5ErrorE>
   d73a6:	a805      	add	r0, sp, #20
   d73a8:	f7ff fe81 	bl	d70ae <_ZN8particle5ErrorD1Ev>
        p.fromDataPtr(d.handler_data); // Free wrapper object
   d73ac:	a805      	add	r0, sp, #20
   d73ae:	9909      	ldr	r1, [sp, #36]	; 0x24
   d73b0:	f7ff fea7 	bl	d7102 <_ZN8particle11PromiseBaseIbNS_6detail13FutureContextEE11fromDataPtrEPv>
      ~__shared_ptr() = default;
   d73b4:	a806      	add	r0, sp, #24
   d73b6:	f7fd f849 	bl	d444c <_ZNSt14__shared_countILN9__gnu_cxx12_Lock_policyE0EED1Ev>
      __shared_ptr(const __shared_ptr&) noexcept = default;
   d73ba:	9b03      	ldr	r3, [sp, #12]
   d73bc:	9305      	str	r3, [sp, #20]
   d73be:	a904      	add	r1, sp, #16
   d73c0:	a806      	add	r0, sp, #24
   d73c2:	f7fd f95b 	bl	d467c <_ZNSt14__shared_countILN9__gnu_cxx12_Lock_policyE0EEC1ERKS2_>
      : _M_ptr(__r._M_ptr), _M_refcount()
   d73c6:	9b05      	ldr	r3, [sp, #20]
	_Sp_counted_base<_Lp>* __tmp = __r._M_pi;
   d73c8:	9a06      	ldr	r2, [sp, #24]
      : _M_ptr(__r._M_ptr), _M_refcount()
   d73ca:	602b      	str	r3, [r5, #0]
	_M_pi = __tmp;
   d73cc:	606a      	str	r2, [r5, #4]
	__r._M_pi = _M_pi;
   d73ce:	2300      	movs	r3, #0
      ~__shared_ptr() = default;
   d73d0:	a806      	add	r0, sp, #24
	__r._M_pi = _M_pi;
   d73d2:	9306      	str	r3, [sp, #24]
	__r._M_ptr = 0;
   d73d4:	9305      	str	r3, [sp, #20]
      ~__shared_ptr() = default;
   d73d6:	f7fd f839 	bl	d444c <_ZNSt14__shared_countILN9__gnu_cxx12_Lock_policyE0EED1Ev>
   d73da:	a804      	add	r0, sp, #16
   d73dc:	f7fd f836 	bl	d444c <_ZNSt14__shared_countILN9__gnu_cxx12_Lock_policyE0EED1Ev>
class Promise: public PromiseBase<ResultT, ContextT> {
   d73e0:	e7a2      	b.n	d7328 <_ZN10CloudClass13publish_eventEPKcS1_iN8particle5FlagsI15PublishFlagTypehEE+0x64>
   d73e2:	bf00      	nop
   d73e4:	000d74ad 	.word	0x000d74ad

000d73e8 <_ZNSt14_Function_base13_Base_managerISt5_BindIFSt8functionIFvRKN8particle5ErrorEEES4_EEE10_M_managerERSt9_Any_dataRKSC_St18_Manager_operation>:
	  switch (__op)
   d73e8:	2a02      	cmp	r2, #2
	_M_manager(_Any_data& __dest, const _Any_data& __source,
   d73ea:	b5f8      	push	{r3, r4, r5, r6, r7, lr}
   d73ec:	4605      	mov	r5, r0
	  switch (__op)
   d73ee:	d007      	beq.n	d7400 <_ZNSt14_Function_base13_Base_managerISt5_BindIFSt8functionIFvRKN8particle5ErrorEEES4_EEE10_M_managerERSt9_Any_dataRKSC_St18_Manager_operation+0x18>
   d73f0:	2a03      	cmp	r2, #3
   d73f2:	d018      	beq.n	d7426 <_ZNSt14_Function_base13_Base_managerISt5_BindIFSt8functionIFvRKN8particle5ErrorEEES4_EEE10_M_managerERSt9_Any_dataRKSC_St18_Manager_operation+0x3e>
   d73f4:	2a01      	cmp	r2, #1
   d73f6:	d101      	bne.n	d73fc <_ZNSt14_Function_base13_Base_managerISt5_BindIFSt8functionIFvRKN8particle5ErrorEEES4_EEE10_M_managerERSt9_Any_dataRKSC_St18_Manager_operation+0x14>
	    return __source._M_access<_Functor*>();
   d73f8:	680b      	ldr	r3, [r1, #0]
	      __dest._M_access<_Functor*>() = _M_get_pointer(__source);
   d73fa:	6003      	str	r3, [r0, #0]
	}
   d73fc:	2000      	movs	r0, #0
   d73fe:	bdf8      	pop	{r3, r4, r5, r6, r7, pc}
	    new _Functor(*__source._M_access<const _Functor*>());
   d7400:	2018      	movs	r0, #24
	  __dest._M_access<_Functor*>() =
   d7402:	680e      	ldr	r6, [r1, #0]
	    new _Functor(*__source._M_access<const _Functor*>());
   d7404:	f7fc fe47 	bl	d4096 <_Znwj>
   d7408:	4604      	mov	r4, r0
   d740a:	b150      	cbz	r0, d7422 <_ZNSt14_Function_base13_Base_managerISt5_BindIFSt8functionIFvRKN8particle5ErrorEEES4_EEE10_M_managerERSt9_Any_dataRKSC_St18_Manager_operation+0x3a>
      template<typename... _Args>
	explicit _Bind(_Functor&& __f, _Args&&... __args)
	: _M_f(std::move(__f)), _M_bound_args(std::forward<_Args>(__args)...)
	{ }

      _Bind(const _Bind&) = default;
   d740c:	4631      	mov	r1, r6
   d740e:	f7ff fecb 	bl	d71a8 <_ZNSt8functionIFvRKN8particle5ErrorEEEC1ERKS5_>
        Error(error.type_, error.msg_) {
   d7412:	6930      	ldr	r0, [r6, #16]
   d7414:	f9b6 7014 	ldrsh.w	r7, [r6, #20]
        msg_(msg ? (const char*)strdup(msg) : nullptr),
   d7418:	b108      	cbz	r0, d741e <_ZNSt14_Function_base13_Base_managerISt5_BindIFSt8functionIFvRKN8particle5ErrorEEES4_EEE10_M_managerERSt9_Any_dataRKSC_St18_Manager_operation+0x36>
   d741a:	f003 f81f 	bl	da45c <strdup>
        type_(type) {
   d741e:	6120      	str	r0, [r4, #16]
   d7420:	82a7      	strh	r7, [r4, #20]
	  __dest._M_access<_Functor*>() =
   d7422:	602c      	str	r4, [r5, #0]
	}
   d7424:	e7ea      	b.n	d73fc <_ZNSt14_Function_base13_Base_managerISt5_BindIFSt8functionIFvRKN8particle5ErrorEEES4_EEE10_M_managerERSt9_Any_dataRKSC_St18_Manager_operation+0x14>
	  delete __victim._M_access<_Functor*>();
   d7426:	6804      	ldr	r4, [r0, #0]
   d7428:	2c00      	cmp	r4, #0
   d742a:	d0e7      	beq.n	d73fc <_ZNSt14_Function_base13_Base_managerISt5_BindIFSt8functionIFvRKN8particle5ErrorEEES4_EEE10_M_managerERSt9_Any_dataRKSC_St18_Manager_operation+0x14>
   d742c:	f104 0010 	add.w	r0, r4, #16
   d7430:	f7ff fe3d 	bl	d70ae <_ZN8particle5ErrorD1Ev>
    class function<_Res(_ArgTypes...)>
   d7434:	4620      	mov	r0, r4
   d7436:	f7fd febd 	bl	d51b4 <_ZNSt14_Function_baseD1Ev>
	  delete __victim._M_access<_Functor*>();
   d743a:	2118      	movs	r1, #24
   d743c:	4620      	mov	r0, r4
   d743e:	f001 ff3a 	bl	d92b6 <_ZdlPvj>
   d7442:	e7db      	b.n	d73fc <_ZNSt14_Function_base13_Base_managerISt5_BindIFSt8functionIFvRKN8particle5ErrorEEES4_EEE10_M_managerERSt9_Any_dataRKSC_St18_Manager_operation+0x14>

000d7444 <_ZNSt8functionIFvRKbEEC1ERKS3_>:
    function<_Res(_ArgTypes...)>::
   d7444:	b538      	push	{r3, r4, r5, lr}
    _Function_base() : _M_manager(nullptr) { }
   d7446:	2300      	movs	r3, #0
   d7448:	6083      	str	r3, [r0, #8]
      { return !_M_empty(); }
   d744a:	688b      	ldr	r3, [r1, #8]
    function<_Res(_ArgTypes...)>::
   d744c:	4604      	mov	r4, r0
   d744e:	460d      	mov	r5, r1
      if (static_cast<bool>(__x))
   d7450:	b12b      	cbz	r3, d745e <_ZNSt8functionIFvRKbEEC1ERKS3_+0x1a>
	  __x._M_manager(_M_functor, __x._M_functor, __clone_functor);
   d7452:	2202      	movs	r2, #2
   d7454:	4798      	blx	r3
	  _M_invoker = __x._M_invoker;
   d7456:	68eb      	ldr	r3, [r5, #12]
   d7458:	60e3      	str	r3, [r4, #12]
	  _M_manager = __x._M_manager;
   d745a:	68ab      	ldr	r3, [r5, #8]
   d745c:	60a3      	str	r3, [r4, #8]
    }
   d745e:	4620      	mov	r0, r4
   d7460:	bd38      	pop	{r3, r4, r5, pc}

000d7462 <_ZNSt14_Function_base13_Base_managerISt5_BindIFSt8functionIFvRKbEEbEEE10_M_managerERSt9_Any_dataRKSA_St18_Manager_operation>:
	  switch (__op)
   d7462:	2a02      	cmp	r2, #2
	_M_manager(_Any_data& __dest, const _Any_data& __source,
   d7464:	b570      	push	{r4, r5, r6, lr}
   d7466:	4604      	mov	r4, r0
	  switch (__op)
   d7468:	d007      	beq.n	d747a <_ZNSt14_Function_base13_Base_managerISt5_BindIFSt8functionIFvRKbEEbEEE10_M_managerERSt9_Any_dataRKSA_St18_Manager_operation+0x18>
   d746a:	2a03      	cmp	r2, #3
   d746c:	d012      	beq.n	d7494 <_ZNSt14_Function_base13_Base_managerISt5_BindIFSt8functionIFvRKbEEbEEE10_M_managerERSt9_Any_dataRKSA_St18_Manager_operation+0x32>
   d746e:	2a01      	cmp	r2, #1
   d7470:	d101      	bne.n	d7476 <_ZNSt14_Function_base13_Base_managerISt5_BindIFSt8functionIFvRKbEEbEEE10_M_managerERSt9_Any_dataRKSA_St18_Manager_operation+0x14>
	    return __source._M_access<_Functor*>();
   d7472:	680b      	ldr	r3, [r1, #0]
	      __dest._M_access<_Functor*>() = _M_get_pointer(__source);
   d7474:	6003      	str	r3, [r0, #0]
	}
   d7476:	2000      	movs	r0, #0
   d7478:	bd70      	pop	{r4, r5, r6, pc}
	    new _Functor(*__source._M_access<const _Functor*>());
   d747a:	2014      	movs	r0, #20
	  __dest._M_access<_Functor*>() =
   d747c:	680e      	ldr	r6, [r1, #0]
	    new _Functor(*__source._M_access<const _Functor*>());
   d747e:	f7fc fe0a 	bl	d4096 <_Znwj>
   d7482:	4605      	mov	r5, r0
   d7484:	b120      	cbz	r0, d7490 <_ZNSt14_Function_base13_Base_managerISt5_BindIFSt8functionIFvRKbEEbEEE10_M_managerERSt9_Any_dataRKSA_St18_Manager_operation+0x2e>
   d7486:	4631      	mov	r1, r6
   d7488:	f7ff ffdc 	bl	d7444 <_ZNSt8functionIFvRKbEEC1ERKS3_>
   d748c:	7c33      	ldrb	r3, [r6, #16]
   d748e:	742b      	strb	r3, [r5, #16]
	  __dest._M_access<_Functor*>() =
   d7490:	6025      	str	r5, [r4, #0]
	}
   d7492:	e7f0      	b.n	d7476 <_ZNSt14_Function_base13_Base_managerISt5_BindIFSt8functionIFvRKbEEbEEE10_M_managerERSt9_Any_dataRKSA_St18_Manager_operation+0x14>
	  delete __victim._M_access<_Functor*>();
   d7494:	6804      	ldr	r4, [r0, #0]
   d7496:	2c00      	cmp	r4, #0
   d7498:	d0ed      	beq.n	d7476 <_ZNSt14_Function_base13_Base_managerISt5_BindIFSt8functionIFvRKbEEbEEE10_M_managerERSt9_Any_dataRKSA_St18_Manager_operation+0x14>
    class function<_Res(_ArgTypes...)>
   d749a:	4620      	mov	r0, r4
   d749c:	f7fd fe8a 	bl	d51b4 <_ZNSt14_Function_baseD1Ev>
	  delete __victim._M_access<_Functor*>();
   d74a0:	2114      	movs	r1, #20
   d74a2:	4620      	mov	r0, r4
   d74a4:	f001 ff07 	bl	d92b6 <_ZdlPvj>
   d74a8:	e7e5      	b.n	d7476 <_ZNSt14_Function_base13_Base_managerISt5_BindIFSt8functionIFvRKbEEbEEE10_M_managerERSt9_Any_dataRKSA_St18_Manager_operation+0x14>
	...

000d74ac <_ZN12_GLOBAL__N_125publishCompletionCallbackEiPKvPvS2_>:
void publishCompletionCallback(int error, const void* data, void* callbackData, void* reserved) {
   d74ac:	b5f0      	push	{r4, r5, r6, r7, lr}
   d74ae:	b089      	sub	sp, #36	; 0x24
   d74b0:	4604      	mov	r4, r0
   d74b2:	460d      	mov	r5, r1
    auto p = Promise<bool>::fromDataPtr(callbackData);
   d74b4:	a801      	add	r0, sp, #4
   d74b6:	4611      	mov	r1, r2
   d74b8:	f7ff fe23 	bl	d7102 <_ZN8particle11PromiseBaseIbNS_6detail13FutureContextEE11fromDataPtrEPv>
    if (error != Error::NONE) {
   d74bc:	b1a4      	cbz	r4, d74e8 <_ZN12_GLOBAL__N_125publishCompletionCallbackEiPKvPvS2_+0x3c>
        p.setError(Error((Error::Type)error, (const char*)data));
   d74be:	b224      	sxth	r4, r4
        msg_(msg ? (const char*)strdup(msg) : nullptr),
   d74c0:	b11d      	cbz	r5, d74ca <_ZN12_GLOBAL__N_125publishCompletionCallbackEiPKvPvS2_+0x1e>
   d74c2:	4628      	mov	r0, r5
   d74c4:	f002 ffca 	bl	da45c <strdup>
   d74c8:	4605      	mov	r5, r0
   d74ca:	a801      	add	r0, sp, #4
   d74cc:	a903      	add	r1, sp, #12
        type_(type) {
   d74ce:	9503      	str	r5, [sp, #12]
   d74d0:	f8ad 4010 	strh.w	r4, [sp, #16]
   d74d4:	f7ff fe78 	bl	d71c8 <_ZN8particle11PromiseBaseIbNS_6detail13FutureContextEE8setErrorENS_5ErrorE>
   d74d8:	a803      	add	r0, sp, #12
   d74da:	f7ff fde8 	bl	d70ae <_ZN8particle5ErrorD1Ev>
   d74de:	a802      	add	r0, sp, #8
   d74e0:	f7fc ffb4 	bl	d444c <_ZNSt14__shared_countILN9__gnu_cxx12_Lock_policyE0EED1Ev>
}
   d74e4:	b009      	add	sp, #36	; 0x24
   d74e6:	bdf0      	pop	{r4, r5, r6, r7, pc}
      { return static_cast<const __shared_ptr<_Tp, _Lp>*>(this)->get(); }
   d74e8:	9d01      	ldr	r5, [sp, #4]
	return __atomic_compare_exchange(std::__addressof(_M_i),
   d74ea:	2301      	movs	r3, #1
   d74ec:	e8d5 2f4f 	ldrexb	r2, [r5]
   d74f0:	2a00      	cmp	r2, #0
   d74f2:	d103      	bne.n	d74fc <_ZN12_GLOBAL__N_125publishCompletionCallbackEiPKvPvS2_+0x50>
   d74f4:	e8c5 3f41 	strexb	r1, r3, [r5]
   d74f8:	2900      	cmp	r1, #0
   d74fa:	d1f7      	bne.n	d74ec <_ZN12_GLOBAL__N_125publishCompletionCallbackEiPKvPvS2_+0x40>
        if (this->changeState(State::SUCCEEDED)) {
   d74fc:	d1ef      	bne.n	d74de <_ZN12_GLOBAL__N_125publishCompletionCallbackEiPKvPvS2_+0x32>
            new(&result_) ResultT(std::move(result));
   d74fe:	732b      	strb	r3, [r5, #12]
	__atomic_store_n(&_M_i, __i, int(__m));
   d7500:	f3bf 8f5b 	dmb	ish
   d7504:	706b      	strb	r3, [r5, #1]
	return __atomic_exchange_n(&_M_p, __p, int(__m));
   d7506:	1d2b      	adds	r3, r5, #4
   d7508:	f3bf 8f5b 	dmb	ish
   d750c:	e853 6f00 	ldrex	r6, [r3]
   d7510:	e843 4200 	strex	r2, r4, [r3]
   d7514:	2a00      	cmp	r2, #0
   d7516:	d1f9      	bne.n	d750c <_ZN12_GLOBAL__N_125publishCompletionCallbackEiPKvPvS2_+0x60>
   d7518:	f3bf 8f5b 	dmb	ish
        if (callbackPtr) {
   d751c:	2e00      	cmp	r6, #0
   d751e:	d0de      	beq.n	d74de <_ZN12_GLOBAL__N_125publishCompletionCallbackEiPKvPvS2_+0x32>
        return (application_thread_current(nullptr) != 0);
   d7520:	4620      	mov	r0, r4
   d7522:	f7ff fc6f 	bl	d6e04 <application_thread_current>
        if (ContextT::isApplicationThreadCurrent()) {
   d7526:	4607      	mov	r7, r0
   d7528:	b160      	cbz	r0, d7544 <_ZN12_GLOBAL__N_125publishCompletionCallbackEiPKvPvS2_+0x98>
            callback(std::forward<ArgsT>(args)...); // Synchronous call
   d752a:	f105 010c 	add.w	r1, r5, #12
   d752e:	4630      	mov	r0, r6
   d7530:	f7ff fe16 	bl	d7160 <_ZNKSt8functionIFvRKbEEclES1_>
    class function<_Res(_ArgTypes...)>
   d7534:	4630      	mov	r0, r6
   d7536:	f7fd fe3d 	bl	d51b4 <_ZNSt14_Function_baseD1Ev>
            delete callbackPtr;
   d753a:	2110      	movs	r1, #16
   d753c:	4630      	mov	r0, r6
   d753e:	f001 feba 	bl	d92b6 <_ZdlPvj>
   d7542:	e7cc      	b.n	d74de <_ZN12_GLOBAL__N_125publishCompletionCallbackEiPKvPvS2_+0x32>
	: _M_f(__f), _M_bound_args(std::forward<_Args>(__args)...)
   d7544:	4631      	mov	r1, r6
   d7546:	a803      	add	r0, sp, #12
   d7548:	f7ff ff7c 	bl	d7444 <_ZNSt8functionIFvRKbEEC1ERKS3_>
	: _M_head_impl(std::forward<_UHead>(__h)) { }
   d754c:	7b2b      	ldrb	r3, [r5, #12]
   d754e:	f88d 301c 	strb.w	r3, [sp, #28]
            auto callbackPtr = new std::function<void()>(std::bind(callback, std::forward<ArgsT>(args)...));
   d7552:	2010      	movs	r0, #16
   d7554:	f7fc fd9f 	bl	d4096 <_Znwj>
   d7558:	4605      	mov	r5, r0
   d755a:	b1d0      	cbz	r0, d7592 <_ZN12_GLOBAL__N_125publishCompletionCallbackEiPKvPvS2_+0xe6>
    _Function_base() : _M_manager(nullptr) { }
   d755c:	6087      	str	r7, [r0, #8]
	{ __functor._M_access<_Functor*>() = new _Functor(std::move(__f)); }
   d755e:	2014      	movs	r0, #20
   d7560:	f7fc fd99 	bl	d4096 <_Znwj>
   d7564:	4604      	mov	r4, r0
   d7566:	b178      	cbz	r0, d7588 <_ZN12_GLOBAL__N_125publishCompletionCallbackEiPKvPvS2_+0xdc>
    _Function_base() : _M_manager(nullptr) { }
   d7568:	6087      	str	r7, [r0, #8]
	std::swap(_M_functor, __x._M_functor);
   d756a:	4601      	mov	r1, r0
   d756c:	a803      	add	r0, sp, #12
   d756e:	f7ff fd5c 	bl	d702a <_ZSt4swapISt9_Any_dataENSt9enable_ifIXsrSt6__and_IJSt6__not_ISt15__is_tuple_likeIT_EESt21is_move_constructibleIS5_ESt18is_move_assignableIS5_EEE5valueEvE4typeERS5_SF_>
      _Tp __tmp = _GLIBCXX_MOVE(__a);
   d7572:	9b05      	ldr	r3, [sp, #20]
      __a = _GLIBCXX_MOVE(__b);
   d7574:	68a2      	ldr	r2, [r4, #8]
      __b = _GLIBCXX_MOVE(__tmp);
   d7576:	60a3      	str	r3, [r4, #8]
      _Tp __tmp = _GLIBCXX_MOVE(__a);
   d7578:	9b06      	ldr	r3, [sp, #24]
      __a = _GLIBCXX_MOVE(__b);
   d757a:	9205      	str	r2, [sp, #20]
   d757c:	68e2      	ldr	r2, [r4, #12]
      __b = _GLIBCXX_MOVE(__tmp);
   d757e:	60e3      	str	r3, [r4, #12]
   d7580:	f89d 301c 	ldrb.w	r3, [sp, #28]
      __a = _GLIBCXX_MOVE(__b);
   d7584:	9206      	str	r2, [sp, #24]
   d7586:	7423      	strb	r3, [r4, #16]
	    _M_invoker = &_My_handler::_M_invoke;
   d7588:	4b06      	ldr	r3, [pc, #24]	; (d75a4 <_ZN12_GLOBAL__N_125publishCompletionCallbackEiPKvPvS2_+0xf8>)
   d758a:	60eb      	str	r3, [r5, #12]
	    _M_manager = &_My_handler::_M_manager;
   d758c:	4b06      	ldr	r3, [pc, #24]	; (d75a8 <_ZN12_GLOBAL__N_125publishCompletionCallbackEiPKvPvS2_+0xfc>)
	{ __functor._M_access<_Functor*>() = new _Functor(std::move(__f)); }
   d758e:	602c      	str	r4, [r5, #0]
	    _M_manager = &_My_handler::_M_manager;
   d7590:	60ab      	str	r3, [r5, #8]
    class function<_Res(_ArgTypes...)>
   d7592:	a803      	add	r0, sp, #12
   d7594:	f7fd fe0e 	bl	d51b4 <_ZNSt14_Function_baseD1Ev>
        return (application_thread_invoke(callback, data, nullptr) == 0);
   d7598:	2200      	movs	r2, #0
   d759a:	4629      	mov	r1, r5
   d759c:	4803      	ldr	r0, [pc, #12]	; (d75ac <_ZN12_GLOBAL__N_125publishCompletionCallbackEiPKvPvS2_+0x100>)
   d759e:	f7ff fc39 	bl	d6e14 <application_thread_invoke>
   d75a2:	e7c7      	b.n	d7534 <_ZN12_GLOBAL__N_125publishCompletionCallbackEiPKvPvS2_+0x88>
   d75a4:	000d7173 	.word	0x000d7173
   d75a8:	000d7463 	.word	0x000d7463
   d75ac:	000d6ff3 	.word	0x000d6ff3

000d75b0 <_ZN5spark13EthernetClass9listeningEv>:
    uint16_t getListenTimeout(void) {
        return network_get_listen_timeout(*this, 0, NULL);
    }

    bool listening(void) {
        return network_listening(*this, 0, NULL);
   d75b0:	2200      	movs	r2, #0
   d75b2:	6840      	ldr	r0, [r0, #4]
   d75b4:	4611      	mov	r1, r2
   d75b6:	f7ff bcb1 	b.w	d6f1c <network_listening>

000d75ba <_ZN5spark13EthernetClass16getListenTimeoutEv>:
        return network_get_listen_timeout(*this, 0, NULL);
   d75ba:	2200      	movs	r2, #0
   d75bc:	6840      	ldr	r0, [r0, #4]
   d75be:	4611      	mov	r1, r2
   d75c0:	f7ff bcbc 	b.w	d6f3c <network_get_listen_timeout>

000d75c4 <_ZN5spark13EthernetClass16setListenTimeoutEt>:
        network_set_listen_timeout(*this, timeout, NULL);
   d75c4:	6840      	ldr	r0, [r0, #4]
   d75c6:	2200      	movs	r2, #0
   d75c8:	f7ff bcb0 	b.w	d6f2c <network_set_listen_timeout>

000d75cc <_ZN5spark13EthernetClass6listenEb>:
        network_listen(*this, begin ? 0 : 1, NULL);
   d75cc:	6840      	ldr	r0, [r0, #4]
   d75ce:	2200      	movs	r2, #0
   d75d0:	f081 0101 	eor.w	r1, r1, #1
   d75d4:	f7ff bc9a 	b.w	d6f0c <network_listen>

000d75d8 <_ZN5spark13EthernetClass3offEv>:
        network_off(*this, 0, 0, NULL);
   d75d8:	2300      	movs	r3, #0
   d75da:	6840      	ldr	r0, [r0, #4]
   d75dc:	461a      	mov	r2, r3
   d75de:	4619      	mov	r1, r3
   d75e0:	f7ff bc8c 	b.w	d6efc <network_off>

000d75e4 <_ZN5spark13EthernetClass2onEv>:
        network_on(*this, 0, 0, NULL);
   d75e4:	2300      	movs	r3, #0
   d75e6:	6840      	ldr	r0, [r0, #4]
   d75e8:	461a      	mov	r2, r3
   d75ea:	4619      	mov	r1, r3
   d75ec:	f7ff bc7e 	b.w	d6eec <network_on>

000d75f0 <_ZN5spark13EthernetClass5readyEv>:
    }

    bool ready() {
        return network_ready(*this, 0,  NULL);
   d75f0:	2200      	movs	r2, #0
   d75f2:	6840      	ldr	r0, [r0, #4]
   d75f4:	4611      	mov	r1, r2
   d75f6:	f7ff bc71 	b.w	d6edc <network_ready>

000d75fa <_ZN5spark13EthernetClass10connectingEv>:
        return network_connecting(*this, 0, NULL);
   d75fa:	2200      	movs	r2, #0
   d75fc:	6840      	ldr	r0, [r0, #4]
   d75fe:	4611      	mov	r1, r2
   d7600:	f7ff bc5c 	b.w	d6ebc <network_connecting>

000d7604 <_ZN5spark13EthernetClass10disconnectEv>:
        network_disconnect(*this, NETWORK_DISCONNECT_REASON_USER, NULL);
   d7604:	6840      	ldr	r0, [r0, #4]
   d7606:	2200      	movs	r2, #0
   d7608:	2102      	movs	r1, #2
   d760a:	f7ff bc5f 	b.w	d6ecc <network_disconnect>

000d760e <_ZN5spark13EthernetClass7connectEj>:
        network_connect(*this, flags, 0, NULL);
   d760e:	2300      	movs	r3, #0
   d7610:	6840      	ldr	r0, [r0, #4]
   d7612:	461a      	mov	r2, r3
   d7614:	f7ff bc4a 	b.w	d6eac <network_connect>

000d7618 <_GLOBAL__sub_I__ZN5spark8EthernetE>:
    static NetworkClass& from(network_interface_t nif);

    virtual IPAddress resolve(const char* name);

    explicit NetworkClass(network_interface_t iface)
            : iface_(iface) {
   d7618:	4b02      	ldr	r3, [pc, #8]	; (d7624 <_GLOBAL__sub_I__ZN5spark8EthernetE+0xc>)
   d761a:	2203      	movs	r2, #3
   d761c:	605a      	str	r2, [r3, #4]
            NetworkClass(NETWORK_INTERFACE_ETHERNET) {
   d761e:	4a02      	ldr	r2, [pc, #8]	; (d7628 <_GLOBAL__sub_I__ZN5spark8EthernetE+0x10>)
   d7620:	601a      	str	r2, [r3, #0]

namespace spark {

EthernetClass Ethernet;

} // spark
   d7622:	4770      	bx	lr
   d7624:	2003e648 	.word	0x2003e648
   d7628:	000dcafc 	.word	0x000dcafc

000d762c <_ZN7TwoWireD1Ev>:
private:
  hal_i2c_interface_t _i2c;

public:
  TwoWire(hal_i2c_interface_t i2c, const hal_i2c_config_t& config);
  virtual ~TwoWire() {};
   d762c:	4770      	bx	lr

000d762e <_ZN7TwoWire5writeEPKhj>:

// must be called in:
// slave tx event callback
// or after beginTransmission(address)
size_t TwoWire::write(const uint8_t *data, size_t quantity)
{
   d762e:	b5f8      	push	{r3, r4, r5, r6, r7, lr}
   d7630:	4606      	mov	r6, r0
   d7632:	4615      	mov	r5, r2
   d7634:	460c      	mov	r4, r1
   d7636:	188f      	adds	r7, r1, r2
  // in master/slave transmitter mode
  for(size_t i = 0; i < quantity; ++i)
   d7638:	42bc      	cmp	r4, r7
   d763a:	d006      	beq.n	d764a <_ZN7TwoWire5writeEPKhj+0x1c>
  {
    write(data[i]);
   d763c:	6833      	ldr	r3, [r6, #0]
   d763e:	f814 1b01 	ldrb.w	r1, [r4], #1
   d7642:	689b      	ldr	r3, [r3, #8]
   d7644:	4630      	mov	r0, r6
   d7646:	4798      	blx	r3
  for(size_t i = 0; i < quantity; ++i)
   d7648:	e7f6      	b.n	d7638 <_ZN7TwoWire5writeEPKhj+0xa>
  }

  return quantity;
}
   d764a:	4628      	mov	r0, r5
   d764c:	bdf8      	pop	{r3, r4, r5, r6, r7, pc}

000d764e <_ZN7TwoWire5writeEh>:
  return hal_i2c_write(_i2c, data, NULL);
   d764e:	7c00      	ldrb	r0, [r0, #16]
   d7650:	2200      	movs	r2, #0
   d7652:	f7ff ba5f 	b.w	d6b14 <hal_i2c_write>

000d7656 <_ZN7TwoWire9availableEv>:
// must be called in:
// slave rx event callback
// or after requestFrom(address, numBytes)
int TwoWire::available(void)
{
  return hal_i2c_available(_i2c, NULL);
   d7656:	7c00      	ldrb	r0, [r0, #16]
   d7658:	2100      	movs	r1, #0
   d765a:	f7ff ba63 	b.w	d6b24 <hal_i2c_available>

000d765e <_ZN7TwoWire4readEv>:
// must be called in:
// slave rx event callback
// or after requestFrom(address, numBytes)
int TwoWire::read(void)
{
  return hal_i2c_read(_i2c, NULL);
   d765e:	7c00      	ldrb	r0, [r0, #16]
   d7660:	2100      	movs	r1, #0
   d7662:	f7ff ba67 	b.w	d6b34 <hal_i2c_read>

000d7666 <_ZN7TwoWire4peekEv>:
// must be called in:
// slave rx event callback
// or after requestFrom(address, numBytes)
int TwoWire::peek(void)
{
  return hal_i2c_peek(_i2c, NULL);
   d7666:	7c00      	ldrb	r0, [r0, #16]
   d7668:	2100      	movs	r1, #0
   d766a:	f7ff ba6b 	b.w	d6b44 <hal_i2c_peek>

000d766e <_ZN7TwoWire5flushEv>:
}

void TwoWire::flush(void)
{
  hal_i2c_flush(_i2c, NULL);
   d766e:	7c00      	ldrb	r0, [r0, #16]
   d7670:	2100      	movs	r1, #0
   d7672:	f7ff ba6f 	b.w	d6b54 <hal_i2c_flush>

000d7676 <_ZN7TwoWireD0Ev>:
   d7676:	b510      	push	{r4, lr}
   d7678:	2114      	movs	r1, #20
   d767a:	4604      	mov	r4, r0
   d767c:	f001 fe1b 	bl	d92b6 <_ZdlPvj>
   d7680:	4620      	mov	r0, r4
   d7682:	bd10      	pop	{r4, pc}

000d7684 <_ZN7TwoWireC1E19hal_i2c_interface_tRK16hal_i2c_config_t>:
TwoWire::TwoWire(hal_i2c_interface_t i2c, const hal_i2c_config_t& conf)
   d7684:	b510      	push	{r4, lr}
    virtual int available() = 0;
    virtual int read() = 0;
    virtual int peek() = 0;
    virtual void flush() = 0;

    Stream() {_timeout=1000;}
   d7686:	f44f 737a 	mov.w	r3, #1000	; 0x3e8
   d768a:	4604      	mov	r4, r0
   d768c:	4608      	mov	r0, r1
   d768e:	2100      	movs	r1, #0
   d7690:	e9c4 1301 	strd	r1, r3, [r4, #4]
   d7694:	4b03      	ldr	r3, [pc, #12]	; (d76a4 <_ZN7TwoWireC1E19hal_i2c_interface_tRK16hal_i2c_config_t+0x20>)
   d7696:	6023      	str	r3, [r4, #0]
  _i2c = i2c;
   d7698:	7420      	strb	r0, [r4, #16]
  hal_i2c_init(_i2c, &conf);
   d769a:	4611      	mov	r1, r2
   d769c:	f7ff fa6a 	bl	d6b74 <hal_i2c_init>
}
   d76a0:	4620      	mov	r0, r4
   d76a2:	bd10      	pop	{r4, pc}
   d76a4:	000dcb38 	.word	0x000dcb38

000d76a8 <_ZN7TwoWire5beginEv>:
	hal_i2c_begin(_i2c, I2C_MODE_MASTER, 0x00, NULL);
   d76a8:	2300      	movs	r3, #0
   d76aa:	7c00      	ldrb	r0, [r0, #16]
   d76ac:	461a      	mov	r2, r3
   d76ae:	4619      	mov	r1, r3
   d76b0:	f7ff ba18 	b.w	d6ae4 <hal_i2c_begin>

000d76b4 <_ZN7TwoWire17beginTransmissionEh>:
	hal_i2c_begin_transmission(_i2c, address, NULL);
   d76b4:	7c00      	ldrb	r0, [r0, #16]
   d76b6:	2200      	movs	r2, #0
   d76b8:	f7ff ba1c 	b.w	d6af4 <hal_i2c_begin_transmission>

000d76bc <_ZN7TwoWire17beginTransmissionEi>:
  beginTransmission((uint8_t)address);
   d76bc:	b2c9      	uxtb	r1, r1
   d76be:	f7ff bff9 	b.w	d76b4 <_ZN7TwoWire17beginTransmissionEh>

000d76c2 <_ZN7TwoWire15endTransmissionEh>:
	return hal_i2c_end_transmission(_i2c, sendStop, NULL);
   d76c2:	7c00      	ldrb	r0, [r0, #16]
   d76c4:	2200      	movs	r2, #0
   d76c6:	f7ff ba1d 	b.w	d6b04 <hal_i2c_end_transmission>

000d76ca <_ZN7TwoWire15endTransmissionEv>:
  return endTransmission(true);
   d76ca:	2101      	movs	r1, #1
   d76cc:	f7ff bff9 	b.w	d76c2 <_ZN7TwoWire15endTransmissionEh>

000d76d0 <_Z12noInterruptsv>:
 * Return         : None.
 *******************************************************************************/
void noInterrupts(void)
{
  //Only disable the interrupts that are exposed to the user
  HAL_Interrupts_Disable_All();
   d76d0:	f7ff ba00 	b.w	d6ad4 <HAL_Interrupts_Disable_All>

000d76d4 <_Z10interruptsv>:
 * Return         : None.
 *******************************************************************************/
void interrupts(void)
{
  //Only enable the interrupts that are exposed to the user
  HAL_Interrupts_Enable_All();
   d76d4:	f7ff b9f6 	b.w	d6ac4 <HAL_Interrupts_Enable_All>

000d76d8 <_ZN9IPAddressD1Ev>:
    IPAddress(uint32_t address);
    // 4 bytes defining the IP address in network order
    IPAddress(const uint8_t* address);
    IPAddress(const HAL_IPAddress& address);

    virtual ~IPAddress() {}
   d76d8:	4770      	bx	lr

000d76da <_ZN9IPAddressD0Ev>:
   d76da:	b510      	push	{r4, lr}
   d76dc:	2118      	movs	r1, #24
   d76de:	4604      	mov	r4, r0
   d76e0:	f001 fde9 	bl	d92b6 <_ZdlPvj>
   d76e4:	4620      	mov	r0, r4
   d76e6:	bd10      	pop	{r4, pc}

000d76e8 <_ZNK9IPAddress7printToER5Print>:
#endif // Wiring_IPv6
	return address.ipv4==that.address.ipv4;
}

size_t IPAddress::printTo(Print& p) const
{
   d76e8:	b5f0      	push	{r4, r5, r6, r7, lr}
#if Wiring_IPv6
#if HAL_USE_INET_HAL_POSIX
	if (address.v==6) {
   d76ea:	7d03      	ldrb	r3, [r0, #20]
   d76ec:	2b06      	cmp	r3, #6
{
   d76ee:	b08d      	sub	sp, #52	; 0x34
   d76f0:	460e      	mov	r6, r1
   d76f2:	f100 0704 	add.w	r7, r0, #4
   d76f6:	f04f 0400 	mov.w	r4, #0
	if (address.v==6) {
   d76fa:	d012      	beq.n	d7722 <_ZNK9IPAddress7printToER5Print+0x3a>
   d76fc:	f100 0508 	add.w	r5, r0, #8
            val = n;
        }
#if __GNUC__ >= 9
#pragma GCC diagnostic pop
#endif // __GNUC__ >= 9
        return printNumber(val, base) + t;
   d7700:	f815 1d01 	ldrb.w	r1, [r5, #-1]!
   d7704:	220a      	movs	r2, #10
   d7706:	4630      	mov	r0, r6
   d7708:	f000 fbdf 	bl	d7eca <_ZN5Print11printNumberEmh>
#else
#pragma message "HAL_USE_INET_HAL_POSIX is required for IPv6 support in IPAddress::printTo()"
#endif // HAL_USE_INET_HAL_POSIX
#endif // Wiring_IPv6
    size_t n = 0;
    for (int i = 0; i < 4; i++)
   d770c:	42af      	cmp	r7, r5
    {
        if (n)
            n += p.print('.');
        n += p.print((*this)[i], DEC);
   d770e:	4404      	add	r4, r0
    for (int i = 0; i < 4; i++)
   d7710:	d019      	beq.n	d7746 <_ZNK9IPAddress7printToER5Print+0x5e>
        if (n)
   d7712:	2c00      	cmp	r4, #0
   d7714:	d0f4      	beq.n	d7700 <_ZNK9IPAddress7printToER5Print+0x18>
            n += p.print('.');
   d7716:	212e      	movs	r1, #46	; 0x2e
   d7718:	4630      	mov	r0, r6
   d771a:	f000 fbbd 	bl	d7e98 <_ZN5Print5printEc>
   d771e:	4404      	add	r4, r0
   d7720:	e7ee      	b.n	d7700 <_ZNK9IPAddress7printToER5Print+0x18>
		inet_inet_ntop(AF_INET6, address.ipv6, buf, sizeof(buf));
   d7722:	232f      	movs	r3, #47	; 0x2f
   d7724:	466a      	mov	r2, sp
   d7726:	4639      	mov	r1, r7
   d7728:	200a      	movs	r0, #10
		buf[0] = 0;
   d772a:	f88d 4000 	strb.w	r4, [sp]
		inet_inet_ntop(AF_INET6, address.ipv6, buf, sizeof(buf));
   d772e:	f7ff fa31 	bl	d6b94 <inet_inet_ntop>
      return write((const uint8_t *)str, strlen(str));
   d7732:	4668      	mov	r0, sp
   d7734:	f002 feaf 	bl	da496 <strlen>
   d7738:	6833      	ldr	r3, [r6, #0]
   d773a:	4602      	mov	r2, r0
   d773c:	68db      	ldr	r3, [r3, #12]
   d773e:	4669      	mov	r1, sp
   d7740:	4630      	mov	r0, r6
   d7742:	4798      	blx	r3
   d7744:	4604      	mov	r4, r0
    }
    return n;
}
   d7746:	4620      	mov	r0, r4
   d7748:	b00d      	add	sp, #52	; 0x34
   d774a:	bdf0      	pop	{r4, r5, r6, r7, pc}

000d774c <_ZN9IPAddressC1Ev>:
IPAddress::IPAddress()
   d774c:	b510      	push	{r4, lr}
   d774e:	4b05      	ldr	r3, [pc, #20]	; (d7764 <_ZN9IPAddressC1Ev+0x18>)
   d7750:	4604      	mov	r4, r0
        return address;
    }

    virtual size_t printTo(Print& p) const;

    void clear() { memset(&address, 0, sizeof (address)); }
   d7752:	2211      	movs	r2, #17
   d7754:	f840 3b04 	str.w	r3, [r0], #4
   d7758:	2100      	movs	r1, #0
   d775a:	f002 fe23 	bl	da3a4 <memset>
}
   d775e:	4620      	mov	r0, r4
   d7760:	bd10      	pop	{r4, pc}
   d7762:	bf00      	nop
   d7764:	000dcb60 	.word	0x000dcb60

000d7768 <_ZN9IPAddressC1ERK16_HAL_IPAddress_t>:
IPAddress::IPAddress(const HAL_IPAddress& address)
   d7768:	4603      	mov	r3, r0
   d776a:	4a07      	ldr	r2, [pc, #28]	; (d7788 <_ZN9IPAddressC1ERK16_HAL_IPAddress_t+0x20>)
   d776c:	b510      	push	{r4, lr}
   d776e:	f843 2b04 	str.w	r2, [r3], #4
    memcpy(&this->address, &address, sizeof(address));
   d7772:	f101 0210 	add.w	r2, r1, #16
   d7776:	f851 4b04 	ldr.w	r4, [r1], #4
   d777a:	f843 4b04 	str.w	r4, [r3], #4
   d777e:	4291      	cmp	r1, r2
   d7780:	d1f9      	bne.n	d7776 <_ZN9IPAddressC1ERK16_HAL_IPAddress_t+0xe>
   d7782:	780a      	ldrb	r2, [r1, #0]
   d7784:	701a      	strb	r2, [r3, #0]
}
   d7786:	bd10      	pop	{r4, pc}
   d7788:	000dcb60 	.word	0x000dcb60

000d778c <_ZNK9IPAddresscvbEv>:
    if (version() == 4) {
   d778c:	7d03      	ldrb	r3, [r0, #20]
   d778e:	2b04      	cmp	r3, #4
   d7790:	d104      	bne.n	d779c <_ZNK9IPAddresscvbEv+0x10>
        return address.ipv4 != 0;
   d7792:	6840      	ldr	r0, [r0, #4]
        return address.ipv6[0] != 0 || address.ipv6[1] != 0 || address.ipv6[2] != 0 || address.ipv6[3] != 0;
   d7794:	3800      	subs	r0, #0
   d7796:	bf18      	it	ne
   d7798:	2001      	movne	r0, #1
   d779a:	4770      	bx	lr
    } else if (version() == 6) {
   d779c:	2b06      	cmp	r3, #6
   d779e:	d107      	bne.n	d77b0 <_ZNK9IPAddresscvbEv+0x24>
        return address.ipv6[0] != 0 || address.ipv6[1] != 0 || address.ipv6[2] != 0 || address.ipv6[3] != 0;
   d77a0:	6843      	ldr	r3, [r0, #4]
   d77a2:	b93b      	cbnz	r3, d77b4 <_ZNK9IPAddresscvbEv+0x28>
   d77a4:	6883      	ldr	r3, [r0, #8]
   d77a6:	b92b      	cbnz	r3, d77b4 <_ZNK9IPAddresscvbEv+0x28>
   d77a8:	68c3      	ldr	r3, [r0, #12]
   d77aa:	b91b      	cbnz	r3, d77b4 <_ZNK9IPAddresscvbEv+0x28>
   d77ac:	6900      	ldr	r0, [r0, #16]
   d77ae:	e7f1      	b.n	d7794 <_ZNK9IPAddresscvbEv+0x8>
        return false;
   d77b0:	2000      	movs	r0, #0
   d77b2:	4770      	bx	lr
        return address.ipv6[0] != 0 || address.ipv6[1] != 0 || address.ipv6[2] != 0 || address.ipv6[3] != 0;
   d77b4:	2001      	movs	r0, #1
}
   d77b6:	4770      	bx	lr

000d77b8 <_ZN9IPAddress8set_ipv4Ehhhh>:
{
   d77b8:	b510      	push	{r4, lr}
    address.ipv4 = b0<<24 | b1 << 16 | b2 << 8 | b3;
   d77ba:	f89d 4008 	ldrb.w	r4, [sp, #8]
   d77be:	ea44 2303 	orr.w	r3, r4, r3, lsl #8
   d77c2:	ea43 4202 	orr.w	r2, r3, r2, lsl #16
   d77c6:	ea42 6101 	orr.w	r1, r2, r1, lsl #24
        address.v = version;
   d77ca:	2304      	movs	r3, #4
   d77cc:	6041      	str	r1, [r0, #4]
   d77ce:	7503      	strb	r3, [r0, #20]
}
   d77d0:	bd10      	pop	{r4, pc}
	...

000d77d4 <_ZN9IPAddressC1Ehhhh>:
IPAddress::IPAddress(uint8_t first_octet, uint8_t second_octet, uint8_t third_octet, uint8_t fourth_octet)
   d77d4:	b537      	push	{r0, r1, r2, r4, r5, lr}
   d77d6:	4d04      	ldr	r5, [pc, #16]	; (d77e8 <_ZN9IPAddressC1Ehhhh+0x14>)
   d77d8:	6005      	str	r5, [r0, #0]
    set_ipv4(first_octet, second_octet, third_octet, fourth_octet);
   d77da:	f89d 5018 	ldrb.w	r5, [sp, #24]
   d77de:	9500      	str	r5, [sp, #0]
   d77e0:	f7ff ffea 	bl	d77b8 <_ZN9IPAddress8set_ipv4Ehhhh>
}
   d77e4:	b003      	add	sp, #12
   d77e6:	bd30      	pop	{r4, r5, pc}
   d77e8:	000dcb60 	.word	0x000dcb60

000d77ec <_ZN9IPAddressC1EPKh>:
IPAddress::IPAddress(const uint8_t* addr)
   d77ec:	b513      	push	{r0, r1, r4, lr}
   d77ee:	4b05      	ldr	r3, [pc, #20]	; (d7804 <_ZN9IPAddressC1EPKh+0x18>)
   d77f0:	6003      	str	r3, [r0, #0]
    set_ipv4(addr[0], addr[1], addr[2], addr[3]);
   d77f2:	78cb      	ldrb	r3, [r1, #3]
   d77f4:	9300      	str	r3, [sp, #0]
   d77f6:	788b      	ldrb	r3, [r1, #2]
   d77f8:	784a      	ldrb	r2, [r1, #1]
   d77fa:	7809      	ldrb	r1, [r1, #0]
   d77fc:	f7ff ffdc 	bl	d77b8 <_ZN9IPAddress8set_ipv4Ehhhh>
}
   d7800:	b002      	add	sp, #8
   d7802:	bd10      	pop	{r4, pc}
   d7804:	000dcb60 	.word	0x000dcb60

000d7808 <_ZN12_GLOBAL__N_19skipTokenEPK9jsmntok_t>:

namespace {

// Skips token and all its children tokens if any
const jsmntok_t* skipToken(const jsmntok_t *t) {
    size_t n = 1;
   d7808:	f100 0310 	add.w	r3, r0, #16
   d780c:	2201      	movs	r2, #1
    do {
        if (t->type == JSMN_OBJECT) {
   d780e:	f813 1c10 	ldrb.w	r1, [r3, #-16]
   d7812:	2901      	cmp	r1, #1
   d7814:	4618      	mov	r0, r3
   d7816:	d108      	bne.n	d782a <_ZN12_GLOBAL__N_19skipTokenEPK9jsmntok_t+0x22>
            n += t->size * 2; // Number of name and value tokens
   d7818:	f853 1c04 	ldr.w	r1, [r3, #-4]
   d781c:	eb02 0241 	add.w	r2, r2, r1, lsl #1
        } else if (t->type == JSMN_ARRAY) {
            n += t->size; // Number of value tokens
        }
        ++t;
        --n;
    } while (n);
   d7820:	3a01      	subs	r2, #1
   d7822:	f103 0310 	add.w	r3, r3, #16
   d7826:	d1f2      	bne.n	d780e <_ZN12_GLOBAL__N_19skipTokenEPK9jsmntok_t+0x6>
    return t;
}
   d7828:	4770      	bx	lr
        } else if (t->type == JSMN_ARRAY) {
   d782a:	2902      	cmp	r1, #2
            n += t->size; // Number of value tokens
   d782c:	bf04      	itt	eq
   d782e:	f853 1c04 	ldreq.w	r1, [r3, #-4]
   d7832:	1852      	addeq	r2, r2, r1
   d7834:	e7f4      	b.n	d7820 <_ZN12_GLOBAL__N_19skipTokenEPK9jsmntok_t+0x18>

000d7836 <_ZNSt15_Sp_counted_ptrIPN5spark6detail8JSONDataELN9__gnu_cxx12_Lock_policyE0EED1Ev>:
    class _Sp_counted_ptr final : public _Sp_counted_base<_Lp>
   d7836:	4770      	bx	lr

000d7838 <_ZNSt15_Sp_counted_ptrIPN5spark6detail8JSONDataELN9__gnu_cxx12_Lock_policyE0EE14_M_get_deleterERKSt9type_info>:
      { return nullptr; }
   d7838:	2000      	movs	r0, #0
   d783a:	4770      	bx	lr

000d783c <_ZNSt15_Sp_counted_ptrIPN5spark6detail8JSONDataELN9__gnu_cxx12_Lock_policyE0EED0Ev>:
    class _Sp_counted_ptr final : public _Sp_counted_base<_Lp>
   d783c:	b510      	push	{r4, lr}
   d783e:	2110      	movs	r1, #16
   d7840:	4604      	mov	r4, r0
   d7842:	f001 fd38 	bl	d92b6 <_ZdlPvj>
   d7846:	4620      	mov	r0, r4
   d7848:	bd10      	pop	{r4, pc}

000d784a <_ZNSt15_Sp_counted_ptrIPN5spark6detail8JSONDataELN9__gnu_cxx12_Lock_policyE0EE10_M_destroyEv>:
      _M_destroy() noexcept
   d784a:	b508      	push	{r3, lr}
      { delete this; }
   d784c:	f7ff fff6 	bl	d783c <_ZNSt15_Sp_counted_ptrIPN5spark6detail8JSONDataELN9__gnu_cxx12_Lock_policyE0EED0Ev>
   d7850:	bd08      	pop	{r3, pc}

000d7852 <_ZNSt15_Sp_counted_ptrIPN5spark6detail8JSONDataELN9__gnu_cxx12_Lock_policyE0EE10_M_disposeEv>:
      _M_dispose() noexcept
   d7852:	b510      	push	{r4, lr}
      { delete _M_ptr; }
   d7854:	68c4      	ldr	r4, [r0, #12]
   d7856:	b17c      	cbz	r4, d7878 <_ZNSt15_Sp_counted_ptrIPN5spark6detail8JSONDataELN9__gnu_cxx12_Lock_policyE0EE10_M_disposeEv+0x26>
            json(nullptr),
            freeJson(false) {
    }

    ~JSONData() {
        delete[] tokens;
   d7858:	6820      	ldr	r0, [r4, #0]
   d785a:	b108      	cbz	r0, d7860 <_ZNSt15_Sp_counted_ptrIPN5spark6detail8JSONDataELN9__gnu_cxx12_Lock_policyE0EE10_M_disposeEv+0xe>
   d785c:	f7fc fc21 	bl	d40a2 <_ZdaPv>
        if (freeJson) {
   d7860:	7a23      	ldrb	r3, [r4, #8]
   d7862:	b11b      	cbz	r3, d786c <_ZNSt15_Sp_counted_ptrIPN5spark6detail8JSONDataELN9__gnu_cxx12_Lock_policyE0EE10_M_disposeEv+0x1a>
            delete[] json;
   d7864:	6860      	ldr	r0, [r4, #4]
   d7866:	b108      	cbz	r0, d786c <_ZNSt15_Sp_counted_ptrIPN5spark6detail8JSONDataELN9__gnu_cxx12_Lock_policyE0EE10_M_disposeEv+0x1a>
   d7868:	f7fc fc1b 	bl	d40a2 <_ZdaPv>
   d786c:	4620      	mov	r0, r4
   d786e:	210c      	movs	r1, #12
   d7870:	e8bd 4010 	ldmia.w	sp!, {r4, lr}
   d7874:	f001 bd1f 	b.w	d92b6 <_ZdlPvj>
   d7878:	bd10      	pop	{r4, pc}

000d787a <_ZNSt16_Sp_counted_baseILN9__gnu_cxx12_Lock_policyE0EE10_M_releaseEv.part.0>:
    _Sp_counted_base<_S_single>::_M_release() noexcept
   d787a:	b510      	push	{r4, lr}
          _M_dispose();
   d787c:	6803      	ldr	r3, [r0, #0]
    _Sp_counted_base<_S_single>::_M_release() noexcept
   d787e:	4604      	mov	r4, r0
          _M_dispose();
   d7880:	689b      	ldr	r3, [r3, #8]
   d7882:	4798      	blx	r3
          if (--_M_weak_count == 0)
   d7884:	68a3      	ldr	r3, [r4, #8]
   d7886:	3b01      	subs	r3, #1
   d7888:	60a3      	str	r3, [r4, #8]
   d788a:	b92b      	cbnz	r3, d7898 <_ZNSt16_Sp_counted_baseILN9__gnu_cxx12_Lock_policyE0EE10_M_releaseEv.part.0+0x1e>
            _M_destroy();
   d788c:	6823      	ldr	r3, [r4, #0]
   d788e:	4620      	mov	r0, r4
   d7890:	68db      	ldr	r3, [r3, #12]
    }
   d7892:	e8bd 4010 	ldmia.w	sp!, {r4, lr}
            _M_destroy();
   d7896:	4718      	bx	r3
    }
   d7898:	bd10      	pop	{r4, pc}

000d789a <_ZNSt12__shared_ptrIN5spark6detail8JSONDataELN9__gnu_cxx12_Lock_policyE0EEaSERKS5_>:
    class __shared_ptr
   d789a:	b538      	push	{r3, r4, r5, lr}
   d789c:	680b      	ldr	r3, [r1, #0]
   d789e:	6003      	str	r3, [r0, #0]
   d78a0:	684d      	ldr	r5, [r1, #4]
	if (__tmp != _M_pi)
   d78a2:	6843      	ldr	r3, [r0, #4]
   d78a4:	429d      	cmp	r5, r3
    class __shared_ptr
   d78a6:	4604      	mov	r4, r0
	if (__tmp != _M_pi)
   d78a8:	d00c      	beq.n	d78c4 <_ZNSt12__shared_ptrIN5spark6detail8JSONDataELN9__gnu_cxx12_Lock_policyE0EEaSERKS5_+0x2a>
	    if (__tmp != 0)
   d78aa:	b115      	cbz	r5, d78b2 <_ZNSt12__shared_ptrIN5spark6detail8JSONDataELN9__gnu_cxx12_Lock_policyE0EEaSERKS5_+0x18>
    { ++_M_use_count; }
   d78ac:	686b      	ldr	r3, [r5, #4]
   d78ae:	3301      	adds	r3, #1
   d78b0:	606b      	str	r3, [r5, #4]
	    if (_M_pi != 0)
   d78b2:	6860      	ldr	r0, [r4, #4]
   d78b4:	b128      	cbz	r0, d78c2 <_ZNSt12__shared_ptrIN5spark6detail8JSONDataELN9__gnu_cxx12_Lock_policyE0EEaSERKS5_+0x28>
      if (--_M_use_count == 0)
   d78b6:	6843      	ldr	r3, [r0, #4]
   d78b8:	3b01      	subs	r3, #1
   d78ba:	6043      	str	r3, [r0, #4]
   d78bc:	b90b      	cbnz	r3, d78c2 <_ZNSt12__shared_ptrIN5spark6detail8JSONDataELN9__gnu_cxx12_Lock_policyE0EEaSERKS5_+0x28>
   d78be:	f7ff ffdc 	bl	d787a <_ZNSt16_Sp_counted_baseILN9__gnu_cxx12_Lock_policyE0EE10_M_releaseEv.part.0>
	    _M_pi = __tmp;
   d78c2:	6065      	str	r5, [r4, #4]
    class __shared_ptr
   d78c4:	4620      	mov	r0, r4
   d78c6:	bd38      	pop	{r3, r4, r5, pc}

000d78c8 <_ZN5spark9JSONValueC1EPK9jsmntok_tSt10shared_ptrINS_6detail8JSONDataEE>:
        }
    }
};

// spark::JSONValue
spark::JSONValue::JSONValue(const jsmntok_t *t, detail::JSONDataPtr d) :
   d78c8:	460b      	mov	r3, r1
   d78ca:	4611      	mov	r1, r2
      : _M_ptr(0), _M_refcount()
   d78cc:	2200      	movs	r2, #0
   d78ce:	b510      	push	{r4, lr}
      constexpr __shared_count() noexcept : _M_pi(0)
   d78d0:	e9c0 2200 	strd	r2, r2, [r0]
   d78d4:	4604      	mov	r4, r0
        JSONValue() {
    if (t) {
        t_ = t;
   d78d6:	6083      	str	r3, [r0, #8]
    if (t) {
   d78d8:	b90b      	cbnz	r3, d78de <_ZN5spark9JSONValueC1EPK9jsmntok_tSt10shared_ptrINS_6detail8JSONDataEE+0x16>
        d_ = d;
    }
}
   d78da:	4620      	mov	r0, r4
   d78dc:	bd10      	pop	{r4, pc}
   *
   *  The object pointed to is deleted when the last shared_ptr pointing to
   *  it is destroyed or reset.
  */
  template<typename _Tp>
    class shared_ptr : public __shared_ptr<_Tp>
   d78de:	f7ff ffdc 	bl	d789a <_ZNSt12__shared_ptrIN5spark6detail8JSONDataELN9__gnu_cxx12_Lock_policyE0EEaSERKS5_>
   d78e2:	e7fa      	b.n	d78da <_ZN5spark9JSONValueC1EPK9jsmntok_tSt10shared_ptrINS_6detail8JSONDataEE+0x12>

000d78e4 <_ZNK5spark9JSONValue4typeEv>:
        return 0.0;
    }
}

spark::JSONType spark::JSONValue::type() const {
    if (!t_) {
   d78e4:	6883      	ldr	r3, [r0, #8]
   d78e6:	b1eb      	cbz	r3, d7924 <_ZNK5spark9JSONValue4typeEv+0x40>
        return JSON_TYPE_INVALID;
    }
    switch (t_->type) {
   d78e8:	781a      	ldrb	r2, [r3, #0]
   d78ea:	2a03      	cmp	r2, #3
   d78ec:	d81a      	bhi.n	d7924 <_ZNK5spark9JSONValue4typeEv+0x40>
   d78ee:	e8df f002 	tbb	[pc, r2]
   d78f2:	1704      	.short	0x1704
   d78f4:	1b02      	.short	0x1b02
   d78f6:	2005      	movs	r0, #5
   d78f8:	4770      	bx	lr
    case JSMN_PRIMITIVE: {
        const char c = d_->json[t_->start];
   d78fa:	6802      	ldr	r2, [r0, #0]
   d78fc:	685b      	ldr	r3, [r3, #4]
   d78fe:	6852      	ldr	r2, [r2, #4]
   d7900:	5cd0      	ldrb	r0, [r2, r3]
        if (c == '-' || (c >= '0' && c <= '9')) {
   d7902:	282d      	cmp	r0, #45	; 0x2d
   d7904:	d012      	beq.n	d792c <_ZNK5spark9JSONValue4typeEv+0x48>
   d7906:	f1a0 0330 	sub.w	r3, r0, #48	; 0x30
   d790a:	2b09      	cmp	r3, #9
   d790c:	d90e      	bls.n	d792c <_ZNK5spark9JSONValue4typeEv+0x48>
            return JSON_TYPE_NUMBER;
        } else if (c == 't' || c == 'f') { // Literal names are always in lower case
   d790e:	2874      	cmp	r0, #116	; 0x74
   d7910:	d00e      	beq.n	d7930 <_ZNK5spark9JSONValue4typeEv+0x4c>
   d7912:	2866      	cmp	r0, #102	; 0x66
   d7914:	d00c      	beq.n	d7930 <_ZNK5spark9JSONValue4typeEv+0x4c>
        return JSON_TYPE_INVALID;
   d7916:	f1a0 036e 	sub.w	r3, r0, #110	; 0x6e
   d791a:	4258      	negs	r0, r3
   d791c:	4158      	adcs	r0, r3
   d791e:	4770      	bx	lr
    case JSMN_STRING:
        return JSON_TYPE_STRING;
    case JSMN_ARRAY:
        return JSON_TYPE_ARRAY;
    case JSMN_OBJECT:
        return JSON_TYPE_OBJECT;
   d7920:	2006      	movs	r0, #6
   d7922:	4770      	bx	lr
    default:
        return JSON_TYPE_INVALID;
   d7924:	2000      	movs	r0, #0
   d7926:	4770      	bx	lr
        return JSON_TYPE_STRING;
   d7928:	2004      	movs	r0, #4
   d792a:	4770      	bx	lr
            return JSON_TYPE_NUMBER;
   d792c:	2003      	movs	r0, #3
   d792e:	4770      	bx	lr
            return JSON_TYPE_BOOL;
   d7930:	2002      	movs	r0, #2
    }
}
   d7932:	4770      	bx	lr
   d7934:	0000      	movs	r0, r0
	...

000d7938 <_ZNK5spark9JSONValue8toDoubleEv>:
double spark::JSONValue::toDouble() const {
   d7938:	b510      	push	{r4, lr}
   d793a:	4604      	mov	r4, r0
    switch (type()) {
   d793c:	f7ff ffd2 	bl	d78e4 <_ZNK5spark9JSONValue4typeEv>
   d7940:	2802      	cmp	r0, #2
   d7942:	d00d      	beq.n	d7960 <_ZNK5spark9JSONValue8toDoubleEv+0x28>
   d7944:	1ec3      	subs	r3, r0, #3
   d7946:	b2db      	uxtb	r3, r3
   d7948:	2b01      	cmp	r3, #1
   d794a:	d810      	bhi.n	d796e <_ZNK5spark9JSONValue8toDoubleEv+0x36>
        const char* const s = d_->json + t_->start;
   d794c:	6822      	ldr	r2, [r4, #0]
   d794e:	68a3      	ldr	r3, [r4, #8]
   d7950:	6850      	ldr	r0, [r2, #4]
   d7952:	685b      	ldr	r3, [r3, #4]
}
   d7954:	e8bd 4010 	ldmia.w	sp!, {r4, lr}
        return strtod(s, nullptr);
   d7958:	2100      	movs	r1, #0
   d795a:	4418      	add	r0, r3
   d795c:	f003 bc06 	b.w	db16c <strtod>
        const char* const s = d_->json + t_->start;
   d7960:	6822      	ldr	r2, [r4, #0]
   d7962:	68a3      	ldr	r3, [r4, #8]
        return *s == 't';
   d7964:	6852      	ldr	r2, [r2, #4]
   d7966:	685b      	ldr	r3, [r3, #4]
   d7968:	5cd3      	ldrb	r3, [r2, r3]
   d796a:	2b74      	cmp	r3, #116	; 0x74
   d796c:	d002      	beq.n	d7974 <_ZNK5spark9JSONValue8toDoubleEv+0x3c>
    switch (type()) {
   d796e:	ed9f 0b04 	vldr	d0, [pc, #16]	; d7980 <_ZNK5spark9JSONValue8toDoubleEv+0x48>
}
   d7972:	bd10      	pop	{r4, pc}
        return *s == 't';
   d7974:	ed9f 0b04 	vldr	d0, [pc, #16]	; d7988 <_ZNK5spark9JSONValue8toDoubleEv+0x50>
   d7978:	e7fb      	b.n	d7972 <_ZNK5spark9JSONValue8toDoubleEv+0x3a>
   d797a:	bf00      	nop
   d797c:	f3af 8000 	nop.w
	...
   d798c:	3ff00000 	.word	0x3ff00000

000d7990 <_ZN5spark9JSONValue8tokenizeEPKcjPP9jsmntok_tPj>:
        return JSONValue();
    }
    return JSONValue(d->tokens, d);
}

bool spark::JSONValue::tokenize(const char *json, size_t size, jsmntok_t **tokens, size_t *count) {
   d7990:	e92d 47f0 	stmdb	sp!, {r4, r5, r6, r7, r8, r9, sl, lr}
   d7994:	b086      	sub	sp, #24
   d7996:	4607      	mov	r7, r0
   d7998:	4688      	mov	r8, r1
    jsmn_parser parser;
    parser.size = sizeof(jsmn_parser);
    jsmn_init(&parser, nullptr);
   d799a:	a802      	add	r0, sp, #8
   d799c:	2100      	movs	r1, #0
    const int n = jsmn_parse(&parser, json, size, nullptr, 0, nullptr); // Get number of tokens
   d799e:	2400      	movs	r4, #0
bool spark::JSONValue::tokenize(const char *json, size_t size, jsmntok_t **tokens, size_t *count) {
   d79a0:	4699      	mov	r9, r3
    parser.size = sizeof(jsmn_parser);
   d79a2:	2310      	movs	r3, #16
bool spark::JSONValue::tokenize(const char *json, size_t size, jsmntok_t **tokens, size_t *count) {
   d79a4:	4692      	mov	sl, r2
    parser.size = sizeof(jsmn_parser);
   d79a6:	9302      	str	r3, [sp, #8]
    jsmn_init(&parser, nullptr);
   d79a8:	f7ff f9fc 	bl	d6da4 <jsmn_init>
    const int n = jsmn_parse(&parser, json, size, nullptr, 0, nullptr); // Get number of tokens
   d79ac:	e9cd 4400 	strd	r4, r4, [sp]
   d79b0:	4623      	mov	r3, r4
   d79b2:	4642      	mov	r2, r8
   d79b4:	4639      	mov	r1, r7
   d79b6:	a802      	add	r0, sp, #8
   d79b8:	f7ff f9fc 	bl	d6db4 <jsmn_parse>
    if (n <= 0) {
   d79bc:	1e06      	subs	r6, r0, #0
   d79be:	dd1e      	ble.n	d79fe <_ZN5spark9JSONValue8tokenizeEPKcjPP9jsmntok_tPj+0x6e>
        return false; // Parsing error
    }
    std::unique_ptr<jsmntok_t[]> t(new(std::nothrow) jsmntok_t[n]);
   d79c0:	4910      	ldr	r1, [pc, #64]	; (d7a04 <_ZN5spark9JSONValue8tokenizeEPKcjPP9jsmntok_tPj+0x74>)
   d79c2:	0130      	lsls	r0, r6, #4
   d79c4:	f001 fc7b 	bl	d92be <_ZnajRKSt9nothrow_t>
    if (!t) {
   d79c8:	4605      	mov	r5, r0
   d79ca:	b190      	cbz	r0, d79f2 <_ZN5spark9JSONValue8tokenizeEPKcjPP9jsmntok_tPj+0x62>
        return false;
    }
    jsmn_init(&parser, nullptr); // Reset parser
   d79cc:	4621      	mov	r1, r4
   d79ce:	a802      	add	r0, sp, #8
   d79d0:	f7ff f9e8 	bl	d6da4 <jsmn_init>
    if (jsmn_parse(&parser, json, size, t.get(), n, nullptr) <= 0) {
   d79d4:	e9cd 6400 	strd	r6, r4, [sp]
   d79d8:	462b      	mov	r3, r5
   d79da:	4642      	mov	r2, r8
   d79dc:	4639      	mov	r1, r7
   d79de:	a802      	add	r0, sp, #8
   d79e0:	f7ff f9e8 	bl	d6db4 <jsmn_parse>
   d79e4:	42a0      	cmp	r0, r4
   d79e6:	dd07      	ble.n	d79f8 <_ZN5spark9JSONValue8tokenizeEPKcjPP9jsmntok_tPj+0x68>
        return false;
    }
    *tokens = t.release();
   d79e8:	f8ca 5000 	str.w	r5, [sl]
    *count = n;
    return true;
   d79ec:	2001      	movs	r0, #1
    *count = n;
   d79ee:	f8c9 6000 	str.w	r6, [r9]
}
   d79f2:	b006      	add	sp, #24
   d79f4:	e8bd 87f0 	ldmia.w	sp!, {r4, r5, r6, r7, r8, r9, sl, pc}
      typename enable_if<is_convertible<_Up(*)[], _Tp(*)[]>::value>::type
	operator()(_Up* __ptr) const
      {
	static_assert(sizeof(_Tp)>0,
		      "can't delete pointer to incomplete type");
	delete [] __ptr;
   d79f8:	4628      	mov	r0, r5
   d79fa:	f7fc fb52 	bl	d40a2 <_ZdaPv>
      }
   d79fe:	4620      	mov	r0, r4
   d7a00:	e7f7      	b.n	d79f2 <_ZN5spark9JSONValue8tokenizeEPKcjPP9jsmntok_tPj+0x62>
   d7a02:	bf00      	nop
   d7a04:	000dcd70 	.word	0x000dcd70

000d7a08 <_ZN5spark9JSONValue8unescapeEP9jsmntok_tPc>:
        ++t;
    }
    return true;
}

bool spark::JSONValue::unescape(jsmntok_t *t, char *json) {
   d7a08:	e92d 4ff8 	stmdb	sp!, {r3, r4, r5, r6, r7, r8, r9, sl, fp, lr}
    char *str = json + t->start; // Destination string
   d7a0c:	6843      	ldr	r3, [r0, #4]
    const char* const end = json + t->end; // End of the source string
   d7a0e:	6886      	ldr	r6, [r0, #8]
    char *str = json + t->start; // Destination string
   d7a10:	440b      	add	r3, r1
bool spark::JSONValue::unescape(jsmntok_t *t, char *json) {
   d7a12:	4688      	mov	r8, r1
    const char* const end = json + t->end; // End of the source string
   d7a14:	440e      	add	r6, r1
bool spark::JSONValue::unescape(jsmntok_t *t, char *json) {
   d7a16:	4607      	mov	r7, r0
    const char *s1 = str; // Beginning of an unescaped sequence
    const char *s = s1;
   d7a18:	461c      	mov	r4, r3
    const char *s1 = str; // Beginning of an unescaped sequence
   d7a1a:	4619      	mov	r1, r3
                    break;
                case 'f': // Form feed
                    *str = 0x0c;
                    break;
                case 'r': // Carriage return
                    *str = 0x0d;
   d7a1c:	f04f 090d 	mov.w	r9, #13
                    *str = 0x09;
   d7a20:	f04f 0a09 	mov.w	sl, #9
    while (s != end) {
   d7a24:	42b4      	cmp	r4, r6
   d7a26:	d063      	beq.n	d7af0 <_ZN5spark9JSONValue8unescapeEP9jsmntok_tPc+0xe8>
        if (*s == '\\') {
   d7a28:	4625      	mov	r5, r4
   d7a2a:	f815 2b01 	ldrb.w	r2, [r5], #1
   d7a2e:	2a5c      	cmp	r2, #92	; 0x5c
   d7a30:	d12b      	bne.n	d7a8a <_ZN5spark9JSONValue8unescapeEP9jsmntok_tPc+0x82>
            if (s != s1) {
   d7a32:	42a1      	cmp	r1, r4
   d7a34:	d007      	beq.n	d7a46 <_ZN5spark9JSONValue8unescapeEP9jsmntok_tPc+0x3e>
                const size_t n = s - s1;
   d7a36:	eba4 0b01 	sub.w	fp, r4, r1
                memmove(str, s1, n); // Shift preceeding characters
   d7a3a:	4618      	mov	r0, r3
   d7a3c:	465a      	mov	r2, fp
   d7a3e:	f002 fc97 	bl	da370 <memmove>
   d7a42:	4603      	mov	r3, r0
                str += n;
   d7a44:	445b      	add	r3, fp
            if (s == end) {
   d7a46:	42b5      	cmp	r5, r6
   d7a48:	d039      	beq.n	d7abe <_ZN5spark9JSONValue8unescapeEP9jsmntok_tPc+0xb6>
            if (*s == 'u') { // Arbitrary character, e.g. "\u001f"
   d7a4a:	7862      	ldrb	r2, [r4, #1]
   d7a4c:	2a75      	cmp	r2, #117	; 0x75
   d7a4e:	d12a      	bne.n	d7aa6 <_ZN5spark9JSONValue8unescapeEP9jsmntok_tPc+0x9e>
                ++s;
   d7a50:	1ca2      	adds	r2, r4, #2
                if (end - s < 4) {
   d7a52:	1ab2      	subs	r2, r6, r2
   d7a54:	2a03      	cmp	r2, #3
   d7a56:	dd32      	ble.n	d7abe <_ZN5spark9JSONValue8unescapeEP9jsmntok_tPc+0xb6>
    const char* const end = s + size;
   d7a58:	1da0      	adds	r0, r4, #6
   d7a5a:	f104 0e05 	add.w	lr, r4, #5
    uint32_t v = 0;
   d7a5e:	f04f 0c00 	mov.w	ip, #0
    while (s != end) {
   d7a62:	45ae      	cmp	lr, r5
   d7a64:	d053      	beq.n	d7b0e <_ZN5spark9JSONValue8unescapeEP9jsmntok_tPc+0x106>
        const char c = *s;
   d7a66:	f815 1f01 	ldrb.w	r1, [r5, #1]!
        if (c >= '0' && c <= '9') {
   d7a6a:	f1a1 0230 	sub.w	r2, r1, #48	; 0x30
   d7a6e:	fa5f fb82 	uxtb.w	fp, r2
   d7a72:	f1bb 0f09 	cmp.w	fp, #9
   d7a76:	d905      	bls.n	d7a84 <_ZN5spark9JSONValue8unescapeEP9jsmntok_tPc+0x7c>
        } else if (c >= 'a' && c <= 'f') {
   d7a78:	f1a1 0261 	sub.w	r2, r1, #97	; 0x61
   d7a7c:	2a05      	cmp	r2, #5
   d7a7e:	d807      	bhi.n	d7a90 <_ZN5spark9JSONValue8unescapeEP9jsmntok_tPc+0x88>
            n = c - 'a' + 10;
   d7a80:	f1a1 0257 	sub.w	r2, r1, #87	; 0x57
        v = (v << 4) | n;
   d7a84:	ea42 1c0c 	orr.w	ip, r2, ip, lsl #4
    while (s != end) {
   d7a88:	e7eb      	b.n	d7a62 <_ZN5spark9JSONValue8unescapeEP9jsmntok_tPc+0x5a>
   d7a8a:	4628      	mov	r0, r5
   d7a8c:	4604      	mov	r4, r0
   d7a8e:	e7c9      	b.n	d7a24 <_ZN5spark9JSONValue8unescapeEP9jsmntok_tPc+0x1c>
        } else if (c >= 'A' && c <= 'F') {
   d7a90:	f1a1 0241 	sub.w	r2, r1, #65	; 0x41
   d7a94:	2a05      	cmp	r2, #5
   d7a96:	d812      	bhi.n	d7abe <_ZN5spark9JSONValue8unescapeEP9jsmntok_tPc+0xb6>
            n = c - 'A' + 10;
   d7a98:	f1a1 0237 	sub.w	r2, r1, #55	; 0x37
   d7a9c:	e7f2      	b.n	d7a84 <_ZN5spark9JSONValue8unescapeEP9jsmntok_tPc+0x7c>
                    *str = u;
   d7a9e:	f803 cb01 	strb.w	ip, [r3], #1
                    s1 += 6; // Skip escaped sequence
   d7aa2:	4601      	mov	r1, r0
   d7aa4:	e7f2      	b.n	d7a8c <_ZN5spark9JSONValue8unescapeEP9jsmntok_tPc+0x84>
                switch (*s) {
   d7aa6:	2a6e      	cmp	r2, #110	; 0x6e
   d7aa8:	d01c      	beq.n	d7ae4 <_ZN5spark9JSONValue8unescapeEP9jsmntok_tPc+0xdc>
   d7aaa:	d80e      	bhi.n	d7aca <_ZN5spark9JSONValue8unescapeEP9jsmntok_tPc+0xc2>
   d7aac:	2a62      	cmp	r2, #98	; 0x62
   d7aae:	d013      	beq.n	d7ad8 <_ZN5spark9JSONValue8unescapeEP9jsmntok_tPc+0xd0>
   d7ab0:	d807      	bhi.n	d7ac2 <_ZN5spark9JSONValue8unescapeEP9jsmntok_tPc+0xba>
   d7ab2:	2a2f      	cmp	r2, #47	; 0x2f
   d7ab4:	d011      	beq.n	d7ada <_ZN5spark9JSONValue8unescapeEP9jsmntok_tPc+0xd2>
   d7ab6:	2a5c      	cmp	r2, #92	; 0x5c
   d7ab8:	d00f      	beq.n	d7ada <_ZN5spark9JSONValue8unescapeEP9jsmntok_tPc+0xd2>
   d7aba:	2a22      	cmp	r2, #34	; 0x22
   d7abc:	d00d      	beq.n	d7ada <_ZN5spark9JSONValue8unescapeEP9jsmntok_tPc+0xd2>
                return false; // Unexpected end of string
   d7abe:	2000      	movs	r0, #0
   d7ac0:	e023      	b.n	d7b0a <_ZN5spark9JSONValue8unescapeEP9jsmntok_tPc+0x102>
                switch (*s) {
   d7ac2:	2a66      	cmp	r2, #102	; 0x66
   d7ac4:	d1fb      	bne.n	d7abe <_ZN5spark9JSONValue8unescapeEP9jsmntok_tPc+0xb6>
                    *str = 0x0c;
   d7ac6:	220c      	movs	r2, #12
   d7ac8:	e007      	b.n	d7ada <_ZN5spark9JSONValue8unescapeEP9jsmntok_tPc+0xd2>
                switch (*s) {
   d7aca:	2a72      	cmp	r2, #114	; 0x72
   d7acc:	d00d      	beq.n	d7aea <_ZN5spark9JSONValue8unescapeEP9jsmntok_tPc+0xe2>
   d7ace:	2a74      	cmp	r2, #116	; 0x74
   d7ad0:	d1f5      	bne.n	d7abe <_ZN5spark9JSONValue8unescapeEP9jsmntok_tPc+0xb6>
                    *str = 0x09;
   d7ad2:	f883 a000 	strb.w	sl, [r3]
                    break;
   d7ad6:	e001      	b.n	d7adc <_ZN5spark9JSONValue8unescapeEP9jsmntok_tPc+0xd4>
                    *str = 0x08;
   d7ad8:	2208      	movs	r2, #8
   d7ada:	701a      	strb	r2, [r3, #0]
                    break;
                default:
                    return false; // Invalid escaped sequence
                }
                ++str;
                ++s;
   d7adc:	1ca1      	adds	r1, r4, #2
                ++str;
   d7ade:	3301      	adds	r3, #1
                ++s;
   d7ae0:	4608      	mov	r0, r1
   d7ae2:	e7d3      	b.n	d7a8c <_ZN5spark9JSONValue8unescapeEP9jsmntok_tPc+0x84>
                    *str = 0x0a;
   d7ae4:	f04f 020a 	mov.w	r2, #10
   d7ae8:	e7f7      	b.n	d7ada <_ZN5spark9JSONValue8unescapeEP9jsmntok_tPc+0xd2>
                    *str = 0x0d;
   d7aea:	f883 9000 	strb.w	r9, [r3]
                    break;
   d7aee:	e7f5      	b.n	d7adc <_ZN5spark9JSONValue8unescapeEP9jsmntok_tPc+0xd4>
            }
        } else {
            ++s;
        }
    }
    if (s != s1) {
   d7af0:	42a1      	cmp	r1, r4
   d7af2:	d006      	beq.n	d7b02 <_ZN5spark9JSONValue8unescapeEP9jsmntok_tPc+0xfa>
        const size_t n = s - s1;
   d7af4:	1a64      	subs	r4, r4, r1
        memmove(str, s1, n); // Shift remaining characters
   d7af6:	4618      	mov	r0, r3
   d7af8:	4622      	mov	r2, r4
   d7afa:	f002 fc39 	bl	da370 <memmove>
   d7afe:	4603      	mov	r3, r0
        str += n;
   d7b00:	4423      	add	r3, r4
    }
    t->end = str - json; // Update string length
   d7b02:	eba3 0308 	sub.w	r3, r3, r8
   d7b06:	60bb      	str	r3, [r7, #8]
    return true;
   d7b08:	2001      	movs	r0, #1
}
   d7b0a:	e8bd 8ff8 	ldmia.w	sp!, {r3, r4, r5, r6, r7, r8, r9, sl, fp, pc}
                if (u <= 0x7f) { // Processing only code points within the basic latin block
   d7b0e:	f1bc 0f7f 	cmp.w	ip, #127	; 0x7f
   d7b12:	d9c4      	bls.n	d7a9e <_ZN5spark9JSONValue8unescapeEP9jsmntok_tPc+0x96>
   d7b14:	4621      	mov	r1, r4
   d7b16:	e7b9      	b.n	d7a8c <_ZN5spark9JSONValue8unescapeEP9jsmntok_tPc+0x84>

000d7b18 <_ZN5spark9JSONValue9stringizeEP9jsmntok_tjPc>:
bool spark::JSONValue::stringize(jsmntok_t *t, size_t count, char *json) {
   d7b18:	b5f8      	push	{r3, r4, r5, r6, r7, lr}
   d7b1a:	4604      	mov	r4, r0
   d7b1c:	4615      	mov	r5, r2
    const jsmntok_t* const end = t + count;
   d7b1e:	eb00 1601 	add.w	r6, r0, r1, lsl #4
            json[t->end] = '\0';
   d7b22:	2700      	movs	r7, #0
    while (t != end) {
   d7b24:	42b4      	cmp	r4, r6
   d7b26:	d010      	beq.n	d7b4a <_ZN5spark9JSONValue9stringizeEP9jsmntok_tjPc+0x32>
        if (t->type == JSMN_STRING) {
   d7b28:	7823      	ldrb	r3, [r4, #0]
   d7b2a:	2b03      	cmp	r3, #3
   d7b2c:	d108      	bne.n	d7b40 <_ZN5spark9JSONValue9stringizeEP9jsmntok_tjPc+0x28>
            if (!unescape(t, json)) {
   d7b2e:	4629      	mov	r1, r5
   d7b30:	4620      	mov	r0, r4
   d7b32:	f7ff ff69 	bl	d7a08 <_ZN5spark9JSONValue8unescapeEP9jsmntok_tPc>
   d7b36:	b148      	cbz	r0, d7b4c <_ZN5spark9JSONValue9stringizeEP9jsmntok_tjPc+0x34>
            json[t->end] = '\0';
   d7b38:	68a3      	ldr	r3, [r4, #8]
   d7b3a:	54ef      	strb	r7, [r5, r3]
        ++t;
   d7b3c:	3410      	adds	r4, #16
    while (t != end) {
   d7b3e:	e7f1      	b.n	d7b24 <_ZN5spark9JSONValue9stringizeEP9jsmntok_tjPc+0xc>
        } else if (t->type == JSMN_PRIMITIVE) {
   d7b40:	2b00      	cmp	r3, #0
   d7b42:	d1fb      	bne.n	d7b3c <_ZN5spark9JSONValue9stringizeEP9jsmntok_tjPc+0x24>
            json[t->end] = '\0';
   d7b44:	68a2      	ldr	r2, [r4, #8]
   d7b46:	54ab      	strb	r3, [r5, r2]
   d7b48:	e7f8      	b.n	d7b3c <_ZN5spark9JSONValue9stringizeEP9jsmntok_tjPc+0x24>
    return true;
   d7b4a:	2001      	movs	r0, #1
}
   d7b4c:	bdf8      	pop	{r3, r4, r5, r6, r7, pc}
	...

000d7b50 <_ZN5spark10JSONStringC1EPK9jsmntok_tSt10shared_ptrINS_6detail8JSONDataEE>:

// spark::JSONString
spark::JSONString::JSONString(const jsmntok_t *t, detail::JSONDataPtr d) :
   d7b50:	b538      	push	{r3, r4, r5, lr}
      : _M_ptr(0), _M_refcount()
   d7b52:	2300      	movs	r3, #0
      constexpr __shared_count() noexcept : _M_pi(0)
   d7b54:	e9c0 3300 	strd	r3, r3, [r0]
   d7b58:	4604      	mov	r4, r0
}

// spark::JSONString
inline spark::JSONString::JSONString() :
        s_(""),
        n_(0) {
   d7b5a:	480e      	ldr	r0, [pc, #56]	; (d7b94 <_ZN5spark10JSONStringC1EPK9jsmntok_tSt10shared_ptrINS_6detail8JSONDataEE+0x44>)
   d7b5c:	e9c4 0302 	strd	r0, r3, [r4, #8]
        JSONString() {
    if (t && (t->type == JSMN_STRING || t->type == JSMN_PRIMITIVE)) {
   d7b60:	b1a9      	cbz	r1, d7b8e <_ZN5spark10JSONStringC1EPK9jsmntok_tSt10shared_ptrINS_6detail8JSONDataEE+0x3e>
   d7b62:	780b      	ldrb	r3, [r1, #0]
   d7b64:	2b03      	cmp	r3, #3
   d7b66:	d006      	beq.n	d7b76 <_ZN5spark10JSONStringC1EPK9jsmntok_tSt10shared_ptrINS_6detail8JSONDataEE+0x26>
   d7b68:	b98b      	cbnz	r3, d7b8e <_ZN5spark10JSONStringC1EPK9jsmntok_tSt10shared_ptrINS_6detail8JSONDataEE+0x3e>
        if (t->type != JSMN_PRIMITIVE || d->json[t->start] != 'n') { // Nulls are treated as empty strings
   d7b6a:	6813      	ldr	r3, [r2, #0]
   d7b6c:	6858      	ldr	r0, [r3, #4]
   d7b6e:	684b      	ldr	r3, [r1, #4]
   d7b70:	5cc3      	ldrb	r3, [r0, r3]
   d7b72:	2b6e      	cmp	r3, #110	; 0x6e
   d7b74:	d007      	beq.n	d7b86 <_ZN5spark10JSONStringC1EPK9jsmntok_tSt10shared_ptrINS_6detail8JSONDataEE+0x36>
            s_ = d->json + t->start;
   d7b76:	6813      	ldr	r3, [r2, #0]
   d7b78:	684d      	ldr	r5, [r1, #4]
   d7b7a:	6858      	ldr	r0, [r3, #4]
            n_ = t->end - t->start;
   d7b7c:	688b      	ldr	r3, [r1, #8]
            s_ = d->json + t->start;
   d7b7e:	4428      	add	r0, r5
            n_ = t->end - t->start;
   d7b80:	1b5b      	subs	r3, r3, r5
            s_ = d->json + t->start;
   d7b82:	60a0      	str	r0, [r4, #8]
            n_ = t->end - t->start;
   d7b84:	60e3      	str	r3, [r4, #12]
   d7b86:	4611      	mov	r1, r2
   d7b88:	4620      	mov	r0, r4
   d7b8a:	f7ff fe86 	bl	d789a <_ZNSt12__shared_ptrIN5spark6detail8JSONDataELN9__gnu_cxx12_Lock_policyE0EEaSERKS5_>
        }
        d_ = d;
    }
}
   d7b8e:	4620      	mov	r0, r4
   d7b90:	bd38      	pop	{r3, r4, r5, pc}
   d7b92:	bf00      	nop
   d7b94:	000dc80f 	.word	0x000dc80f

000d7b98 <_ZN5spark18JSONObjectIteratorC1EPK9jsmntok_tSt10shared_ptrINS_6detail8JSONDataEE>:
bool spark::JSONString::operator==(const JSONString &str) const {
    return n_ == str.n_ && strncmp(s_, str.s_, n_) == 0;
}

// spark::JSONObjectIterator
spark::JSONObjectIterator::JSONObjectIterator(const jsmntok_t *t, detail::JSONDataPtr d) :
   d7b98:	b538      	push	{r3, r4, r5, lr}
      : _M_ptr(0), _M_refcount()
   d7b9a:	2500      	movs	r5, #0
   d7b9c:	460b      	mov	r3, r1
      constexpr __shared_count() noexcept : _M_pi(0)
   d7b9e:	e9c0 5500 	strd	r5, r5, [r0]
// spark::JSONObjectIterator
inline spark::JSONObjectIterator::JSONObjectIterator() :
        t_(nullptr),
        k_(nullptr),
        v_(nullptr),
        n_(0) {
   d7ba2:	e9c0 5502 	strd	r5, r5, [r0, #8]
   d7ba6:	e9c0 5504 	strd	r5, r5, [r0, #16]
   d7baa:	4604      	mov	r4, r0
   d7bac:	4611      	mov	r1, r2
        JSONObjectIterator() {
    if (t && t->type == JSMN_OBJECT) {
   d7bae:	b14b      	cbz	r3, d7bc4 <_ZN5spark18JSONObjectIteratorC1EPK9jsmntok_tSt10shared_ptrINS_6detail8JSONDataEE+0x2c>
   d7bb0:	781a      	ldrb	r2, [r3, #0]
   d7bb2:	2a01      	cmp	r2, #1
   d7bb4:	d106      	bne.n	d7bc4 <_ZN5spark18JSONObjectIteratorC1EPK9jsmntok_tSt10shared_ptrINS_6detail8JSONDataEE+0x2c>
        t_ = t + 1; // First property's name
   d7bb6:	f103 0210 	add.w	r2, r3, #16
        n_ = t->size; // Number of properties
   d7bba:	68db      	ldr	r3, [r3, #12]
        t_ = t + 1; // First property's name
   d7bbc:	6082      	str	r2, [r0, #8]
        n_ = t->size; // Number of properties
   d7bbe:	6143      	str	r3, [r0, #20]
   d7bc0:	f7ff fe6b 	bl	d789a <_ZNSt12__shared_ptrIN5spark6detail8JSONDataELN9__gnu_cxx12_Lock_policyE0EEaSERKS5_>
        d_ = d;
    }
}
   d7bc4:	4620      	mov	r0, r4
   d7bc6:	bd38      	pop	{r3, r4, r5, pc}

000d7bc8 <_ZN5spark18JSONObjectIterator4nextEv>:

bool spark::JSONObjectIterator::next() {
   d7bc8:	b510      	push	{r4, lr}
    if (!n_) {
   d7bca:	6943      	ldr	r3, [r0, #20]
bool spark::JSONObjectIterator::next() {
   d7bcc:	4604      	mov	r4, r0
    if (!n_) {
   d7bce:	b163      	cbz	r3, d7bea <_ZN5spark18JSONObjectIterator4nextEv+0x22>
        return false;
    }
    k_ = t_; // Name
   d7bd0:	6880      	ldr	r0, [r0, #8]
   d7bd2:	60e0      	str	r0, [r4, #12]
    ++t_;
    v_ = t_; // Value
    --n_;
   d7bd4:	3b01      	subs	r3, #1
    ++t_;
   d7bd6:	3010      	adds	r0, #16
   d7bd8:	60a0      	str	r0, [r4, #8]
    v_ = t_; // Value
   d7bda:	6120      	str	r0, [r4, #16]
    --n_;
   d7bdc:	6163      	str	r3, [r4, #20]
    if (n_) {
   d7bde:	b113      	cbz	r3, d7be6 <_ZN5spark18JSONObjectIterator4nextEv+0x1e>
        t_ = skipToken(t_);
   d7be0:	f7ff fe12 	bl	d7808 <_ZN12_GLOBAL__N_19skipTokenEPK9jsmntok_t>
   d7be4:	60a0      	str	r0, [r4, #8]
    }
    return true;
   d7be6:	2001      	movs	r0, #1
   d7be8:	e000      	b.n	d7bec <_ZN5spark18JSONObjectIterator4nextEv+0x24>
        return false;
   d7bea:	4618      	mov	r0, r3
}
   d7bec:	bd10      	pop	{r4, pc}
	...

000d7bf0 <_ZNSt14__shared_countILN9__gnu_cxx12_Lock_policyE0EEC1IPN5spark6detail8JSONDataEEET_>:
	__shared_count(_Ptr __p) : _M_pi(0)
   d7bf0:	b538      	push	{r3, r4, r5, lr}
   d7bf2:	2300      	movs	r3, #0
   d7bf4:	4604      	mov	r4, r0
   d7bf6:	6003      	str	r3, [r0, #0]
	      _M_pi = new _Sp_counted_ptr<_Ptr, _Lp>(__p);
   d7bf8:	2010      	movs	r0, #16
	__shared_count(_Ptr __p) : _M_pi(0)
   d7bfa:	460d      	mov	r5, r1
	      _M_pi = new _Sp_counted_ptr<_Ptr, _Lp>(__p);
   d7bfc:	f7fc fa4b 	bl	d4096 <_Znwj>
   d7c00:	b128      	cbz	r0, d7c0e <_ZNSt14__shared_countILN9__gnu_cxx12_Lock_policyE0EEC1IPN5spark6detail8JSONDataEEET_+0x1e>
      : _M_use_count(1), _M_weak_count(1) { }
   d7c02:	2301      	movs	r3, #1
   d7c04:	e9c0 3301 	strd	r3, r3, [r0, #4]
      : _M_ptr(__p) { }
   d7c08:	4b02      	ldr	r3, [pc, #8]	; (d7c14 <_ZNSt14__shared_countILN9__gnu_cxx12_Lock_policyE0EEC1IPN5spark6detail8JSONDataEEET_+0x24>)
   d7c0a:	6003      	str	r3, [r0, #0]
   d7c0c:	60c5      	str	r5, [r0, #12]
	      _M_pi = new _Sp_counted_ptr<_Ptr, _Lp>(__p);
   d7c0e:	6020      	str	r0, [r4, #0]
	}
   d7c10:	4620      	mov	r0, r4
   d7c12:	bd38      	pop	{r3, r4, r5, pc}
   d7c14:	000dcb74 	.word	0x000dcb74

000d7c18 <_ZN5spark9JSONValue9parseCopyEPKcj>:
spark::JSONValue spark::JSONValue::parseCopy(const char *json, size_t size) {
   d7c18:	b5f0      	push	{r4, r5, r6, r7, lr}
   d7c1a:	4604      	mov	r4, r0
   d7c1c:	b087      	sub	sp, #28
   d7c1e:	460e      	mov	r6, r1
    detail::JSONDataPtr d(new(std::nothrow) detail::JSONData);
   d7c20:	200c      	movs	r0, #12
   d7c22:	4927      	ldr	r1, [pc, #156]	; (d7cc0 <_ZN5spark9JSONValue9parseCopyEPKcj+0xa8>)
spark::JSONValue spark::JSONValue::parseCopy(const char *json, size_t size) {
   d7c24:	4615      	mov	r5, r2
    detail::JSONDataPtr d(new(std::nothrow) detail::JSONData);
   d7c26:	f001 fb48 	bl	d92ba <_ZnwjRKSt9nothrow_t>
   d7c2a:	4601      	mov	r1, r0
   d7c2c:	b118      	cbz	r0, d7c36 <_ZN5spark9JSONValue9parseCopyEPKcj+0x1e>
            freeJson(false) {
   d7c2e:	2300      	movs	r3, #0
   d7c30:	e9c0 3300 	strd	r3, r3, [r0]
   d7c34:	7203      	strb	r3, [r0, #8]
	: __shared_count(__p)
   d7c36:	a803      	add	r0, sp, #12
	: _M_ptr(__p), _M_refcount(__p, typename is_array<_Tp>::type())
   d7c38:	9102      	str	r1, [sp, #8]
	: __shared_count(__p)
   d7c3a:	f7ff ffd9 	bl	d7bf0 <_ZNSt14__shared_countILN9__gnu_cxx12_Lock_policyE0EEC1IPN5spark6detail8JSONDataEEET_>
    if (!d) {
   d7c3e:	9a02      	ldr	r2, [sp, #8]
   d7c40:	b942      	cbnz	r2, d7c54 <_ZN5spark9JSONValue9parseCopyEPKcj+0x3c>
      constexpr __shared_count() noexcept : _M_pi(0)
   d7c42:	e9c4 2200 	strd	r2, r2, [r4]
        t_(nullptr) {
   d7c46:	60a2      	str	r2, [r4, #8]
      ~__shared_ptr() = default;
   d7c48:	a803      	add	r0, sp, #12
   d7c4a:	f7fc fbff 	bl	d444c <_ZNSt14__shared_countILN9__gnu_cxx12_Lock_policyE0EED1Ev>
}
   d7c4e:	4620      	mov	r0, r4
   d7c50:	b007      	add	sp, #28
   d7c52:	bdf0      	pop	{r4, r5, r6, r7, pc}
    size_t tokenCount = 0;
   d7c54:	2300      	movs	r3, #0
   d7c56:	9301      	str	r3, [sp, #4]
    if (!tokenize(json, size, &d->tokens, &tokenCount)) {
   d7c58:	4629      	mov	r1, r5
   d7c5a:	ab01      	add	r3, sp, #4
   d7c5c:	4630      	mov	r0, r6
   d7c5e:	f7ff fe97 	bl	d7990 <_ZN5spark9JSONValue8tokenizeEPKcjPP9jsmntok_tPj>
   d7c62:	b918      	cbnz	r0, d7c6c <_ZN5spark9JSONValue9parseCopyEPKcj+0x54>
      constexpr __shared_count() noexcept : _M_pi(0)
   d7c64:	e9c4 0000 	strd	r0, r0, [r4]
   d7c68:	60a0      	str	r0, [r4, #8]
}
   d7c6a:	e7ed      	b.n	d7c48 <_ZN5spark9JSONValue9parseCopyEPKcj+0x30>
    d->json = new(std::nothrow) char[size + 1];
   d7c6c:	4914      	ldr	r1, [pc, #80]	; (d7cc0 <_ZN5spark9JSONValue9parseCopyEPKcj+0xa8>)
      { return static_cast<const __shared_ptr<_Tp, _Lp>*>(this)->get(); }
   d7c6e:	9f02      	ldr	r7, [sp, #8]
   d7c70:	1c68      	adds	r0, r5, #1
   d7c72:	f001 fb24 	bl	d92be <_ZnajRKSt9nothrow_t>
    if (!d->json) {
   d7c76:	9b02      	ldr	r3, [sp, #8]
    d->json = new(std::nothrow) char[size + 1];
   d7c78:	6078      	str	r0, [r7, #4]
    if (!d->json) {
   d7c7a:	6858      	ldr	r0, [r3, #4]
   d7c7c:	2800      	cmp	r0, #0
   d7c7e:	d0f1      	beq.n	d7c64 <_ZN5spark9JSONValue9parseCopyEPKcj+0x4c>
    memcpy(d->json, json, size); // TODO: Copy only token data
   d7c80:	462a      	mov	r2, r5
   d7c82:	4631      	mov	r1, r6
   d7c84:	f002 fb66 	bl	da354 <memcpy>
   d7c88:	9b02      	ldr	r3, [sp, #8]
    if (!stringize(d->tokens, tokenCount, d->json)) {
   d7c8a:	9901      	ldr	r1, [sp, #4]
   d7c8c:	6818      	ldr	r0, [r3, #0]
    d->freeJson = true;
   d7c8e:	2201      	movs	r2, #1
   d7c90:	721a      	strb	r2, [r3, #8]
    if (!stringize(d->tokens, tokenCount, d->json)) {
   d7c92:	685a      	ldr	r2, [r3, #4]
   d7c94:	f7ff ff40 	bl	d7b18 <_ZN5spark9JSONValue9stringizeEP9jsmntok_tjPc>
   d7c98:	2800      	cmp	r0, #0
   d7c9a:	d0e3      	beq.n	d7c64 <_ZN5spark9JSONValue9parseCopyEPKcj+0x4c>
   d7c9c:	9b02      	ldr	r3, [sp, #8]
    return JSONValue(d->tokens, d);
   d7c9e:	6819      	ldr	r1, [r3, #0]
      __shared_ptr(const __shared_ptr&) noexcept = default;
   d7ca0:	9304      	str	r3, [sp, #16]
      : _M_pi(__r._M_pi)
   d7ca2:	9b03      	ldr	r3, [sp, #12]
   d7ca4:	9305      	str	r3, [sp, #20]
	if (_M_pi != 0)
   d7ca6:	b113      	cbz	r3, d7cae <_ZN5spark9JSONValue9parseCopyEPKcj+0x96>
    { ++_M_use_count; }
   d7ca8:	685a      	ldr	r2, [r3, #4]
   d7caa:	3201      	adds	r2, #1
   d7cac:	605a      	str	r2, [r3, #4]
   d7cae:	aa04      	add	r2, sp, #16
   d7cb0:	4620      	mov	r0, r4
   d7cb2:	f7ff fe09 	bl	d78c8 <_ZN5spark9JSONValueC1EPK9jsmntok_tSt10shared_ptrINS_6detail8JSONDataEE>
      ~__shared_ptr() = default;
   d7cb6:	a805      	add	r0, sp, #20
   d7cb8:	f7fc fbc8 	bl	d444c <_ZNSt14__shared_countILN9__gnu_cxx12_Lock_policyE0EED1Ev>
   d7cbc:	e7c4      	b.n	d7c48 <_ZN5spark9JSONValue9parseCopyEPKcj+0x30>
   d7cbe:	bf00      	nop
   d7cc0:	000dcd70 	.word	0x000dcd70

000d7cc4 <_GLOBAL__sub_I__ZN5spark3LogE>:
    // This handler doesn't support direct logging
}

// spark::Logger
inline spark::Logger::Logger(const char *name) :
        name_(name) {
   d7cc4:	4b01      	ldr	r3, [pc, #4]	; (d7ccc <_GLOBAL__sub_I__ZN5spark3LogE+0x8>)
   d7cc6:	4a02      	ldr	r2, [pc, #8]	; (d7cd0 <_GLOBAL__sub_I__ZN5spark3LogE+0xc>)
   d7cc8:	601a      	str	r2, [r3, #0]
#if Wiring_LogConfig

// spark::
void spark::logProcessControlRequest(ctrl_request* req) {
    JSONRequestHandler::process(req);
}
   d7cca:	4770      	bx	lr
   d7ccc:	2003e650 	.word	0x2003e650
   d7cd0:	000dcb88 	.word	0x000dcb88

000d7cd4 <_ZN5spark12NetworkClass7connectEj>:
        return Network;
    }
}

void NetworkClass::connect(unsigned flags) {
    network_connect(*this, flags, 0, nullptr);
   d7cd4:	2300      	movs	r3, #0
   d7cd6:	6840      	ldr	r0, [r0, #4]
   d7cd8:	461a      	mov	r2, r3
   d7cda:	f7ff b8e7 	b.w	d6eac <network_connect>

000d7cde <_ZN5spark12NetworkClass10disconnectEv>:
}

void NetworkClass::disconnect() {
    network_disconnect(*this, NETWORK_DISCONNECT_REASON_USER, nullptr);
   d7cde:	6840      	ldr	r0, [r0, #4]
   d7ce0:	2200      	movs	r2, #0
   d7ce2:	2102      	movs	r1, #2
   d7ce4:	f7ff b8f2 	b.w	d6ecc <network_disconnect>

000d7ce8 <_ZN5spark12NetworkClass10connectingEv>:
}

bool NetworkClass::connecting() {
    return network_connecting(*this, 0, nullptr);
   d7ce8:	2200      	movs	r2, #0
   d7cea:	6840      	ldr	r0, [r0, #4]
   d7cec:	4611      	mov	r1, r2
   d7cee:	f7ff b8e5 	b.w	d6ebc <network_connecting>

000d7cf2 <_ZN5spark12NetworkClass5readyEv>:
}

bool NetworkClass::ready() {
    return network_ready(*this, 0, nullptr);
   d7cf2:	2200      	movs	r2, #0
   d7cf4:	6840      	ldr	r0, [r0, #4]
   d7cf6:	4611      	mov	r1, r2
   d7cf8:	f7ff b8f0 	b.w	d6edc <network_ready>

000d7cfc <_ZN5spark12NetworkClass2onEv>:
}

void NetworkClass::on() {
    network_on(*this, 0, 0, nullptr);
   d7cfc:	2300      	movs	r3, #0
   d7cfe:	6840      	ldr	r0, [r0, #4]
   d7d00:	461a      	mov	r2, r3
   d7d02:	4619      	mov	r1, r3
   d7d04:	f7ff b8f2 	b.w	d6eec <network_on>

000d7d08 <_ZN5spark12NetworkClass3offEv>:
}

void NetworkClass::off() {
    network_off(*this, 0, 0, nullptr);
   d7d08:	2300      	movs	r3, #0
   d7d0a:	6840      	ldr	r0, [r0, #4]
   d7d0c:	461a      	mov	r2, r3
   d7d0e:	4619      	mov	r1, r3
   d7d10:	f7ff b8f4 	b.w	d6efc <network_off>

000d7d14 <_ZN5spark12NetworkClass4isOnEv>:
}

bool NetworkClass::isOn() {
    return network_is_on(*this, nullptr);
   d7d14:	6840      	ldr	r0, [r0, #4]
   d7d16:	2100      	movs	r1, #0
   d7d18:	f7ff b918 	b.w	d6f4c <network_is_on>

000d7d1c <_ZN5spark12NetworkClass5isOffEv>:
}

bool NetworkClass::isOff() {
    return network_is_off(*this, nullptr);
   d7d1c:	6840      	ldr	r0, [r0, #4]
   d7d1e:	2100      	movs	r1, #0
   d7d20:	f7ff b91c 	b.w	d6f5c <network_is_off>

000d7d24 <_ZN5spark12NetworkClass6listenEb>:
}

void NetworkClass::listen(bool begin) {
    network_listen(*this, begin ? 0 : 1, nullptr);
   d7d24:	6840      	ldr	r0, [r0, #4]
   d7d26:	2200      	movs	r2, #0
   d7d28:	f081 0101 	eor.w	r1, r1, #1
   d7d2c:	f7ff b8ee 	b.w	d6f0c <network_listen>

000d7d30 <_ZN5spark12NetworkClass16setListenTimeoutEt>:
}

void NetworkClass::setListenTimeout(uint16_t timeout) {
    network_set_listen_timeout(*this, timeout, nullptr);
   d7d30:	6840      	ldr	r0, [r0, #4]
   d7d32:	2200      	movs	r2, #0
   d7d34:	f7ff b8fa 	b.w	d6f2c <network_set_listen_timeout>

000d7d38 <_ZN5spark12NetworkClass16getListenTimeoutEv>:
}

uint16_t NetworkClass::getListenTimeout() {
    return network_get_listen_timeout(*this, 0, nullptr);
   d7d38:	2200      	movs	r2, #0
   d7d3a:	6840      	ldr	r0, [r0, #4]
   d7d3c:	4611      	mov	r1, r2
   d7d3e:	f7ff b8fd 	b.w	d6f3c <network_get_listen_timeout>

000d7d42 <_ZN5spark12NetworkClass9listeningEv>:
}

bool NetworkClass::listening() {
    return network_listening(*this, 0, nullptr);
   d7d42:	2200      	movs	r2, #0
   d7d44:	6840      	ldr	r0, [r0, #4]
   d7d46:	4611      	mov	r1, r2
   d7d48:	f7ff b8e8 	b.w	d6f1c <network_listening>

000d7d4c <_ZN5spark12NetworkClass7resolveEPKc>:
}

IPAddress NetworkClass::resolve(const char* name) {
   d7d4c:	e92d 43f0 	stmdb	sp!, {r4, r5, r6, r7, r8, r9, lr}
    IPAddress addr;
#if HAL_USE_INET_HAL_POSIX
    struct addrinfo *ai = nullptr;
   d7d50:	2400      	movs	r4, #0
IPAddress NetworkClass::resolve(const char* name) {
   d7d52:	b095      	sub	sp, #84	; 0x54
   d7d54:	4616      	mov	r6, r2
   d7d56:	460d      	mov	r5, r1
   d7d58:	4607      	mov	r7, r0
    IPAddress addr;
   d7d5a:	f7ff fcf7 	bl	d774c <_ZN9IPAddressC1Ev>
    struct addrinfo hints = {};
   d7d5e:	4621      	mov	r1, r4
   d7d60:	2218      	movs	r2, #24
   d7d62:	a80e      	add	r0, sp, #56	; 0x38
    struct addrinfo *ai = nullptr;
   d7d64:	9400      	str	r4, [sp, #0]
    struct addrinfo hints = {};
   d7d66:	f002 fb1d 	bl	da3a4 <memset>
    hints.ai_flags = AI_ADDRCONFIG;
   d7d6a:	2340      	movs	r3, #64	; 0x40
    hints.ai_family = AF_UNSPEC;
   d7d6c:	e9cd 340c 	strd	r3, r4, [sp, #48]	; 0x30
    const int r = getaddrinfo(name, nullptr, &hints, &ai);
   d7d70:	4621      	mov	r1, r4
   d7d72:	466b      	mov	r3, sp
   d7d74:	aa0c      	add	r2, sp, #48	; 0x30
   d7d76:	4630      	mov	r0, r6
   d7d78:	f7fe ff34 	bl	d6be4 <netdb_getaddrinfo>
    if (!r) {
   d7d7c:	4604      	mov	r4, r0
   d7d7e:	2800      	cmp	r0, #0
   d7d80:	d14c      	bne.n	d7e1c <_ZN5spark12NetworkClass7resolveEPKc+0xd0>
        bool ok = false;
        // This is not really needed if AI_ADDRCONFIG is properly supported
        bool ipv4 = network_ready(*this, NETWORK_READY_TYPE_IPV4, nullptr);
   d7d82:	4602      	mov	r2, r0
   d7d84:	2101      	movs	r1, #1
   d7d86:	6868      	ldr	r0, [r5, #4]
   d7d88:	f7ff f8a8 	bl	d6edc <network_ready>
        bool ipv6 = network_ready(*this, NETWORK_READY_TYPE_IPV6, nullptr);
   d7d8c:	2102      	movs	r1, #2
        bool ipv4 = network_ready(*this, NETWORK_READY_TYPE_IPV4, nullptr);
   d7d8e:	4680      	mov	r8, r0
        bool ipv6 = network_ready(*this, NETWORK_READY_TYPE_IPV6, nullptr);
   d7d90:	4622      	mov	r2, r4
   d7d92:	6868      	ldr	r0, [r5, #4]
   d7d94:	f7ff f8a2 	bl	d6edc <network_ready>
        for (auto cur = ai; cur != nullptr && !ok; cur = cur->ai_next) {
   d7d98:	9e00      	ldr	r6, [sp, #0]
        bool ipv6 = network_ready(*this, NETWORK_READY_TYPE_IPV6, nullptr);
   d7d9a:	4681      	mov	r9, r0
        bool ok = false;
   d7d9c:	4621      	mov	r1, r4
        for (auto cur = ai; cur != nullptr && !ok; cur = cur->ai_next) {
   d7d9e:	2e00      	cmp	r6, #0
   d7da0:	d03c      	beq.n	d7e1c <_ZN5spark12NetworkClass7resolveEPKc+0xd0>
   d7da2:	2900      	cmp	r1, #0
   d7da4:	d13a      	bne.n	d7e1c <_ZN5spark12NetworkClass7resolveEPKc+0xd0>
            // NOTE: using only the first entry that matches the current state of IPv4/IPv6 connectivity
            switch (cur->ai_family) {
   d7da6:	6873      	ldr	r3, [r6, #4]
   d7da8:	2b02      	cmp	r3, #2
   d7daa:	d003      	beq.n	d7db4 <_ZN5spark12NetworkClass7resolveEPKc+0x68>
   d7dac:	2b0a      	cmp	r3, #10
   d7dae:	d011      	beq.n	d7dd4 <_ZN5spark12NetworkClass7resolveEPKc+0x88>
        for (auto cur = ai; cur != nullptr && !ok; cur = cur->ai_next) {
   d7db0:	69f6      	ldr	r6, [r6, #28]
   d7db2:	e7f4      	b.n	d7d9e <_ZN5spark12NetworkClass7resolveEPKc+0x52>
                case AF_INET: {
                    if (!ipv4) {
   d7db4:	f1b8 0f00 	cmp.w	r8, #0
   d7db8:	d00a      	beq.n	d7dd0 <_ZN5spark12NetworkClass7resolveEPKc+0x84>
                        continue;
                    }
                    // NOTE: HAL_IPAddress is little-endian
                    auto in = (struct sockaddr_in*)cur->ai_addr;
                    addr = (const uint8_t*)(&in->sin_addr.s_addr);
   d7dba:	6971      	ldr	r1, [r6, #20]
        return *this = IPAddress(address);
   d7dbc:	a806      	add	r0, sp, #24
   d7dbe:	3104      	adds	r1, #4
class IPAddress : public Printable {
   d7dc0:	ad07      	add	r5, sp, #28
        return *this = IPAddress(address);
   d7dc2:	f7ff fd13 	bl	d77ec <_ZN9IPAddressC1EPKh>
class IPAddress : public Printable {
   d7dc6:	cd0f      	ldmia	r5!, {r0, r1, r2, r3}
   d7dc8:	1d3c      	adds	r4, r7, #4
   d7dca:	c40f      	stmia	r4!, {r0, r1, r2, r3}
   d7dcc:	682b      	ldr	r3, [r5, #0]
   d7dce:	7023      	strb	r3, [r4, #0]
    virtual ~IPAddress() {}
   d7dd0:	4641      	mov	r1, r8
   d7dd2:	e7ed      	b.n	d7db0 <_ZN5spark12NetworkClass7resolveEPKc+0x64>
                    ok = true;
                    break;
                }
                case AF_INET6: {
                    if (!ipv6) {
   d7dd4:	f1b9 0f00 	cmp.w	r9, #0
   d7dd8:	d101      	bne.n	d7dde <_ZN5spark12NetworkClass7resolveEPKc+0x92>
                    auto in6 = (struct sockaddr_in6*)cur->ai_addr;
                    HAL_IPAddress a = {};
                    a.v = 6;
                    memcpy(a.ipv6, in6->sin6_addr.s6_addr, sizeof(a.ipv6));
                    addr = IPAddress(a);
                    ok = true;
   d7dda:	4649      	mov	r1, r9
   d7ddc:	e7e8      	b.n	d7db0 <_ZN5spark12NetworkClass7resolveEPKc+0x64>
                    auto in6 = (struct sockaddr_in6*)cur->ai_addr;
   d7dde:	6974      	ldr	r4, [r6, #20]
                    HAL_IPAddress a = {};
   d7de0:	2210      	movs	r2, #16
   d7de2:	a801      	add	r0, sp, #4
   d7de4:	f002 fade 	bl	da3a4 <memset>
                    a.v = 6;
   d7de8:	2306      	movs	r3, #6
   d7dea:	f88d 3014 	strb.w	r3, [sp, #20]
                    memcpy(a.ipv6, in6->sin6_addr.s6_addr, sizeof(a.ipv6));
   d7dee:	ad01      	add	r5, sp, #4
   d7df0:	f104 0308 	add.w	r3, r4, #8
   d7df4:	3418      	adds	r4, #24
   d7df6:	6818      	ldr	r0, [r3, #0]
   d7df8:	6859      	ldr	r1, [r3, #4]
   d7dfa:	462a      	mov	r2, r5
   d7dfc:	c203      	stmia	r2!, {r0, r1}
   d7dfe:	3308      	adds	r3, #8
   d7e00:	42a3      	cmp	r3, r4
   d7e02:	4615      	mov	r5, r2
   d7e04:	d1f7      	bne.n	d7df6 <_ZN5spark12NetworkClass7resolveEPKc+0xaa>
                    addr = IPAddress(a);
   d7e06:	a901      	add	r1, sp, #4
   d7e08:	a806      	add	r0, sp, #24
class IPAddress : public Printable {
   d7e0a:	ad07      	add	r5, sp, #28
   d7e0c:	f7ff fcac 	bl	d7768 <_ZN9IPAddressC1ERK16_HAL_IPAddress_t>
   d7e10:	cd0f      	ldmia	r5!, {r0, r1, r2, r3}
   d7e12:	1d3c      	adds	r4, r7, #4
   d7e14:	c40f      	stmia	r4!, {r0, r1, r2, r3}
   d7e16:	682b      	ldr	r3, [r5, #0]
   d7e18:	7023      	strb	r3, [r4, #0]
   d7e1a:	e7de      	b.n	d7dda <_ZN5spark12NetworkClass7resolveEPKc+0x8e>
                    break;
                }
            }
        }
    }
    freeaddrinfo(ai);
   d7e1c:	9800      	ldr	r0, [sp, #0]
   d7e1e:	f7fe fed9 	bl	d6bd4 <netdb_freeaddrinfo>
    return Cellular.resolve(name);
#endif // Wiring_Cellular

#endif // HAL_USE_INET_HAL_POSIX
    return addr;
}
   d7e22:	4638      	mov	r0, r7
   d7e24:	b015      	add	sp, #84	; 0x54
   d7e26:	e8bd 83f0 	ldmia.w	sp!, {r4, r5, r6, r7, r8, r9, pc}
	...

000d7e2c <_GLOBAL__sub_I__ZN5spark7NetworkE>:
   d7e2c:	4b02      	ldr	r3, [pc, #8]	; (d7e38 <_GLOBAL__sub_I__ZN5spark7NetworkE+0xc>)
   d7e2e:	4a03      	ldr	r2, [pc, #12]	; (d7e3c <_GLOBAL__sub_I__ZN5spark7NetworkE+0x10>)
   d7e30:	601a      	str	r2, [r3, #0]
   d7e32:	2200      	movs	r2, #0
   d7e34:	605a      	str	r2, [r3, #4]

} // spark
   d7e36:	4770      	bx	lr
   d7e38:	2003e654 	.word	0x2003e654
   d7e3c:	000dcb94 	.word	0x000dcb94

000d7e40 <_ZN5Print5writeEPKhj>:

// Public Methods //////////////////////////////////////////////////////////////

/* default implementation: may be overridden */
size_t Print::write(const uint8_t *buffer, size_t size)
{
   d7e40:	b5f8      	push	{r3, r4, r5, r6, r7, lr}
   d7e42:	4606      	mov	r6, r0
   d7e44:	460d      	mov	r5, r1
  size_t n = 0;
   d7e46:	188f      	adds	r7, r1, r2
   d7e48:	2400      	movs	r4, #0
  while (size--) {
   d7e4a:	42bd      	cmp	r5, r7
   d7e4c:	d00c      	beq.n	d7e68 <_ZN5Print5writeEPKhj+0x28>
     int chunk = write(*buffer++);
   d7e4e:	6833      	ldr	r3, [r6, #0]
   d7e50:	f815 1b01 	ldrb.w	r1, [r5], #1
   d7e54:	689b      	ldr	r3, [r3, #8]
   d7e56:	4630      	mov	r0, r6
   d7e58:	4798      	blx	r3
     if (chunk>=0)
   d7e5a:	1e03      	subs	r3, r0, #0
   d7e5c:	db01      	blt.n	d7e62 <_ZN5Print5writeEPKhj+0x22>
         n += chunk;
   d7e5e:	441c      	add	r4, r3
  while (size--) {
   d7e60:	e7f3      	b.n	d7e4a <_ZN5Print5writeEPKhj+0xa>
     int chunk = write(*buffer++);
   d7e62:	2c00      	cmp	r4, #0
   d7e64:	bf08      	it	eq
   d7e66:	461c      	moveq	r4, r3
             n = chunk;
         break;
     }
  }
  return n;
}
   d7e68:	4620      	mov	r0, r4
   d7e6a:	bdf8      	pop	{r3, r4, r5, r6, r7, pc}

000d7e6c <_ZN5Print5writeEPKc>:
    size_t write(const char *str) {
   d7e6c:	b513      	push	{r0, r1, r4, lr}
   d7e6e:	4604      	mov	r4, r0
    }
   d7e70:	4608      	mov	r0, r1
      if (str == NULL) return 0;
   d7e72:	b159      	cbz	r1, d7e8c <_ZN5Print5writeEPKc+0x20>
      return write((const uint8_t *)str, strlen(str));
   d7e74:	9101      	str	r1, [sp, #4]
   d7e76:	f002 fb0e 	bl	da496 <strlen>
   d7e7a:	6823      	ldr	r3, [r4, #0]
   d7e7c:	9901      	ldr	r1, [sp, #4]
   d7e7e:	68db      	ldr	r3, [r3, #12]
   d7e80:	4602      	mov	r2, r0
   d7e82:	4620      	mov	r0, r4
    }
   d7e84:	b002      	add	sp, #8
   d7e86:	e8bd 4010 	ldmia.w	sp!, {r4, lr}
      return write((const uint8_t *)str, strlen(str));
   d7e8a:	4718      	bx	r3
    }
   d7e8c:	b002      	add	sp, #8
   d7e8e:	bd10      	pop	{r4, pc}

000d7e90 <_ZN5Print5printEPKc>:

size_t Print::print(const char str[])
{
   d7e90:	b508      	push	{r3, lr}
  return write(str);
   d7e92:	f7ff ffeb 	bl	d7e6c <_ZN5Print5writeEPKc>
}
   d7e96:	bd08      	pop	{r3, pc}

000d7e98 <_ZN5Print5printEc>:

size_t Print::print(char c)
{
  return write(c);
   d7e98:	6803      	ldr	r3, [r0, #0]
   d7e9a:	689b      	ldr	r3, [r3, #8]
   d7e9c:	4718      	bx	r3

000d7e9e <_ZN5Print7printlnEv>:
{
  return print(reinterpret_cast<const char*>(str));
}

size_t Print::println(void)
{
   d7e9e:	b538      	push	{r3, r4, r5, lr}
  size_t n = print('\r');
   d7ea0:	210d      	movs	r1, #13
{
   d7ea2:	4605      	mov	r5, r0
  size_t n = print('\r');
   d7ea4:	f7ff fff8 	bl	d7e98 <_ZN5Print5printEc>
  n += print('\n');
   d7ea8:	210a      	movs	r1, #10
  size_t n = print('\r');
   d7eaa:	4604      	mov	r4, r0
  n += print('\n');
   d7eac:	4628      	mov	r0, r5
   d7eae:	f7ff fff3 	bl	d7e98 <_ZN5Print5printEc>
  return n;
}
   d7eb2:	4420      	add	r0, r4
   d7eb4:	bd38      	pop	{r3, r4, r5, pc}

000d7eb6 <_ZN5Print7printlnEPKc>:

size_t Print::println(const char c[])
{
   d7eb6:	b538      	push	{r3, r4, r5, lr}
   d7eb8:	4605      	mov	r5, r0
  return write(str);
   d7eba:	f7ff ffd7 	bl	d7e6c <_ZN5Print5writeEPKc>
   d7ebe:	4604      	mov	r4, r0
  size_t n = print(c);
  n += println();
   d7ec0:	4628      	mov	r0, r5
   d7ec2:	f7ff ffec 	bl	d7e9e <_ZN5Print7printlnEv>
  return n;
}
   d7ec6:	4420      	add	r0, r4
   d7ec8:	bd38      	pop	{r3, r4, r5, pc}

000d7eca <_ZN5Print11printNumberEmh>:
  return println(reinterpret_cast<const char*>(str));
}

// Private Methods /////////////////////////////////////////////////////////////

size_t Print::printNumber(unsigned long n, uint8_t base) {
   d7eca:	b530      	push	{r4, r5, lr}
   d7ecc:	b08b      	sub	sp, #44	; 0x2c
  char buf[8 * sizeof(n) + 1]; // Assumes 8-bit chars plus zero byte.
  char *str = &buf[sizeof(buf) - 1];

  *str = '\0';
   d7ece:	2300      	movs	r3, #0
   d7ed0:	f88d 3024 	strb.w	r3, [sp, #36]	; 0x24

  // prevent crash if called with base == 1
  if (base < 2) base = 10;
   d7ed4:	2a01      	cmp	r2, #1
   d7ed6:	bf98      	it	ls
   d7ed8:	220a      	movls	r2, #10
   d7eda:	ac09      	add	r4, sp, #36	; 0x24

  do {
   decltype(n) m = n;
   n /= base;
   d7edc:	460d      	mov	r5, r1
   d7ede:	fbb1 f1f2 	udiv	r1, r1, r2
   char c = m - base * n;
   d7ee2:	fb01 5312 	mls	r3, r1, r2, r5
   d7ee6:	f003 03ff 	and.w	r3, r3, #255	; 0xff
   *--str = c < 10 ? c + '0' : c + 'A' - 10;
   d7eea:	2b09      	cmp	r3, #9
   d7eec:	bf94      	ite	ls
   d7eee:	3330      	addls	r3, #48	; 0x30
   d7ef0:	3337      	addhi	r3, #55	; 0x37
   d7ef2:	b2db      	uxtb	r3, r3
  } while(n);
   d7ef4:	42aa      	cmp	r2, r5
   *--str = c < 10 ? c + '0' : c + 'A' - 10;
   d7ef6:	f804 3d01 	strb.w	r3, [r4, #-1]!
  } while(n);
   d7efa:	d9ef      	bls.n	d7edc <_ZN5Print11printNumberEmh+0x12>

  return write(str);
   d7efc:	4621      	mov	r1, r4
   d7efe:	f7ff ffb5 	bl	d7e6c <_ZN5Print5writeEPKc>
}
   d7f02:	b00b      	add	sp, #44	; 0x2c
   d7f04:	bd30      	pop	{r4, r5, pc}

000d7f06 <_ZN8RGBClassD1Ev>:
#include "rgbled.h"

typedef void (raw_rgb_change_handler_t)(uint8_t, uint8_t, uint8_t);
typedef std::function<raw_rgb_change_handler_t> wiring_rgb_change_handler_t;

class RGBClass {
   d7f06:	b510      	push	{r4, lr}
   d7f08:	4604      	mov	r4, r0
   d7f0a:	f7fd f953 	bl	d51b4 <_ZNSt14_Function_baseD1Ev>
   d7f0e:	4620      	mov	r0, r4
   d7f10:	bd10      	pop	{r4, pc}
	...

000d7f14 <_GLOBAL__sub_I_RGB>:
    _Function_base() : _M_manager(nullptr) { }
   d7f14:	4803      	ldr	r0, [pc, #12]	; (d7f24 <_GLOBAL__sub_I_RGB+0x10>)
#include "spark_wiring_rgb.h"
#include "spark_wiring_interrupts.h"

#include "core_hal.h"

RGBClass RGB;
   d7f16:	4a04      	ldr	r2, [pc, #16]	; (d7f28 <_GLOBAL__sub_I_RGB+0x14>)
   d7f18:	4904      	ldr	r1, [pc, #16]	; (d7f2c <_GLOBAL__sub_I_RGB+0x18>)
   d7f1a:	2300      	movs	r3, #0
   d7f1c:	6083      	str	r3, [r0, #8]
   d7f1e:	f001 b9c5 	b.w	d92ac <__aeabi_atexit>
   d7f22:	bf00      	nop
   d7f24:	2003e65c 	.word	0x2003e65c
   d7f28:	2003e470 	.word	0x2003e470
   d7f2c:	000d7f07 	.word	0x000d7f07

000d7f30 <_ZN8SPIClassC1E19hal_spi_interface_t>:
    }
    return particle::SPISettings(info->clock, info->bit_order, info->data_mode);
}
} // namespace

SPIClass::SPIClass(hal_spi_interface_t spi)
   d7f30:	b510      	push	{r4, lr}
   d7f32:	4604      	mov	r4, r0
   d7f34:	4608      	mov	r0, r1
{
    _spi = spi;
   d7f36:	7021      	strb	r1, [r4, #0]
    hal_spi_init(_spi);
   d7f38:	f7fe fea4 	bl	d6c84 <hal_spi_init>
    _dividerReference = SPI_CLK_SYSTEM; // 0 indicates the system clock
   d7f3c:	2300      	movs	r3, #0
   d7f3e:	6063      	str	r3, [r4, #4]
}
   d7f40:	4620      	mov	r0, r4
   d7f42:	bd10      	pop	{r4, pc}

000d7f44 <_Z4dtoadhPc>:
#include "string_convert.h"

//These are very crude implementations - will refine later
//------------------------------------------------------------------------------------------

void dtoa (double val, unsigned char prec, char *sout) {
   d7f44:	e92d 47f0 	stmdb	sp!, {r4, r5, r6, r7, r8, r9, sl, lr}
   d7f48:	ec57 6b10 	vmov	r6, r7, d0
   d7f4c:	4680      	mov	r8, r0
   d7f4e:	460c      	mov	r4, r1
    bool negative = val<0;
    if (negative) {
   d7f50:	ee10 0a10 	vmov	r0, s0
   d7f54:	2200      	movs	r2, #0
   d7f56:	2300      	movs	r3, #0
   d7f58:	4639      	mov	r1, r7
   d7f5a:	f001 ffaf 	bl	d9ebc <__aeabi_dcmplt>
   d7f5e:	b128      	cbz	r0, d7f6c <_Z4dtoadhPc+0x28>
        val = -val;
   d7f60:	f107 4300 	add.w	r3, r7, #2147483648	; 0x80000000
   d7f64:	461f      	mov	r7, r3
        *sout++ = '-';
   d7f66:	232d      	movs	r3, #45	; 0x2d
   d7f68:	f804 3b01 	strb.w	r3, [r4], #1
   d7f6c:	2300      	movs	r3, #0
    }
    long scale = 1;
   d7f6e:	f04f 0901 	mov.w	r9, #1
    for (uint8_t i=0; i<prec; i++)
        scale *= 10;
   d7f72:	220a      	movs	r2, #10
    for (uint8_t i=0; i<prec; i++)
   d7f74:	b2d9      	uxtb	r1, r3
   d7f76:	4588      	cmp	r8, r1
   d7f78:	d903      	bls.n	d7f82 <_Z4dtoadhPc+0x3e>
        scale *= 10;
   d7f7a:	fb02 f909 	mul.w	r9, r2, r9
    for (uint8_t i=0; i<prec; i++)
   d7f7e:	3301      	adds	r3, #1
   d7f80:	e7f8      	b.n	d7f74 <_Z4dtoadhPc+0x30>
    val *= scale;   // capture all the significant digits
   d7f82:	4648      	mov	r0, r9
   d7f84:	f001 fcbe 	bl	d9904 <__aeabi_i2d>
   d7f88:	4632      	mov	r2, r6
   d7f8a:	463b      	mov	r3, r7
   d7f8c:	f001 fd24 	bl	d99d8 <__aeabi_dmul>
   d7f90:	4606      	mov	r6, r0
   d7f92:	460f      	mov	r7, r1
    uint64_t fixed = uint64_t(val);
   d7f94:	f002 f842 	bl	da01c <__aeabi_d2ulz>
   d7f98:	4605      	mov	r5, r0
   d7f9a:	468a      	mov	sl, r1
    if ((val-fixed)>=0.5)    // round last digit
   d7f9c:	f001 fce6 	bl	d996c <__aeabi_ul2d>
   d7fa0:	4602      	mov	r2, r0
   d7fa2:	460b      	mov	r3, r1
   d7fa4:	4630      	mov	r0, r6
   d7fa6:	4639      	mov	r1, r7
   d7fa8:	f001 fb5e 	bl	d9668 <__aeabi_dsub>
   d7fac:	4b13      	ldr	r3, [pc, #76]	; (d7ffc <_Z4dtoadhPc+0xb8>)
   d7fae:	2200      	movs	r2, #0
   d7fb0:	f001 ff98 	bl	d9ee4 <__aeabi_dcmpge>
   d7fb4:	b110      	cbz	r0, d7fbc <_Z4dtoadhPc+0x78>
        fixed++;
   d7fb6:	3501      	adds	r5, #1
   d7fb8:	f14a 0a00 	adc.w	sl, sl, #0

    unsigned long first = (unsigned long)(fixed / scale);
   d7fbc:	464a      	mov	r2, r9
   d7fbe:	4628      	mov	r0, r5
   d7fc0:	17d3      	asrs	r3, r2, #31
   d7fc2:	4651      	mov	r1, sl
   d7fc4:	f002 f812 	bl	d9fec <__aeabi_uldivmod>
    unsigned long second = (unsigned long)(fixed % scale);

    ultoa(first, sout, 10, 1);
   d7fc8:	2301      	movs	r3, #1
   d7fca:	4615      	mov	r5, r2
   d7fcc:	4621      	mov	r1, r4
   d7fce:	220a      	movs	r2, #10
   d7fd0:	f001 f807 	bl	d8fe2 <ultoa>
    if (prec) {
   d7fd4:	f1b8 0f00 	cmp.w	r8, #0
   d7fd8:	d00d      	beq.n	d7ff6 <_Z4dtoadhPc+0xb2>
        sout += strlen(sout);
   d7fda:	4620      	mov	r0, r4
   d7fdc:	f002 fa5b 	bl	da496 <strlen>
        *sout++ = '.';
   d7fe0:	232e      	movs	r3, #46	; 0x2e
        sout += strlen(sout);
   d7fe2:	1821      	adds	r1, r4, r0
        *sout++ = '.';
   d7fe4:	5423      	strb	r3, [r4, r0]
        ultoa(second, sout, 10, prec);
   d7fe6:	220a      	movs	r2, #10
   d7fe8:	4643      	mov	r3, r8
   d7fea:	4628      	mov	r0, r5
   d7fec:	3101      	adds	r1, #1
    }
}
   d7fee:	e8bd 47f0 	ldmia.w	sp!, {r4, r5, r6, r7, r8, r9, sl, lr}
        ultoa(second, sout, 10, prec);
   d7ff2:	f000 bff6 	b.w	d8fe2 <ultoa>
}
   d7ff6:	e8bd 87f0 	ldmia.w	sp!, {r4, r5, r6, r7, r8, r9, sl, pc}
   d7ffa:	bf00      	nop
   d7ffc:	3fe00000 	.word	0x3fe00000

000d8000 <_ZN6StringD1Ev>:
	init();
	char buf[33];
	dtoa(value, decimalPlaces, buf);
        *this = buf;
}
String::~String()
   d8000:	b510      	push	{r4, lr}
   d8002:	4604      	mov	r4, r0
{
	free(buffer);
   d8004:	6800      	ldr	r0, [r0, #0]
   d8006:	f7fe ffb9 	bl	d6f7c <free>
}
   d800a:	4620      	mov	r0, r4
   d800c:	bd10      	pop	{r4, pc}

000d800e <_ZN6String10invalidateEv>:
	len = 0;
	flags = 0;
}

void String::invalidate(void)
{
   d800e:	b510      	push	{r4, lr}
   d8010:	4604      	mov	r4, r0
	if (buffer) free(buffer);
   d8012:	6800      	ldr	r0, [r0, #0]
   d8014:	b108      	cbz	r0, d801a <_ZN6String10invalidateEv+0xc>
   d8016:	f7fe ffb1 	bl	d6f7c <free>
	buffer = NULL;
   d801a:	2300      	movs	r3, #0
	capacity = len = 0;
   d801c:	e9c4 3301 	strd	r3, r3, [r4, #4]
	buffer = NULL;
   d8020:	6023      	str	r3, [r4, #0]
}
   d8022:	bd10      	pop	{r4, pc}

000d8024 <_ZN6String12changeBufferEj>:
	}
	return 0;
}

unsigned char String::changeBuffer(unsigned int maxStrLen)
{
   d8024:	b538      	push	{r3, r4, r5, lr}
   d8026:	4604      	mov	r4, r0
   d8028:	460d      	mov	r5, r1
	char *newbuffer = (char *)realloc(buffer, maxStrLen + 1);
   d802a:	6800      	ldr	r0, [r0, #0]
   d802c:	3101      	adds	r1, #1
   d802e:	f7fe ffad 	bl	d6f8c <realloc>
	if (newbuffer) {
   d8032:	b110      	cbz	r0, d803a <_ZN6String12changeBufferEj+0x16>
		buffer = newbuffer;
		capacity = maxStrLen;
   d8034:	e9c4 0500 	strd	r0, r5, [r4]
		return 1;
   d8038:	2001      	movs	r0, #1
	}
	return 0;
}
   d803a:	bd38      	pop	{r3, r4, r5, pc}

000d803c <_ZN6String7reserveEj>:
{
   d803c:	b510      	push	{r4, lr}
	if (buffer && capacity >= size) return 1;
   d803e:	6803      	ldr	r3, [r0, #0]
{
   d8040:	4604      	mov	r4, r0
	if (buffer && capacity >= size) return 1;
   d8042:	b123      	cbz	r3, d804e <_ZN6String7reserveEj+0x12>
   d8044:	6843      	ldr	r3, [r0, #4]
   d8046:	428b      	cmp	r3, r1
   d8048:	d301      	bcc.n	d804e <_ZN6String7reserveEj+0x12>
   d804a:	2001      	movs	r0, #1
}
   d804c:	bd10      	pop	{r4, pc}
	if (changeBuffer(size)) {
   d804e:	4620      	mov	r0, r4
   d8050:	f7ff ffe8 	bl	d8024 <_ZN6String12changeBufferEj>
   d8054:	2800      	cmp	r0, #0
   d8056:	d0f9      	beq.n	d804c <_ZN6String7reserveEj+0x10>
		if (len == 0) buffer[0] = 0;
   d8058:	68a3      	ldr	r3, [r4, #8]
   d805a:	2b00      	cmp	r3, #0
   d805c:	d1f5      	bne.n	d804a <_ZN6String7reserveEj+0xe>
   d805e:	6822      	ldr	r2, [r4, #0]
   d8060:	7013      	strb	r3, [r2, #0]
   d8062:	e7f2      	b.n	d804a <_ZN6String7reserveEj+0xe>

000d8064 <_ZN6String4copyEPKcj>:
/*********************************************/
/*  Copy and Move                            */
/*********************************************/

String & String::copy(const char *cstr, unsigned int length)
{
   d8064:	b537      	push	{r0, r1, r2, r4, r5, lr}
   d8066:	460d      	mov	r5, r1
	if (!reserve(length)) {
   d8068:	4611      	mov	r1, r2
   d806a:	9201      	str	r2, [sp, #4]
{
   d806c:	4604      	mov	r4, r0
	if (!reserve(length)) {
   d806e:	f7ff ffe5 	bl	d803c <_ZN6String7reserveEj>
   d8072:	9a01      	ldr	r2, [sp, #4]
   d8074:	b928      	cbnz	r0, d8082 <_ZN6String4copyEPKcj+0x1e>
		invalidate();
   d8076:	4620      	mov	r0, r4
   d8078:	f7ff ffc9 	bl	d800e <_ZN6String10invalidateEv>
	}
	len = length;
	memcpy(buffer, cstr, length);
	buffer[len] = 0;
	return *this;
}
   d807c:	4620      	mov	r0, r4
   d807e:	b003      	add	sp, #12
   d8080:	bd30      	pop	{r4, r5, pc}
	len = length;
   d8082:	60a2      	str	r2, [r4, #8]
	memcpy(buffer, cstr, length);
   d8084:	4629      	mov	r1, r5
   d8086:	6820      	ldr	r0, [r4, #0]
   d8088:	f002 f964 	bl	da354 <memcpy>
	buffer[len] = 0;
   d808c:	6822      	ldr	r2, [r4, #0]
   d808e:	68a3      	ldr	r3, [r4, #8]
   d8090:	2100      	movs	r1, #0
   d8092:	54d1      	strb	r1, [r2, r3]
	return *this;
   d8094:	e7f2      	b.n	d807c <_ZN6String4copyEPKcj+0x18>

000d8096 <_ZN6StringaSERKS_>:
}
#endif

String & String::operator = (const String &rhs)
{
	if (this == &rhs) return *this;
   d8096:	4288      	cmp	r0, r1
{
   d8098:	b510      	push	{r4, lr}
   d809a:	4604      	mov	r4, r0
	if (this == &rhs) return *this;
   d809c:	d005      	beq.n	d80aa <_ZN6StringaSERKS_+0x14>

	if (rhs.buffer) copy(rhs.buffer, rhs.len);
   d809e:	680b      	ldr	r3, [r1, #0]
   d80a0:	b12b      	cbz	r3, d80ae <_ZN6StringaSERKS_+0x18>
   d80a2:	688a      	ldr	r2, [r1, #8]
   d80a4:	4619      	mov	r1, r3
   d80a6:	f7ff ffdd 	bl	d8064 <_ZN6String4copyEPKcj>
	else invalidate();

	return *this;
}
   d80aa:	4620      	mov	r0, r4
   d80ac:	bd10      	pop	{r4, pc}
	else invalidate();
   d80ae:	f7ff ffae 	bl	d800e <_ZN6String10invalidateEv>
   d80b2:	e7fa      	b.n	d80aa <_ZN6StringaSERKS_+0x14>

000d80b4 <_ZN6StringC1ERKS_>:
String::String(const String &value)
   d80b4:	b510      	push	{r4, lr}
	buffer = NULL;
   d80b6:	2300      	movs	r3, #0
String::String(const String &value)
   d80b8:	4604      	mov	r4, r0
	capacity = 0;
   d80ba:	e9c0 3300 	strd	r3, r3, [r0]
	len = 0;
   d80be:	6083      	str	r3, [r0, #8]
	flags = 0;
   d80c0:	7303      	strb	r3, [r0, #12]
	*this = value;
   d80c2:	f7ff ffe8 	bl	d8096 <_ZN6StringaSERKS_>
}
   d80c6:	4620      	mov	r0, r4
   d80c8:	bd10      	pop	{r4, pc}

000d80ca <_ZN6StringaSEPKc>:
	return *this;
}
#endif

String & String::operator = (const char *cstr)
{
   d80ca:	b513      	push	{r0, r1, r4, lr}
   d80cc:	4604      	mov	r4, r0
	if (cstr) copy(cstr, strlen(cstr));
   d80ce:	b159      	cbz	r1, d80e8 <_ZN6StringaSEPKc+0x1e>
   d80d0:	4608      	mov	r0, r1
   d80d2:	9101      	str	r1, [sp, #4]
   d80d4:	f002 f9df 	bl	da496 <strlen>
   d80d8:	9901      	ldr	r1, [sp, #4]
   d80da:	4602      	mov	r2, r0
   d80dc:	4620      	mov	r0, r4
   d80de:	f7ff ffc1 	bl	d8064 <_ZN6String4copyEPKcj>
	else invalidate();

	return *this;
}
   d80e2:	4620      	mov	r0, r4
   d80e4:	b002      	add	sp, #8
   d80e6:	bd10      	pop	{r4, pc}
	else invalidate();
   d80e8:	f7ff ff91 	bl	d800e <_ZN6String10invalidateEv>
   d80ec:	e7f9      	b.n	d80e2 <_ZN6StringaSEPKc+0x18>

000d80ee <_ZN6StringC1Efi>:
String::String(float value, int decimalPlaces)
   d80ee:	b530      	push	{r4, r5, lr}
   d80f0:	4604      	mov	r4, r0
	buffer = NULL;
   d80f2:	2300      	movs	r3, #0
String::String(float value, int decimalPlaces)
   d80f4:	b08b      	sub	sp, #44	; 0x2c
	capacity = 0;
   d80f6:	e9c4 3300 	strd	r3, r3, [r4]
	len = 0;
   d80fa:	60a3      	str	r3, [r4, #8]
	flags = 0;
   d80fc:	7323      	strb	r3, [r4, #12]
String::String(float value, int decimalPlaces)
   d80fe:	ee10 0a10 	vmov	r0, s0
	dtoa(value, decimalPlaces, buf);
   d8102:	b2cd      	uxtb	r5, r1
   d8104:	f001 fc10 	bl	d9928 <__aeabi_f2d>
   d8108:	ec41 0b10 	vmov	d0, r0, r1
   d810c:	a901      	add	r1, sp, #4
   d810e:	4628      	mov	r0, r5
   d8110:	f7ff ff18 	bl	d7f44 <_Z4dtoadhPc>
        *this = buf;
   d8114:	a901      	add	r1, sp, #4
   d8116:	4620      	mov	r0, r4
   d8118:	f7ff ffd7 	bl	d80ca <_ZN6StringaSEPKc>
}
   d811c:	4620      	mov	r0, r4
   d811e:	b00b      	add	sp, #44	; 0x2c
   d8120:	bd30      	pop	{r4, r5, pc}

000d8122 <_ZN6StringC1Edi>:
String::String(double value, int decimalPlaces)
   d8122:	b510      	push	{r4, lr}
   d8124:	4604      	mov	r4, r0
   d8126:	b08a      	sub	sp, #40	; 0x28
	buffer = NULL;
   d8128:	2300      	movs	r3, #0
String::String(double value, int decimalPlaces)
   d812a:	4608      	mov	r0, r1
	capacity = 0;
   d812c:	e9c4 3300 	strd	r3, r3, [r4]
	len = 0;
   d8130:	60a3      	str	r3, [r4, #8]
	flags = 0;
   d8132:	7323      	strb	r3, [r4, #12]
	dtoa(value, decimalPlaces, buf);
   d8134:	a901      	add	r1, sp, #4
   d8136:	b2c0      	uxtb	r0, r0
   d8138:	f7ff ff04 	bl	d7f44 <_Z4dtoadhPc>
        *this = buf;
   d813c:	a901      	add	r1, sp, #4
   d813e:	4620      	mov	r0, r4
   d8140:	f7ff ffc3 	bl	d80ca <_ZN6StringaSEPKc>
}
   d8144:	4620      	mov	r0, r4
   d8146:	b00a      	add	sp, #40	; 0x28
   d8148:	bd10      	pop	{r4, pc}

000d814a <_ZN6String6concatEPKcj>:
{
	return concat(s.buffer, s.len);
}

unsigned char String::concat(const char *cstr, unsigned int length)
{
   d814a:	b570      	push	{r4, r5, r6, lr}
   d814c:	4605      	mov	r5, r0
	unsigned int newlen = len + length;
	if (!cstr) return 0;
   d814e:	460e      	mov	r6, r1
   d8150:	b909      	cbnz	r1, d8156 <_ZN6String6concatEPKcj+0xc>
   d8152:	2000      	movs	r0, #0
	if (length == 0) return 1;
	if (!reserve(newlen)) return 0;
	strcpy(buffer + len, cstr);
	len = newlen;
	return 1;
}
   d8154:	bd70      	pop	{r4, r5, r6, pc}
	if (length == 0) return 1;
   d8156:	b16a      	cbz	r2, d8174 <_ZN6String6concatEPKcj+0x2a>
	unsigned int newlen = len + length;
   d8158:	6884      	ldr	r4, [r0, #8]
   d815a:	4414      	add	r4, r2
	if (!reserve(newlen)) return 0;
   d815c:	4621      	mov	r1, r4
   d815e:	f7ff ff6d 	bl	d803c <_ZN6String7reserveEj>
   d8162:	2800      	cmp	r0, #0
   d8164:	d0f5      	beq.n	d8152 <_ZN6String6concatEPKcj+0x8>
	strcpy(buffer + len, cstr);
   d8166:	6828      	ldr	r0, [r5, #0]
   d8168:	68ab      	ldr	r3, [r5, #8]
   d816a:	4631      	mov	r1, r6
   d816c:	4418      	add	r0, r3
   d816e:	f002 f96c 	bl	da44a <strcpy>
	len = newlen;
   d8172:	60ac      	str	r4, [r5, #8]
	if (length == 0) return 1;
   d8174:	2001      	movs	r0, #1
   d8176:	e7ed      	b.n	d8154 <_ZN6String6concatEPKcj+0xa>

000d8178 <_ZplRK15StringSumHelperPKc>:
	if (!a.concat(rhs.buffer, rhs.len)) a.invalidate();
	return a;
}

StringSumHelper & operator + (const StringSumHelper &lhs, const char *cstr)
{
   d8178:	b513      	push	{r0, r1, r4, lr}
   d817a:	4604      	mov	r4, r0
	StringSumHelper &a = const_cast<StringSumHelper&>(lhs);
	if (!cstr || !a.concat(cstr, strlen(cstr))) a.invalidate();
   d817c:	b929      	cbnz	r1, d818a <_ZplRK15StringSumHelperPKc+0x12>
   d817e:	4620      	mov	r0, r4
   d8180:	f7ff ff45 	bl	d800e <_ZN6String10invalidateEv>
	return a;
}
   d8184:	4620      	mov	r0, r4
   d8186:	b002      	add	sp, #8
   d8188:	bd10      	pop	{r4, pc}
	if (!cstr || !a.concat(cstr, strlen(cstr))) a.invalidate();
   d818a:	4608      	mov	r0, r1
   d818c:	9101      	str	r1, [sp, #4]
   d818e:	f002 f982 	bl	da496 <strlen>
   d8192:	9901      	ldr	r1, [sp, #4]
   d8194:	4602      	mov	r2, r0
   d8196:	4620      	mov	r0, r4
   d8198:	f7ff ffd7 	bl	d814a <_ZN6String6concatEPKcj>
   d819c:	2800      	cmp	r0, #0
   d819e:	d0ee      	beq.n	d817e <_ZplRK15StringSumHelperPKc+0x6>
   d81a0:	e7f0      	b.n	d8184 <_ZplRK15StringSumHelperPKc+0xc>

000d81a2 <_ZN17SystemSleepResult22freeWakeupSourceMemoryEv.isra.0>:
    operator SleepResult() {
        return toSleepResult();
    }

private:
    void freeWakeupSourceMemory() {
   d81a2:	b510      	push	{r4, lr}
   d81a4:	4604      	mov	r4, r0
        if (wakeupSource_) {
   d81a6:	6800      	ldr	r0, [r0, #0]
   d81a8:	b118      	cbz	r0, d81b2 <_ZN17SystemSleepResult22freeWakeupSourceMemoryEv.isra.0+0x10>
            free(wakeupSource_);
   d81aa:	f7fe fee7 	bl	d6f7c <free>
            wakeupSource_ = nullptr;
   d81ae:	2300      	movs	r3, #0
   d81b0:	6023      	str	r3, [r4, #0]
        }
    }
   d81b2:	bd10      	pop	{r4, pc}

000d81b4 <_ZN11SystemClassD1Ev>:
    system_error_t error_;
    SleepResult compatResult_;
};


class SystemClass {
   d81b4:	b510      	push	{r4, lr}
   d81b6:	4604      	mov	r4, r0
        freeWakeupSourceMemory();
   d81b8:	f7ff fff3 	bl	d81a2 <_ZN17SystemSleepResult22freeWakeupSourceMemoryEv.isra.0>
class SystemClass {
   d81bc:	4620      	mov	r0, r4
   d81be:	bd10      	pop	{r4, pc}

000d81c0 <_GLOBAL__sub_I_System>:
    return wokenUpByRtc();
}

system_error_t SleepResult::error() const {
    return err_;
   d81c0:	b510      	push	{r4, lr}
} // namespace particle

// particle::Flag<TagT, ValueT>
template<typename TagT, typename ValueT>
inline particle::Flag<TagT, ValueT>::Flag(ValueT val) :
        val_(val) {
   d81c2:	4b09      	ldr	r3, [pc, #36]	; (d81e8 <_GLOBAL__sub_I_System+0x28>)
              error_(SYSTEM_ERROR_NONE) {
   d81c4:	4c09      	ldr	r4, [pc, #36]	; (d81ec <_GLOBAL__sub_I_System+0x2c>)
   d81c6:	2202      	movs	r2, #2
   d81c8:	2000      	movs	r0, #0
   d81ca:	601a      	str	r2, [r3, #0]
    SleepResult() {}
   d81cc:	4b08      	ldr	r3, [pc, #32]	; (d81f0 <_GLOBAL__sub_I_System+0x30>)
              error_(SYSTEM_ERROR_NONE) {
   d81ce:	6020      	str	r0, [r4, #0]
   d81d0:	80a0      	strh	r0, [r4, #4]
    SleepResult() {}
   d81d2:	71a0      	strb	r0, [r4, #6]
   d81d4:	60a3      	str	r3, [r4, #8]
public:

    SystemClass(System_Mode_TypeDef mode = DEFAULT) {
        set_system_mode(mode);
   d81d6:	f7fe fe05 	bl	d6de4 <set_system_mode>
SystemClass System;
   d81da:	4620      	mov	r0, r4
   d81dc:	4a05      	ldr	r2, [pc, #20]	; (d81f4 <_GLOBAL__sub_I_System+0x34>)
   d81de:	4906      	ldr	r1, [pc, #24]	; (d81f8 <_GLOBAL__sub_I_System+0x38>)
   d81e0:	e8bd 4010 	ldmia.w	sp!, {r4, lr}
SystemClass System;
   d81e4:	f001 b862 	b.w	d92ac <__aeabi_atexit>
   d81e8:	2003e678 	.word	0x2003e678
   d81ec:	2003e66c 	.word	0x2003e66c
   d81f0:	ffff0000 	.word	0xffff0000
   d81f4:	2003e470 	.word	0x2003e470
   d81f8:	000d81b5 	.word	0x000d81b5

000d81fc <_ZN9TCPClient5writeEh>:
    done.dismiss();

    return 1; // success
}

size_t TCPClient::write(uint8_t b) {
   d81fc:	b513      	push	{r0, r1, r4, lr}
    return write(&b, 1, SOCKET_WAIT_FOREVER);
   d81fe:	6803      	ldr	r3, [r0, #0]
size_t TCPClient::write(uint8_t b) {
   d8200:	f88d 1007 	strb.w	r1, [sp, #7]
    return write(&b, 1, SOCKET_WAIT_FOREVER);
   d8204:	6bdc      	ldr	r4, [r3, #60]	; 0x3c
   d8206:	2201      	movs	r2, #1
   d8208:	f04f 33ff 	mov.w	r3, #4294967295	; 0xffffffff
   d820c:	f10d 0107 	add.w	r1, sp, #7
   d8210:	47a0      	blx	r4
}
   d8212:	b002      	add	sp, #8
   d8214:	bd10      	pop	{r4, pc}

000d8216 <_ZN9TCPClient5writeEPKhj>:

size_t TCPClient::write(const uint8_t *buffer, size_t size) {
   d8216:	b410      	push	{r4}
    return write(buffer, size, SOCKET_WAIT_FOREVER);
   d8218:	6803      	ldr	r3, [r0, #0]
   d821a:	6bdc      	ldr	r4, [r3, #60]	; 0x3c
   d821c:	f04f 33ff 	mov.w	r3, #4294967295	; 0xffffffff
   d8220:	46a4      	mov	ip, r4
}
   d8222:	f85d 4b04 	ldr.w	r4, [sp], #4
    return write(buffer, size, SOCKET_WAIT_FOREVER);
   d8226:	4760      	bx	ip

000d8228 <_ZN9TCPClient5writeEhm>:

size_t TCPClient::write(uint8_t b, system_tick_t timeout) {
   d8228:	b513      	push	{r0, r1, r4, lr}
   d822a:	4613      	mov	r3, r2
    return write(&b, 1, timeout);
   d822c:	6802      	ldr	r2, [r0, #0]
size_t TCPClient::write(uint8_t b, system_tick_t timeout) {
   d822e:	f88d 1007 	strb.w	r1, [sp, #7]
    return write(&b, 1, timeout);
   d8232:	6bd4      	ldr	r4, [r2, #60]	; 0x3c
   d8234:	f10d 0107 	add.w	r1, sp, #7
   d8238:	2201      	movs	r2, #1
   d823a:	47a0      	blx	r4
}
   d823c:	b002      	add	sp, #8
   d823e:	bd10      	pop	{r4, pc}

000d8240 <_ZN9TCPClient5flushEv>:
    d_->offset = 0;
    d_->total = 0;
}

void TCPClient::flush() {
}
   d8240:	4770      	bx	lr

000d8242 <_ZN9TCPClient9connectedEv>:
    d_->sock = -1;
    d_->remoteIP.clear();
    flush_buffer();
}

uint8_t TCPClient::connected() {
   d8242:	b538      	push	{r3, r4, r5, lr}
      { return static_cast<const __shared_ptr<_Tp, _Lp>*>(this)->get(); }
   d8244:	6943      	ldr	r3, [r0, #20]
    bool rv = (status() || bufferCount());
   d8246:	681a      	ldr	r2, [r3, #0]
   d8248:	2a00      	cmp	r2, #0
uint8_t TCPClient::connected() {
   d824a:	4605      	mov	r5, r0
    bool rv = (status() || bufferCount());
   d824c:	da10      	bge.n	d8270 <_ZN9TCPClient9connectedEv+0x2e>
   d824e:	f8b3 2086 	ldrh.w	r2, [r3, #134]	; 0x86
   d8252:	f8b3 3084 	ldrh.w	r3, [r3, #132]	; 0x84
   d8256:	429a      	cmp	r2, r3
   d8258:	d10a      	bne.n	d8270 <_ZN9TCPClient9connectedEv+0x2e>
    if (!rv) {
        rv = available();
   d825a:	6803      	ldr	r3, [r0, #0]
   d825c:	691b      	ldr	r3, [r3, #16]
   d825e:	4798      	blx	r3
        if (!rv) {
   d8260:	4604      	mov	r4, r0
   d8262:	b928      	cbnz	r0, d8270 <_ZN9TCPClient9connectedEv+0x2e>
            stop();
   d8264:	682b      	ldr	r3, [r5, #0]
   d8266:	4628      	mov	r0, r5
   d8268:	6adb      	ldr	r3, [r3, #44]	; 0x2c
   d826a:	4798      	blx	r3
        rv = available();
   d826c:	4620      	mov	r0, r4
        }
    }
    return rv;
}
   d826e:	bd38      	pop	{r3, r4, r5, pc}
        rv = available();
   d8270:	2001      	movs	r0, #1
   d8272:	e7fc      	b.n	d826e <_ZN9TCPClient9connectedEv+0x2c>

000d8274 <_ZN9TCPClientcvbEv>:

uint8_t TCPClient::status() {
    return (isOpen(d_->sock));
   d8274:	6943      	ldr	r3, [r0, #20]
    return socket_handle_valid(sd);
   d8276:	6818      	ldr	r0, [r3, #0]
}

TCPClient::operator bool() {
   return (status() != 0);
}
   d8278:	43c0      	mvns	r0, r0
   d827a:	0fc0      	lsrs	r0, r0, #31
   d827c:	4770      	bx	lr

000d827e <_ZNSt23_Sp_counted_ptr_inplaceIN9TCPClient4DataESaIS1_ELN9__gnu_cxx12_Lock_policyE0EED1Ev>:
      ~_Sp_counted_ptr_inplace() noexcept { }
   d827e:	4770      	bx	lr

000d8280 <_ZNSt23_Sp_counted_ptr_inplaceIN9TCPClient4DataESaIS1_ELN9__gnu_cxx12_Lock_policyE0EE14_M_get_deleterERKSt9type_info>:
	    ||
   d8280:	4b06      	ldr	r3, [pc, #24]	; (d829c <_ZNSt23_Sp_counted_ptr_inplaceIN9TCPClient4DataESaIS1_ELN9__gnu_cxx12_Lock_policyE0EE14_M_get_deleterERKSt9type_info+0x1c>)
   d8282:	4299      	cmp	r1, r3
      _M_get_deleter(const std::type_info& __ti) noexcept override
   d8284:	b510      	push	{r4, lr}
      __aligned_buffer(std::nullptr_t) { }

      void*
      _M_addr() noexcept
      {
        return static_cast<void*>(&_M_storage);
   d8286:	f100 040c 	add.w	r4, r0, #12
	    ||
   d828a:	d005      	beq.n	d8298 <_ZNSt23_Sp_counted_ptr_inplaceIN9TCPClient4DataESaIS1_ELN9__gnu_cxx12_Lock_policyE0EE14_M_get_deleterERKSt9type_info+0x18>
	    _Sp_make_shared_tag::_S_eq(__ti)
   d828c:	4608      	mov	r0, r1
   d828e:	f001 f8cd 	bl	d942c <_ZNSt19_Sp_make_shared_tag5_S_eqERKSt9type_info>
	    ||
   d8292:	2800      	cmp	r0, #0
	return nullptr;
   d8294:	bf08      	it	eq
   d8296:	2400      	moveq	r4, #0
      }
   d8298:	4620      	mov	r0, r4
   d829a:	bd10      	pop	{r4, pc}
   d829c:	000dcad0 	.word	0x000dcad0

000d82a0 <_ZNSt23_Sp_counted_ptr_inplaceIN9TCPClient4DataESaIS1_ELN9__gnu_cxx12_Lock_policyE0EED0Ev>:
      ~_Sp_counted_ptr_inplace() noexcept { }
   d82a0:	b510      	push	{r4, lr}
   d82a2:	21ac      	movs	r1, #172	; 0xac
   d82a4:	4604      	mov	r4, r0
   d82a6:	f001 f806 	bl	d92b6 <_ZdlPvj>
   d82aa:	4620      	mov	r0, r4
   d82ac:	bd10      	pop	{r4, pc}

000d82ae <_ZNSt23_Sp_counted_ptr_inplaceIN9TCPClient4DataESaIS1_ELN9__gnu_cxx12_Lock_policyE0EE10_M_destroyEv>:
   d82ae:	f7fb bef6 	b.w	d409e <_ZdlPv>

000d82b2 <_ZN9TCPClient5writeEPKhjm>:
size_t TCPClient::write(const uint8_t *buffer, size_t size, system_tick_t timeout) {
   d82b2:	e92d 41f0 	stmdb	sp!, {r4, r5, r6, r7, r8, lr}
    void setWriteError(int err = 1) { write_error = err; }
   d82b6:	f04f 0800 	mov.w	r8, #0
   d82ba:	b086      	sub	sp, #24
   d82bc:	461d      	mov	r5, r3
   d82be:	f8c0 8004 	str.w	r8, [r0, #4]
   d82c2:	4604      	mov	r4, r0
   d82c4:	460e      	mov	r6, r1
   d82c6:	4617      	mov	r7, r2
    struct timeval tv = {};
   d82c8:	4641      	mov	r1, r8
   d82ca:	2210      	movs	r2, #16
   d82cc:	a802      	add	r0, sp, #8
   d82ce:	f002 f869 	bl	da3a4 <memset>
    if (timeout != SOCKET_WAIT_FOREVER) {
   d82d2:	1c6b      	adds	r3, r5, #1
   d82d4:	d009      	beq.n	d82ea <_ZN9TCPClient5writeEPKhjm+0x38>
        tv.tv_sec = timeout / 1000;
   d82d6:	f44f 707a 	mov.w	r0, #1000	; 0x3e8
   d82da:	fbb5 f3f0 	udiv	r3, r5, r0
   d82de:	e9cd 3802 	strd	r3, r8, [sp, #8]
        tv.tv_usec = (timeout % 1000) * 1000;
   d82e2:	fb00 5313 	mls	r3, r0, r3, r5
   d82e6:	4358      	muls	r0, r3
   d82e8:	9004      	str	r0, [sp, #16]
    int ret = sock_setsockopt(d_->sock, SOL_SOCKET, SO_SNDTIMEO, &tv, sizeof(tv));
   d82ea:	6960      	ldr	r0, [r4, #20]
   d82ec:	2310      	movs	r3, #16
   d82ee:	9300      	str	r3, [sp, #0]
   d82f0:	6800      	ldr	r0, [r0, #0]
   d82f2:	ab02      	add	r3, sp, #8
   d82f4:	f241 0205 	movw	r2, #4101	; 0x1005
   d82f8:	f640 71ff 	movw	r1, #4095	; 0xfff
   d82fc:	f7fe fc82 	bl	d6c04 <sock_setsockopt>
    if (ret < 0) {
   d8300:	2800      	cmp	r0, #0
   d8302:	da07      	bge.n	d8314 <_ZN9TCPClient5writeEPKhjm+0x62>
        setWriteError(errno);
   d8304:	f7fe fe62 	bl	d6fcc <__errno>
   d8308:	6803      	ldr	r3, [r0, #0]
   d830a:	6063      	str	r3, [r4, #4]
        return 0;
   d830c:	2000      	movs	r0, #0
}
   d830e:	b006      	add	sp, #24
   d8310:	e8bd 81f0 	ldmia.w	sp!, {r4, r5, r6, r7, r8, pc}
    ret = sock_send(d_->sock, buffer, size, 0);
   d8314:	6960      	ldr	r0, [r4, #20]
   d8316:	2300      	movs	r3, #0
   d8318:	6800      	ldr	r0, [r0, #0]
   d831a:	463a      	mov	r2, r7
   d831c:	4631      	mov	r1, r6
   d831e:	f7fe fc99 	bl	d6c54 <sock_send>
    if (ret < 0) {
   d8322:	1e03      	subs	r3, r0, #0
   d8324:	dbee      	blt.n	d8304 <_ZN9TCPClient5writeEPKhjm+0x52>
    return ret;
   d8326:	4618      	mov	r0, r3
   d8328:	e7f1      	b.n	d830e <_ZN9TCPClient5writeEPKhjm+0x5c>
	...

000d832c <_ZN9TCPClient8remoteIPEv>:

IPAddress TCPClient::remoteIP() {
   d832c:	b570      	push	{r4, r5, r6, lr}
      { return static_cast<const __shared_ptr<_Tp, _Lp>*>(this)->get(); }
   d832e:	694d      	ldr	r5, [r1, #20]
   d8330:	4b05      	ldr	r3, [pc, #20]	; (d8348 <_ZN9TCPClient8remoteIPEv+0x1c>)
   d8332:	4604      	mov	r4, r0
   d8334:	358c      	adds	r5, #140	; 0x8c
   d8336:	f844 3b04 	str.w	r3, [r4], #4
   d833a:	4606      	mov	r6, r0
   d833c:	cd0f      	ldmia	r5!, {r0, r1, r2, r3}
   d833e:	c40f      	stmia	r4!, {r0, r1, r2, r3}
   d8340:	682b      	ldr	r3, [r5, #0]
   d8342:	7023      	strb	r3, [r4, #0]
    return d_->remoteIP;
}
   d8344:	4630      	mov	r0, r6
   d8346:	bd70      	pop	{r4, r5, r6, pc}
   d8348:	000dcb60 	.word	0x000dcb60

000d834c <_ZN9TCPClient4peekEv>:
int TCPClient::peek() {
   d834c:	b510      	push	{r4, lr}
   d834e:	6943      	ldr	r3, [r0, #20]
    return (bufferCount() || available()) ? d_->buffer[d_->offset] : -1;
   d8350:	f8b3 2086 	ldrh.w	r2, [r3, #134]	; 0x86
   d8354:	f8b3 3084 	ldrh.w	r3, [r3, #132]	; 0x84
   d8358:	429a      	cmp	r2, r3
int TCPClient::peek() {
   d835a:	4604      	mov	r4, r0
    return (bufferCount() || available()) ? d_->buffer[d_->offset] : -1;
   d835c:	d005      	beq.n	d836a <_ZN9TCPClient4peekEv+0x1e>
   d835e:	6963      	ldr	r3, [r4, #20]
   d8360:	f8b3 2084 	ldrh.w	r2, [r3, #132]	; 0x84
   d8364:	4413      	add	r3, r2
   d8366:	7918      	ldrb	r0, [r3, #4]
}
   d8368:	bd10      	pop	{r4, pc}
    return (bufferCount() || available()) ? d_->buffer[d_->offset] : -1;
   d836a:	6803      	ldr	r3, [r0, #0]
   d836c:	691b      	ldr	r3, [r3, #16]
   d836e:	4798      	blx	r3
   d8370:	2800      	cmp	r0, #0
   d8372:	d1f4      	bne.n	d835e <_ZN9TCPClient4peekEv+0x12>
   d8374:	f04f 30ff 	mov.w	r0, #4294967295	; 0xffffffff
   d8378:	e7f6      	b.n	d8368 <_ZN9TCPClient4peekEv+0x1c>

000d837a <_ZN9TCPClient4readEv>:
int TCPClient::read() {
   d837a:	b510      	push	{r4, lr}
   d837c:	6943      	ldr	r3, [r0, #20]
    return (bufferCount() || available()) ? d_->buffer[d_->offset++] : -1;
   d837e:	f8b3 2086 	ldrh.w	r2, [r3, #134]	; 0x86
   d8382:	f8b3 3084 	ldrh.w	r3, [r3, #132]	; 0x84
   d8386:	429a      	cmp	r2, r3
int TCPClient::read() {
   d8388:	4604      	mov	r4, r0
    return (bufferCount() || available()) ? d_->buffer[d_->offset++] : -1;
   d838a:	d008      	beq.n	d839e <_ZN9TCPClient4readEv+0x24>
   d838c:	6963      	ldr	r3, [r4, #20]
   d838e:	f8b3 2084 	ldrh.w	r2, [r3, #132]	; 0x84
   d8392:	1c51      	adds	r1, r2, #1
   d8394:	f8a3 1084 	strh.w	r1, [r3, #132]	; 0x84
   d8398:	4413      	add	r3, r2
   d839a:	7918      	ldrb	r0, [r3, #4]
}
   d839c:	bd10      	pop	{r4, pc}
    return (bufferCount() || available()) ? d_->buffer[d_->offset++] : -1;
   d839e:	6803      	ldr	r3, [r0, #0]
   d83a0:	691b      	ldr	r3, [r3, #16]
   d83a2:	4798      	blx	r3
   d83a4:	2800      	cmp	r0, #0
   d83a6:	d1f1      	bne.n	d838c <_ZN9TCPClient4readEv+0x12>
   d83a8:	f04f 30ff 	mov.w	r0, #4294967295	; 0xffffffff
   d83ac:	e7f6      	b.n	d839c <_ZN9TCPClient4readEv+0x22>

000d83ae <_ZN9TCPClient4readEPhj>:
int TCPClient::read(uint8_t *buffer, size_t size) {
   d83ae:	b5f8      	push	{r3, r4, r5, r6, r7, lr}
   d83b0:	6943      	ldr	r3, [r0, #20]
   d83b2:	4617      	mov	r7, r2
    if (bufferCount() || available()) {
   d83b4:	f8b3 2086 	ldrh.w	r2, [r3, #134]	; 0x86
   d83b8:	f8b3 3084 	ldrh.w	r3, [r3, #132]	; 0x84
   d83bc:	429a      	cmp	r2, r3
int TCPClient::read(uint8_t *buffer, size_t size) {
   d83be:	4605      	mov	r5, r0
   d83c0:	460e      	mov	r6, r1
    if (bufferCount() || available()) {
   d83c2:	d016      	beq.n	d83f2 <_ZN9TCPClient4readEPhj+0x44>
   d83c4:	6969      	ldr	r1, [r5, #20]
    return d_->total - d_->offset;
   d83c6:	f8b1 3084 	ldrh.w	r3, [r1, #132]	; 0x84
   d83ca:	f8b1 4086 	ldrh.w	r4, [r1, #134]	; 0x86
   d83ce:	1ae4      	subs	r4, r4, r3
        read = (size > (size_t) bufferCount()) ? bufferCount() : size;
   d83d0:	42bc      	cmp	r4, r7
   d83d2:	bf28      	it	cs
   d83d4:	463c      	movcs	r4, r7
        memcpy(buffer, &d_->buffer[d_->offset], read);
   d83d6:	3304      	adds	r3, #4
   d83d8:	4622      	mov	r2, r4
   d83da:	4419      	add	r1, r3
   d83dc:	4630      	mov	r0, r6
   d83de:	f001 ffb9 	bl	da354 <memcpy>
   d83e2:	696a      	ldr	r2, [r5, #20]
        d_->offset += read;
   d83e4:	f8b2 3084 	ldrh.w	r3, [r2, #132]	; 0x84
   d83e8:	4423      	add	r3, r4
   d83ea:	f8a2 3084 	strh.w	r3, [r2, #132]	; 0x84
}
   d83ee:	4620      	mov	r0, r4
   d83f0:	bdf8      	pop	{r3, r4, r5, r6, r7, pc}
    if (bufferCount() || available()) {
   d83f2:	6803      	ldr	r3, [r0, #0]
   d83f4:	691b      	ldr	r3, [r3, #16]
   d83f6:	4798      	blx	r3
   d83f8:	2800      	cmp	r0, #0
   d83fa:	d1e3      	bne.n	d83c4 <_ZN9TCPClient4readEPhj+0x16>
    int read = -1;
   d83fc:	f04f 34ff 	mov.w	r4, #4294967295	; 0xffffffff
   d8400:	e7f5      	b.n	d83ee <_ZN9TCPClient4readEPhj+0x40>

000d8402 <_ZN9TCPClient12flush_bufferEv>:
   d8402:	6942      	ldr	r2, [r0, #20]
    d_->offset = 0;
   d8404:	2300      	movs	r3, #0
   d8406:	f8a2 3084 	strh.w	r3, [r2, #132]	; 0x84
   d840a:	6942      	ldr	r2, [r0, #20]
    d_->total = 0;
   d840c:	f8a2 3086 	strh.w	r3, [r2, #134]	; 0x86
}
   d8410:	4770      	bx	lr

000d8412 <_ZN9TCPClient7connectE9IPAddresstm>:
int TCPClient::connect(IPAddress ip, uint16_t port, network_interface_t nif) {
   d8412:	e92d 41f0 	stmdb	sp!, {r4, r5, r6, r7, r8, lr}
   d8416:	461f      	mov	r7, r3
    stop();
   d8418:	6803      	ldr	r3, [r0, #0]
int TCPClient::connect(IPAddress ip, uint16_t port, network_interface_t nif) {
   d841a:	460c      	mov	r4, r1
    stop();
   d841c:	6adb      	ldr	r3, [r3, #44]	; 0x2c
int TCPClient::connect(IPAddress ip, uint16_t port, network_interface_t nif) {
   d841e:	b08a      	sub	sp, #40	; 0x28
   d8420:	4605      	mov	r5, r0
   d8422:	4616      	mov	r6, r2
    stop();
   d8424:	4798      	blx	r3
    d_->sock = sock_socket(ip.version() == 4 ? AF_INET : AF_INET6, SOCK_STREAM, IPPROTO_TCP);
   d8426:	7d23      	ldrb	r3, [r4, #20]
   d8428:	f8d5 8014 	ldr.w	r8, [r5, #20]
   d842c:	2b04      	cmp	r3, #4
   d842e:	bf0c      	ite	eq
   d8430:	2002      	moveq	r0, #2
   d8432:	200a      	movne	r0, #10
   d8434:	2206      	movs	r2, #6
   d8436:	2101      	movs	r1, #1
   d8438:	f7fe fc1c 	bl	d6c74 <sock_socket>
   d843c:	f8c8 0000 	str.w	r0, [r8]
    CHECK_TRUE(d_->sock >= 0, 0); // return 0
   d8440:	696b      	ldr	r3, [r5, #20]
   d8442:	681b      	ldr	r3, [r3, #0]
   d8444:	2b00      	cmp	r3, #0
   d8446:	da08      	bge.n	d845a <_ZN9TCPClient7connectE9IPAddresstm+0x48>
    NAMED_SCOPE_GUARD(done, {
   d8448:	682b      	ldr	r3, [r5, #0]
   d844a:	4628      	mov	r0, r5
   d844c:	6adb      	ldr	r3, [r3, #44]	; 0x2c
        CHECK_TRUE(if_index_to_name(nif, ifr.ifr_name) == 0, 0); // return 0
   d844e:	2400      	movs	r4, #0
    NAMED_SCOPE_GUARD(done, {
   d8450:	4798      	blx	r3
}
   d8452:	4620      	mov	r0, r4
   d8454:	b00a      	add	sp, #40	; 0x28
   d8456:	e8bd 81f0 	ldmia.w	sp!, {r4, r5, r6, r7, r8, pc}
    flush_buffer();
   d845a:	4628      	mov	r0, r5
   d845c:	f7ff ffd1 	bl	d8402 <_ZN9TCPClient12flush_bufferEv>
    if (nif != 0) {
   d8460:	b1b7      	cbz	r7, d8490 <_ZN9TCPClient7connectE9IPAddresstm+0x7e>
        struct ifreq ifr = {};
   d8462:	2300      	movs	r3, #0
        CHECK_TRUE(if_index_to_name(nif, ifr.ifr_name) == 0, 0); // return 0
   d8464:	a903      	add	r1, sp, #12
   d8466:	b2f8      	uxtb	r0, r7
        struct ifreq ifr = {};
   d8468:	9303      	str	r3, [sp, #12]
   d846a:	f8ad 3010 	strh.w	r3, [sp, #16]
        CHECK_TRUE(if_index_to_name(nif, ifr.ifr_name) == 0, 0); // return 0
   d846e:	f7fe fb89 	bl	d6b84 <if_index_to_name>
   d8472:	2800      	cmp	r0, #0
   d8474:	d1e8      	bne.n	d8448 <_ZN9TCPClient7connectE9IPAddresstm+0x36>
        CHECK_TRUE(sock_setsockopt(d_->sock, SOL_SOCKET, SO_BINDTODEVICE, &ifr, sizeof(ifr)) == 0, 0); // return 0
   d8476:	6968      	ldr	r0, [r5, #20]
   d8478:	2306      	movs	r3, #6
   d847a:	9300      	str	r3, [sp, #0]
   d847c:	6800      	ldr	r0, [r0, #0]
   d847e:	ab03      	add	r3, sp, #12
   d8480:	f241 020b 	movw	r2, #4107	; 0x100b
   d8484:	f640 71ff 	movw	r1, #4095	; 0xfff
   d8488:	f7fe fbbc 	bl	d6c04 <sock_setsockopt>
   d848c:	2800      	cmp	r0, #0
   d848e:	d1db      	bne.n	d8448 <_ZN9TCPClient7connectE9IPAddresstm+0x36>
    sockaddr_storage saddr = {};
   d8490:	221c      	movs	r2, #28
   d8492:	2100      	movs	r1, #0
   d8494:	a803      	add	r0, sp, #12
   d8496:	f001 ff85 	bl	da3a4 <memset>
    if (ip.version() == 4) {
   d849a:	7d23      	ldrb	r3, [r4, #20]
   d849c:	2b04      	cmp	r3, #4
   d849e:	d11d      	bne.n	d84dc <_ZN9TCPClient7connectE9IPAddresstm+0xca>
        s->sin_len = sizeof(saddr);
   d84a0:	f44f 7307 	mov.w	r3, #540	; 0x21c
        s->sin_port = htons(port);
   d84a4:	4630      	mov	r0, r6
        s->sin_len = sizeof(saddr);
   d84a6:	f8ad 300c 	strh.w	r3, [sp, #12]
        s->sin_port = htons(port);
   d84aa:	f7fe fb8b 	bl	d6bc4 <inet_htons>
   d84ae:	f8ad 000e 	strh.w	r0, [sp, #14]
        s->sin_addr.s_addr = htonl(ip.raw().ipv4);
   d84b2:	6860      	ldr	r0, [r4, #4]
   d84b4:	f7fe fb76 	bl	d6ba4 <inet_htonl>
   d84b8:	9004      	str	r0, [sp, #16]
    CHECK_TRUE(sock_connect(d_->sock, (const sockaddr*)&saddr, sizeof(saddr)) == 0, 0); // return 0
   d84ba:	696b      	ldr	r3, [r5, #20]
   d84bc:	221c      	movs	r2, #28
   d84be:	6818      	ldr	r0, [r3, #0]
   d84c0:	a903      	add	r1, sp, #12
   d84c2:	f7fe fbaf 	bl	d6c24 <sock_connect>
   d84c6:	2800      	cmp	r0, #0
   d84c8:	d1be      	bne.n	d8448 <_ZN9TCPClient7connectE9IPAddresstm+0x36>
   d84ca:	3404      	adds	r4, #4
   d84cc:	cc0f      	ldmia	r4!, {r0, r1, r2, r3}
   d84ce:	696d      	ldr	r5, [r5, #20]
   d84d0:	358c      	adds	r5, #140	; 0x8c
   d84d2:	c50f      	stmia	r5!, {r0, r1, r2, r3}
   d84d4:	6823      	ldr	r3, [r4, #0]
   d84d6:	702b      	strb	r3, [r5, #0]
    return 1; // success
   d84d8:	2401      	movs	r4, #1
   d84da:	e7ba      	b.n	d8452 <_ZN9TCPClient7connectE9IPAddresstm+0x40>
        s->sin6_len = sizeof(saddr);
   d84dc:	f640 231c 	movw	r3, #2588	; 0xa1c
        s->sin6_port = htons(port);
   d84e0:	4630      	mov	r0, r6
        s->sin6_len = sizeof(saddr);
   d84e2:	f8ad 300c 	strh.w	r3, [sp, #12]
        s->sin6_port = htons(port);
   d84e6:	f7fe fb6d 	bl	d6bc4 <inet_htons>
        memcpy(s->sin6_addr.s6_addr, ip.raw().ipv6, sizeof(s->sin6_addr.s6_addr));
   d84ea:	ae05      	add	r6, sp, #20
        s->sin6_port = htons(port);
   d84ec:	f8ad 000e 	strh.w	r0, [sp, #14]
        memcpy(s->sin6_addr.s6_addr, ip.raw().ipv6, sizeof(s->sin6_addr.s6_addr));
   d84f0:	1d23      	adds	r3, r4, #4
   d84f2:	f104 0714 	add.w	r7, r4, #20
   d84f6:	6818      	ldr	r0, [r3, #0]
   d84f8:	6859      	ldr	r1, [r3, #4]
   d84fa:	4632      	mov	r2, r6
   d84fc:	c203      	stmia	r2!, {r0, r1}
   d84fe:	3308      	adds	r3, #8
   d8500:	42bb      	cmp	r3, r7
   d8502:	4616      	mov	r6, r2
   d8504:	d1f7      	bne.n	d84f6 <_ZN9TCPClient7connectE9IPAddresstm+0xe4>
   d8506:	e7d8      	b.n	d84ba <_ZN9TCPClient7connectE9IPAddresstm+0xa8>

000d8508 <_ZN9TCPClient9availableEv>:
{
   d8508:	b530      	push	{r4, r5, lr}
   d850a:	6942      	ldr	r2, [r0, #20]
    if (d_->total && (d_->offset == d_->total)) {
   d850c:	f8b2 3086 	ldrh.w	r3, [r2, #134]	; 0x86
{
   d8510:	b08b      	sub	sp, #44	; 0x2c
   d8512:	4604      	mov	r4, r0
    if (d_->total && (d_->offset == d_->total)) {
   d8514:	b12b      	cbz	r3, d8522 <_ZN9TCPClient9availableEv+0x1a>
   d8516:	f8b2 2084 	ldrh.w	r2, [r2, #132]	; 0x84
   d851a:	429a      	cmp	r2, r3
   d851c:	d101      	bne.n	d8522 <_ZN9TCPClient9availableEv+0x1a>
        flush_buffer();
   d851e:	f7ff ff70 	bl	d8402 <_ZN9TCPClient12flush_bufferEv>
   d8522:	6961      	ldr	r1, [r4, #20]
    if (isOpen(d_->sock)) {
   d8524:	6808      	ldr	r0, [r1, #0]
   d8526:	2800      	cmp	r0, #0
   d8528:	db18      	blt.n	d855c <_ZN9TCPClient9availableEv+0x54>
   d852a:	f8b1 5086 	ldrh.w	r5, [r1, #134]	; 0x86
        if (d_->total < arraySize(d_->buffer)) {
   d852e:	2d7f      	cmp	r5, #127	; 0x7f
   d8530:	d814      	bhi.n	d855c <_ZN9TCPClient9availableEv+0x54>
            int ret = sock_recv(d_->sock, d_->buffer + d_->total, arraySize(d_->buffer) - d_->total, MSG_DONTWAIT);
   d8532:	3104      	adds	r1, #4
   d8534:	2308      	movs	r3, #8
   d8536:	f1c5 0280 	rsb	r2, r5, #128	; 0x80
   d853a:	4429      	add	r1, r5
   d853c:	f7fe fb7a 	bl	d6c34 <sock_recv>
            if (ret > 0) {
   d8540:	2800      	cmp	r0, #0
   d8542:	dd13      	ble.n	d856c <_ZN9TCPClient9availableEv+0x64>
   d8544:	6963      	ldr	r3, [r4, #20]
                if (d_->total == 0) {
   d8546:	f8b3 2086 	ldrh.w	r2, [r3, #134]	; 0x86
   d854a:	b90a      	cbnz	r2, d8550 <_ZN9TCPClient9availableEv+0x48>
                    d_->offset = 0;
   d854c:	f8a3 2084 	strh.w	r2, [r3, #132]	; 0x84
   d8550:	6963      	ldr	r3, [r4, #20]
                d_->total += ret;
   d8552:	f8b3 2086 	ldrh.w	r2, [r3, #134]	; 0x86
   d8556:	4410      	add	r0, r2
   d8558:	f8a3 0086 	strh.w	r0, [r3, #134]	; 0x86
   d855c:	6963      	ldr	r3, [r4, #20]
    return d_->total - d_->offset;
   d855e:	f8b3 0086 	ldrh.w	r0, [r3, #134]	; 0x86
   d8562:	f8b3 3084 	ldrh.w	r3, [r3, #132]	; 0x84
}
   d8566:	1ac0      	subs	r0, r0, r3
   d8568:	b00b      	add	sp, #44	; 0x2c
   d856a:	bd30      	pop	{r4, r5, pc}
                if (errno != EAGAIN && errno != EWOULDBLOCK) {
   d856c:	f7fe fd2e 	bl	d6fcc <__errno>
   d8570:	6803      	ldr	r3, [r0, #0]
   d8572:	2b0b      	cmp	r3, #11
   d8574:	d0f2      	beq.n	d855c <_ZN9TCPClient9availableEv+0x54>
   d8576:	f7fe fd29 	bl	d6fcc <__errno>
   d857a:	6803      	ldr	r3, [r0, #0]
   d857c:	2b0b      	cmp	r3, #11
   d857e:	d0ed      	beq.n	d855c <_ZN9TCPClient9availableEv+0x54>
                    LOG(ERROR, "recv error = %d", errno);
   d8580:	2320      	movs	r3, #32
   d8582:	2500      	movs	r5, #0
   d8584:	e9cd 3502 	strd	r3, r5, [sp, #8]
   d8588:	f7fe fd20 	bl	d6fcc <__errno>
   d858c:	6803      	ldr	r3, [r0, #0]
   d858e:	9301      	str	r3, [sp, #4]
   d8590:	4b08      	ldr	r3, [pc, #32]	; (d85b4 <_ZN9TCPClient9availableEv+0xac>)
   d8592:	4909      	ldr	r1, [pc, #36]	; (d85b8 <_ZN9TCPClient9availableEv+0xb0>)
   d8594:	9300      	str	r3, [sp, #0]
   d8596:	aa02      	add	r2, sp, #8
   d8598:	462b      	mov	r3, r5
   d859a:	2032      	movs	r0, #50	; 0x32
   d859c:	f7fe fc12 	bl	d6dc4 <log_message>
                    sock_close(d_->sock);
   d85a0:	6963      	ldr	r3, [r4, #20]
   d85a2:	6818      	ldr	r0, [r3, #0]
   d85a4:	f7fe fb36 	bl	d6c14 <sock_close>
   d85a8:	6963      	ldr	r3, [r4, #20]
                    d_->sock = -1;
   d85aa:	f04f 32ff 	mov.w	r2, #4294967295	; 0xffffffff
   d85ae:	601a      	str	r2, [r3, #0]
   d85b0:	e7d4      	b.n	d855c <_ZN9TCPClient9availableEv+0x54>
   d85b2:	bf00      	nop
   d85b4:	000dcbcf 	.word	0x000dcbcf
   d85b8:	000dcbc8 	.word	0x000dcbc8

000d85bc <_ZN9TCPClient4stopEv>:
void TCPClient::stop() {
   d85bc:	b510      	push	{r4, lr}
    if (isOpen(d_->sock)) {
   d85be:	6943      	ldr	r3, [r0, #20]
void TCPClient::stop() {
   d85c0:	4604      	mov	r4, r0
    if (isOpen(d_->sock)) {
   d85c2:	6818      	ldr	r0, [r3, #0]
   d85c4:	2800      	cmp	r0, #0
   d85c6:	db01      	blt.n	d85cc <_ZN9TCPClient4stopEv+0x10>
        sock_close(d_->sock);
   d85c8:	f7fe fb24 	bl	d6c14 <sock_close>
   d85cc:	6963      	ldr	r3, [r4, #20]
    d_->sock = -1;
   d85ce:	f04f 32ff 	mov.w	r2, #4294967295	; 0xffffffff
   d85d2:	601a      	str	r2, [r3, #0]
    void clear() { memset(&address, 0, sizeof (address)); }
   d85d4:	6960      	ldr	r0, [r4, #20]
   d85d6:	2211      	movs	r2, #17
   d85d8:	2100      	movs	r1, #0
   d85da:	308c      	adds	r0, #140	; 0x8c
   d85dc:	f001 fee2 	bl	da3a4 <memset>
    flush_buffer();
   d85e0:	4620      	mov	r0, r4
}
   d85e2:	e8bd 4010 	ldmia.w	sp!, {r4, lr}
    flush_buffer();
   d85e6:	f7ff bf0c 	b.w	d8402 <_ZN9TCPClient12flush_bufferEv>

000d85ea <_ZN9TCPClient6statusEv>:
    return (isOpen(d_->sock));
   d85ea:	6943      	ldr	r3, [r0, #20]
    return socket_handle_valid(sd);
   d85ec:	6818      	ldr	r0, [r3, #0]
}
   d85ee:	43c0      	mvns	r0, r0
   d85f0:	0fc0      	lsrs	r0, r0, #31
   d85f2:	4770      	bx	lr

000d85f4 <_ZN9TCPClient4DataC1Ei>:

TCPClient::Data::Data(sock_handle_t sock)
   d85f4:	b510      	push	{r4, lr}
        : sock(sock),
          offset(0),
          total(0) {
   d85f6:	2300      	movs	r3, #0
TCPClient::Data::Data(sock_handle_t sock)
   d85f8:	4604      	mov	r4, r0
          total(0) {
   d85fa:	6001      	str	r1, [r0, #0]
   d85fc:	f8c0 3084 	str.w	r3, [r0, #132]	; 0x84
   d8600:	3088      	adds	r0, #136	; 0x88
   d8602:	f7ff f8a3 	bl	d774c <_ZN9IPAddressC1Ev>
}
   d8606:	4620      	mov	r0, r4
   d8608:	bd10      	pop	{r4, pc}
	...

000d860c <_ZN9TCPClientC1Ei>:
TCPClient::TCPClient(sock_handle_t sock)
   d860c:	b573      	push	{r0, r1, r4, r5, r6, lr}
   d860e:	2300      	movs	r3, #0
   d8610:	f44f 727a 	mov.w	r2, #1000	; 0x3e8
   d8614:	e9c0 3201 	strd	r3, r2, [r0, #4]
        : d_(std::make_shared<Data>(sock)) {
   d8618:	4a0e      	ldr	r2, [pc, #56]	; (d8654 <_ZN9TCPClientC1Ei+0x48>)
#include "system_network.h"
#include "spark_wiring_print.h"
#include "spark_wiring_stream.h"
#include "spark_wiring_ipaddress.h"

class Client : public Stream {
   d861a:	6103      	str	r3, [r0, #16]
   d861c:	6002      	str	r2, [r0, #0]

    protected:
      // This constructor is non-standard, it is used by allocate_shared.
      template<typename _Alloc, typename... _Args>
	__shared_ptr(_Sp_alloc_shared_tag<_Alloc> __tag, _Args&&... __args)
	: _M_ptr(), _M_refcount(_M_ptr, __tag, std::forward<_Args>(__args)...)
   d861e:	6143      	str	r3, [r0, #20]
TCPClient::TCPClient(sock_handle_t sock)
   d8620:	4604      	mov	r4, r0
	return static_cast<_Tp*>(::operator new(__n * sizeof(_Tp)));
   d8622:	20ac      	movs	r0, #172	; 0xac
   d8624:	9101      	str	r1, [sp, #4]
   d8626:	f7fb fd36 	bl	d4096 <_Znwj>
	  auto __pi = ::new (__mem)
   d862a:	1e05      	subs	r5, r0, #0
   d862c:	f105 060c 	add.w	r6, r5, #12
   d8630:	d008      	beq.n	d8644 <_ZN9TCPClientC1Ei+0x38>
      : _M_use_count(1), _M_weak_count(1) { }
   d8632:	2301      	movs	r3, #1
   d8634:	e9c5 3301 	strd	r3, r3, [r5, #4]
	: _M_impl(__a)
   d8638:	4b07      	ldr	r3, [pc, #28]	; (d8658 <_ZN9TCPClientC1Ei+0x4c>)
      template<typename _Up, typename... _Args>
	void
	construct(_Up* __p, _Args&&... __args)
	noexcept(noexcept(::new((void *)__p)
			    _Up(std::forward<_Args>(__args)...)))
	{ ::new((void *)__p) _Up(std::forward<_Args>(__args)...); }
   d863a:	9901      	ldr	r1, [sp, #4]
   d863c:	602b      	str	r3, [r5, #0]
   d863e:	4630      	mov	r0, r6
   d8640:	f7ff ffd8 	bl	d85f4 <_ZN9TCPClient4DataC1Ei>
    flush_buffer();
   d8644:	4620      	mov	r0, r4
	  __p = __pi->_M_ptr();
   d8646:	e9c4 6505 	strd	r6, r5, [r4, #20]
   d864a:	f7ff feda 	bl	d8402 <_ZN9TCPClient12flush_bufferEv>
}
   d864e:	b002      	add	sp, #8
   d8650:	bd70      	pop	{r4, r5, r6, pc}
   d8652:	bf00      	nop
   d8654:	000dcc04 	.word	0x000dcc04
   d8658:	000dcbe8 	.word	0x000dcbe8

000d865c <_ZN9TCPClientC1Ev>:
TCPClient::TCPClient()
   d865c:	b510      	push	{r4, lr}
        : TCPClient(-1) {
   d865e:	f04f 31ff 	mov.w	r1, #4294967295	; 0xffffffff
TCPClient::TCPClient()
   d8662:	4604      	mov	r4, r0
        : TCPClient(-1) {
   d8664:	f7ff ffd2 	bl	d860c <_ZN9TCPClientC1Ei>
}
   d8668:	4620      	mov	r0, r4
   d866a:	bd10      	pop	{r4, pc}

000d866c <_ZN9TCPClient4DataD1Ev>:

TCPClient::Data::~Data() {
   d866c:	b510      	push	{r4, lr}
   d866e:	4604      	mov	r4, r0
    if (socket_handle_valid(sock)) {
   d8670:	6800      	ldr	r0, [r0, #0]
   d8672:	2800      	cmp	r0, #0
   d8674:	db01      	blt.n	d867a <_ZN9TCPClient4DataD1Ev+0xe>
        sock_close(sock);
   d8676:	f7fe facd 	bl	d6c14 <sock_close>
    }
}
   d867a:	4620      	mov	r0, r4
   d867c:	bd10      	pop	{r4, pc}

000d867e <_ZNSt23_Sp_counted_ptr_inplaceIN9TCPClient4DataESaIS1_ELN9__gnu_cxx12_Lock_policyE0EE10_M_disposeEv>:

      template<typename _Up>
	void
	destroy(_Up* __p)
	noexcept(noexcept( __p->~_Up()))
	{ __p->~_Up(); }
   d867e:	300c      	adds	r0, #12
   d8680:	f7ff bff4 	b.w	d866c <_ZN9TCPClient4DataD1Ev>

000d8684 <_ZN9IPAddressaSIPKhEERS_T_>:
    IPAddress& operator=(T address) {
   d8684:	b570      	push	{r4, r5, r6, lr}
   d8686:	b086      	sub	sp, #24
   d8688:	4606      	mov	r6, r0
class IPAddress : public Printable {
   d868a:	ad01      	add	r5, sp, #4
        return *this = IPAddress(address);
   d868c:	4668      	mov	r0, sp
   d868e:	f7ff f8ad 	bl	d77ec <_ZN9IPAddressC1EPKh>
class IPAddress : public Printable {
   d8692:	cd0f      	ldmia	r5!, {r0, r1, r2, r3}
   d8694:	1d34      	adds	r4, r6, #4
   d8696:	c40f      	stmia	r4!, {r0, r1, r2, r3}
   d8698:	682b      	ldr	r3, [r5, #0]
   d869a:	7023      	strb	r3, [r4, #0]
    }
   d869c:	4630      	mov	r0, r6
   d869e:	b006      	add	sp, #24
   d86a0:	bd70      	pop	{r4, r5, r6, pc}
	...

000d86a4 <_ZN9TCPClient7connectEPKctm>:
int TCPClient::connect(const char* host, uint16_t port, network_interface_t nif) {
   d86a4:	e92d 43f0 	stmdb	sp!, {r4, r5, r6, r7, r8, r9, lr}
   d86a8:	4698      	mov	r8, r3
    stop();
   d86aa:	6803      	ldr	r3, [r0, #0]
int TCPClient::connect(const char* host, uint16_t port, network_interface_t nif) {
   d86ac:	b093      	sub	sp, #76	; 0x4c
   d86ae:	460d      	mov	r5, r1
    struct addrinfo* ais = nullptr;
   d86b0:	2400      	movs	r4, #0
    stop();
   d86b2:	6adb      	ldr	r3, [r3, #44]	; 0x2c
int TCPClient::connect(const char* host, uint16_t port, network_interface_t nif) {
   d86b4:	4606      	mov	r6, r0
   d86b6:	4617      	mov	r7, r2
    stop();
   d86b8:	4798      	blx	r3
    CHECK_TRUE(netdb_getaddrinfo(host, nullptr, nullptr, &ais) == 0, 0); // return 0
   d86ba:	4628      	mov	r0, r5
   d86bc:	466b      	mov	r3, sp
   d86be:	4622      	mov	r2, r4
   d86c0:	4621      	mov	r1, r4
    struct addrinfo* ais = nullptr;
   d86c2:	9400      	str	r4, [sp, #0]
    CHECK_TRUE(netdb_getaddrinfo(host, nullptr, nullptr, &ais) == 0, 0); // return 0
   d86c4:	f7fe fa8e 	bl	d6be4 <netdb_getaddrinfo>
   d86c8:	4605      	mov	r5, r0
   d86ca:	2800      	cmp	r0, #0
   d86cc:	d163      	bne.n	d8796 <_ZN9TCPClient7connectEPKctm+0xf2>
    if (ais && ais->ai_addr) {
   d86ce:	9b00      	ldr	r3, [sp, #0]
   d86d0:	2b00      	cmp	r3, #0
   d86d2:	d04b      	beq.n	d876c <_ZN9TCPClient7connectEPKctm+0xc8>
   d86d4:	695b      	ldr	r3, [r3, #20]
   d86d6:	2b00      	cmp	r3, #0
   d86d8:	d048      	beq.n	d876c <_ZN9TCPClient7connectEPKctm+0xc8>
        IPAddress addr;
   d86da:	a806      	add	r0, sp, #24
   d86dc:	f7ff f836 	bl	d774c <_ZN9IPAddressC1Ev>
        detail::sockaddrToIpAddressPort(ais->ai_addr, addr, nullptr);
   d86e0:	9b00      	ldr	r3, [sp, #0]
   d86e2:	695c      	ldr	r4, [r3, #20]
namespace spark {

namespace detail {

inline void sockaddrToIpAddressPort(const struct sockaddr* saddr, IPAddress& addr, uint16_t* port) {
    if (saddr->sa_family == AF_INET) {
   d86e4:	7863      	ldrb	r3, [r4, #1]
   d86e6:	2b02      	cmp	r3, #2
   d86e8:	d104      	bne.n	d86f4 <_ZN9TCPClient7connectEPKctm+0x50>
        const struct sockaddr_in* inaddr = (const struct sockaddr_in*)saddr;
        addr = (const uint8_t*)(&inaddr->sin_addr.s_addr);
   d86ea:	1d21      	adds	r1, r4, #4
            memcpy(a.ipv6, in6addr->sin6_addr.s6_addr, sizeof(a.ipv6));
            a.v = 6;
            addr = IPAddress(a);
        } else {
            auto ptr = (const uint32_t*)(in6addr->sin6_addr.s6_addr);
            addr = (const uint8_t*)(&ptr[3]);
   d86ec:	a806      	add	r0, sp, #24
   d86ee:	f7ff ffc9 	bl	d8684 <_ZN9IPAddressaSIPKhEERS_T_>
        }
        if (port) {
   d86f2:	e026      	b.n	d8742 <_ZN9TCPClient7connectEPKctm+0x9e>
    else if (saddr->sa_family == AF_INET6) {
   d86f4:	2b0a      	cmp	r3, #10
   d86f6:	d124      	bne.n	d8742 <_ZN9TCPClient7connectEPKctm+0x9e>
        HAL_IPAddress a = {};
   d86f8:	2211      	movs	r2, #17
   d86fa:	4629      	mov	r1, r5
   d86fc:	a801      	add	r0, sp, #4
   d86fe:	f001 fe51 	bl	da3a4 <memset>
        if (!IN6_IS_ADDR_V4MAPPED(&in6addr->sin6_addr)) {
   d8702:	68a3      	ldr	r3, [r4, #8]
   d8704:	2b00      	cmp	r3, #0
   d8706:	d038      	beq.n	d877a <_ZN9TCPClient7connectEPKctm+0xd6>
            memcpy(a.ipv6, in6addr->sin6_addr.s6_addr, sizeof(a.ipv6));
   d8708:	f104 0308 	add.w	r3, r4, #8
   d870c:	f10d 0c04 	add.w	ip, sp, #4
   d8710:	3418      	adds	r4, #24
   d8712:	6818      	ldr	r0, [r3, #0]
   d8714:	6859      	ldr	r1, [r3, #4]
   d8716:	4662      	mov	r2, ip
   d8718:	c203      	stmia	r2!, {r0, r1}
   d871a:	3308      	adds	r3, #8
   d871c:	42a3      	cmp	r3, r4
   d871e:	4694      	mov	ip, r2
   d8720:	d1f7      	bne.n	d8712 <_ZN9TCPClient7connectEPKctm+0x6e>
            a.v = 6;
   d8722:	2306      	movs	r3, #6
            addr = IPAddress(a);
   d8724:	a901      	add	r1, sp, #4
   d8726:	a80c      	add	r0, sp, #48	; 0x30
            a.v = 6;
   d8728:	f88d 3014 	strb.w	r3, [sp, #20]
            addr = IPAddress(a);
   d872c:	f7ff f81c 	bl	d7768 <_ZN9IPAddressC1ERK16_HAL_IPAddress_t>
class IPAddress : public Printable {
   d8730:	f10d 0c34 	add.w	ip, sp, #52	; 0x34
   d8734:	e8bc 000f 	ldmia.w	ip!, {r0, r1, r2, r3}
   d8738:	ac07      	add	r4, sp, #28
   d873a:	c40f      	stmia	r4!, {r0, r1, r2, r3}
   d873c:	f8dc 3000 	ldr.w	r3, [ip]
   d8740:	7023      	strb	r3, [r4, #0]
        return static_cast<const IPAddress*>(this)->operator bool();
   d8742:	a806      	add	r0, sp, #24
   d8744:	f7ff f822 	bl	d778c <_ZNK9IPAddresscvbEv>
        if (addr) {
   d8748:	b180      	cbz	r0, d876c <_ZN9TCPClient7connectEPKctm+0xc8>
            return connect(addr, port, nif);
   d874a:	6833      	ldr	r3, [r6, #0]
class IPAddress : public Printable {
   d874c:	ad07      	add	r5, sp, #28
   d874e:	f8d3 9020 	ldr.w	r9, [r3, #32]
   d8752:	4b12      	ldr	r3, [pc, #72]	; (d879c <_ZN9TCPClient7connectEPKctm+0xf8>)
   d8754:	930c      	str	r3, [sp, #48]	; 0x30
   d8756:	cd0f      	ldmia	r5!, {r0, r1, r2, r3}
   d8758:	ac0d      	add	r4, sp, #52	; 0x34
   d875a:	c40f      	stmia	r4!, {r0, r1, r2, r3}
   d875c:	682b      	ldr	r3, [r5, #0]
   d875e:	7023      	strb	r3, [r4, #0]
   d8760:	463a      	mov	r2, r7
   d8762:	4643      	mov	r3, r8
   d8764:	a90c      	add	r1, sp, #48	; 0x30
   d8766:	4630      	mov	r0, r6
   d8768:	47c8      	blx	r9
   d876a:	4605      	mov	r5, r0
    SCOPE_GUARD({
   d876c:	9800      	ldr	r0, [sp, #0]
   d876e:	f7fe fa31 	bl	d6bd4 <netdb_freeaddrinfo>
}
   d8772:	4628      	mov	r0, r5
   d8774:	b013      	add	sp, #76	; 0x4c
   d8776:	e8bd 83f0 	ldmia.w	sp!, {r4, r5, r6, r7, r8, r9, pc}
        if (!IN6_IS_ADDR_V4MAPPED(&in6addr->sin6_addr)) {
   d877a:	68e3      	ldr	r3, [r4, #12]
   d877c:	2b00      	cmp	r3, #0
   d877e:	d1c3      	bne.n	d8708 <_ZN9TCPClient7connectEPKctm+0x64>
   d8780:	f64f 70ff 	movw	r0, #65535	; 0xffff
   d8784:	f8d4 9010 	ldr.w	r9, [r4, #16]
   d8788:	f7fe fa0c 	bl	d6ba4 <inet_htonl>
   d878c:	4581      	cmp	r9, r0
   d878e:	d1bb      	bne.n	d8708 <_ZN9TCPClient7connectEPKctm+0x64>
            addr = (const uint8_t*)(&ptr[3]);
   d8790:	f104 0114 	add.w	r1, r4, #20
   d8794:	e7aa      	b.n	d86ec <_ZN9TCPClient7connectEPKctm+0x48>
    CHECK_TRUE(netdb_getaddrinfo(host, nullptr, nullptr, &ais) == 0, 0); // return 0
   d8796:	4625      	mov	r5, r4
   d8798:	e7e8      	b.n	d876c <_ZN9TCPClient7connectEPKctm+0xc8>
   d879a:	bf00      	nop
   d879c:	000dcb60 	.word	0x000dcb60

000d87a0 <_GLOBAL__sub_I_TIME_FORMAT_DEFAULT>:
            calendar_time_cache = Convert_UnixTime_To_CalendarTime(unix_time);
            unix_time_cache = unix_time;
    }
}

const char* TimeClass::format_spec = TIME_FORMAT_DEFAULT;
   d87a0:	4b02      	ldr	r3, [pc, #8]	; (d87ac <_GLOBAL__sub_I_TIME_FORMAT_DEFAULT+0xc>)
   d87a2:	681a      	ldr	r2, [r3, #0]
   d87a4:	4b02      	ldr	r3, [pc, #8]	; (d87b0 <_GLOBAL__sub_I_TIME_FORMAT_DEFAULT+0x10>)
   d87a6:	601a      	str	r2, [r3, #0]
{
  return isValid();
}


TimeClass Time;
   d87a8:	4770      	bx	lr
   d87aa:	bf00      	nop
   d87ac:	2003e298 	.word	0x2003e298
   d87b0:	2003e67c 	.word	0x2003e67c

000d87b4 <_ZN3UDP13receivePacketEPcjm>:
     * @param buffer        The buffer to read data to
     * @param buf_size      The buffer size
     * @return The number of bytes written to the buffer, or a negative value on error.
     */
    virtual int receivePacket(uint8_t* buffer, size_t buf_size, system_tick_t timeout = 0);
    virtual int receivePacket(char* buffer, size_t buf_size, system_tick_t timeout = 0) {
   d87b4:	b410      	push	{r4}
        return receivePacket((uint8_t*)buffer, buf_size, timeout);
   d87b6:	6804      	ldr	r4, [r0, #0]
   d87b8:	6b24      	ldr	r4, [r4, #48]	; 0x30
   d87ba:	46a4      	mov	ip, r4
    }
   d87bc:	f85d 4b04 	ldr.w	r4, [sp], #4
        return receivePacket((uint8_t*)buffer, buf_size, timeout);
   d87c0:	4760      	bx	ip

000d87c2 <_ZN3UDP4readEPcj>:
     * @return
     */
    virtual int read();
    virtual int read(unsigned char* buffer, size_t len);

    virtual int read(char* buffer, size_t len) { return read((unsigned char*)buffer, len); };
   d87c2:	6803      	ldr	r3, [r0, #0]
   d87c4:	6c9b      	ldr	r3, [r3, #72]	; 0x48
   d87c6:	4718      	bx	r3

000d87c8 <_ZN3UDP10remotePortEv>:
    void flush_buffer();

    const uint8_t* buffer() const { return _buffer; }

    virtual IPAddress remoteIP() { return _remoteIP; };
    virtual uint16_t remotePort() { return _remotePort; };
   d87c8:	8e80      	ldrh	r0, [r0, #52]	; 0x34
   d87ca:	4770      	bx	lr

000d87cc <_ZN3UDP9availableEv>:
    }
    return bound;
}

int UDP::available() {
    return _total - _offset;
   d87cc:	8f02      	ldrh	r2, [r0, #56]	; 0x38
   d87ce:	8ec0      	ldrh	r0, [r0, #54]	; 0x36
}
   d87d0:	1a10      	subs	r0, r2, r0
   d87d2:	4770      	bx	lr

000d87d4 <_ZN3UDP5writeEh>:
    }

    return sock_sendto(_sock, buffer, buffer_size, 0, (const struct sockaddr*)&s, sizeof(s));
}

size_t UDP::write(uint8_t byte) {
   d87d4:	b507      	push	{r0, r1, r2, lr}
    return write(&byte, 1);
   d87d6:	6803      	ldr	r3, [r0, #0]
size_t UDP::write(uint8_t byte) {
   d87d8:	f88d 1007 	strb.w	r1, [sp, #7]
    return write(&byte, 1);
   d87dc:	68db      	ldr	r3, [r3, #12]
   d87de:	2201      	movs	r2, #1
   d87e0:	f10d 0107 	add.w	r1, sp, #7
   d87e4:	4798      	blx	r3
}
   d87e6:	b003      	add	sp, #12
   d87e8:	f85d fb04 	ldr.w	pc, [sp], #4

000d87ec <_ZN3UDP4readEv>:
        }
    }
    return ret;
}

int UDP::read() {
   d87ec:	b510      	push	{r4, lr}
    return available() ? _buffer[_offset++] : -1;
   d87ee:	6803      	ldr	r3, [r0, #0]
   d87f0:	691b      	ldr	r3, [r3, #16]
int UDP::read() {
   d87f2:	4604      	mov	r4, r0
    return available() ? _buffer[_offset++] : -1;
   d87f4:	4798      	blx	r3
   d87f6:	b128      	cbz	r0, d8804 <_ZN3UDP4readEv+0x18>
   d87f8:	8ee3      	ldrh	r3, [r4, #54]	; 0x36
   d87fa:	6be2      	ldr	r2, [r4, #60]	; 0x3c
   d87fc:	1c59      	adds	r1, r3, #1
   d87fe:	86e1      	strh	r1, [r4, #54]	; 0x36
   d8800:	5cd0      	ldrb	r0, [r2, r3]
}
   d8802:	bd10      	pop	{r4, pc}
    return available() ? _buffer[_offset++] : -1;
   d8804:	f04f 30ff 	mov.w	r0, #4294967295	; 0xffffffff
   d8808:	e7fb      	b.n	d8802 <_ZN3UDP4readEv+0x16>

000d880a <_ZN3UDP4peekEv>:
        _offset += read;
    }
    return read;
}

int UDP::peek() {
   d880a:	b510      	push	{r4, lr}
    return available() ? _buffer[_offset] : -1;
   d880c:	6803      	ldr	r3, [r0, #0]
   d880e:	691b      	ldr	r3, [r3, #16]
int UDP::peek() {
   d8810:	4604      	mov	r4, r0
    return available() ? _buffer[_offset] : -1;
   d8812:	4798      	blx	r3
   d8814:	b118      	cbz	r0, d881e <_ZN3UDP4peekEv+0x14>
   d8816:	8ee3      	ldrh	r3, [r4, #54]	; 0x36
   d8818:	6be2      	ldr	r2, [r4, #60]	; 0x3c
   d881a:	5cd0      	ldrb	r0, [r2, r3]
}
   d881c:	bd10      	pop	{r4, pc}
    return available() ? _buffer[_offset] : -1;
   d881e:	f04f 30ff 	mov.w	r0, #4294967295	; 0xffffffff
   d8822:	e7fb      	b.n	d881c <_ZN3UDP4peekEv+0x12>

000d8824 <_ZN3UDP5flushEv>:

void UDP::flush() {
}
   d8824:	4770      	bx	lr

000d8826 <_ZNK3UDP7printToER5Print>:
void UDP::flush_buffer() {
    _offset = 0;
    _total = 0;
}

size_t UDP::printTo(Print& p) const {
   d8826:	b410      	push	{r4}
   d8828:	4603      	mov	r3, r0
   d882a:	4608      	mov	r0, r1
    // can't use available() since this is a `const` method, and available is part of the Stream interface, and is non-const.
    int size = _total - _offset;
    return p.write(_buffer + _offset, size);
   d882c:	6bdc      	ldr	r4, [r3, #60]	; 0x3c
    int size = _total - _offset;
   d882e:	8ed9      	ldrh	r1, [r3, #54]	; 0x36
   d8830:	8f1a      	ldrh	r2, [r3, #56]	; 0x38
    return p.write(_buffer + _offset, size);
   d8832:	6803      	ldr	r3, [r0, #0]
   d8834:	1a52      	subs	r2, r2, r1
   d8836:	68db      	ldr	r3, [r3, #12]
   d8838:	4421      	add	r1, r4
}
   d883a:	f85d 4b04 	ldr.w	r4, [sp], #4
    return p.write(_buffer + _offset, size);
   d883e:	4718      	bx	r3

000d8840 <_ZThn16_NK3UDP7printToER5Print>:
    /**
     * Prints the current read parsed packet to the given output.
     * @param p
     * @return
     */
    virtual size_t printTo(Print& p) const;
   d8840:	f1a0 0010 	sub.w	r0, r0, #16
   d8844:	f7ff bfef 	b.w	d8826 <_ZNK3UDP7printToER5Print>

000d8848 <_ZN3UDP5beginEtm>:
uint8_t UDP::begin(uint16_t port, network_interface_t nif) {
   d8848:	b570      	push	{r4, r5, r6, lr}
    stop();
   d884a:	6803      	ldr	r3, [r0, #0]
uint8_t UDP::begin(uint16_t port, network_interface_t nif) {
   d884c:	b08c      	sub	sp, #48	; 0x30
    stop();
   d884e:	6a5b      	ldr	r3, [r3, #36]	; 0x24
uint8_t UDP::begin(uint16_t port, network_interface_t nif) {
   d8850:	4604      	mov	r4, r0
   d8852:	460e      	mov	r6, r1
   d8854:	4615      	mov	r5, r2
    stop();
   d8856:	4798      	blx	r3
    const int one = 1;
   d8858:	2301      	movs	r3, #1
    struct sockaddr_in6 saddr = {};
   d885a:	221c      	movs	r2, #28
   d885c:	2100      	movs	r1, #0
   d885e:	a805      	add	r0, sp, #20
    const int one = 1;
   d8860:	9302      	str	r3, [sp, #8]
    struct sockaddr_in6 saddr = {};
   d8862:	f001 fd9f 	bl	da3a4 <memset>
    saddr.sin6_len = sizeof(saddr);
   d8866:	f640 231c 	movw	r3, #2588	; 0xa1c
    saddr.sin6_port = htons(port);
   d886a:	4630      	mov	r0, r6
    saddr.sin6_len = sizeof(saddr);
   d886c:	f8ad 3014 	strh.w	r3, [sp, #20]
    saddr.sin6_port = htons(port);
   d8870:	f7fe f9a8 	bl	d6bc4 <inet_htons>
    _sock = sock_socket(HAL_IPv6 ? AF_INET6 : AF_INET, SOCK_DGRAM, IPPROTO_UDP);
   d8874:	2211      	movs	r2, #17
    saddr.sin6_port = htons(port);
   d8876:	f8ad 0016 	strh.w	r0, [sp, #22]
    _sock = sock_socket(HAL_IPv6 ? AF_INET6 : AF_INET, SOCK_DGRAM, IPPROTO_UDP);
   d887a:	2102      	movs	r1, #2
   d887c:	200a      	movs	r0, #10
   d887e:	f7fe f9f9 	bl	d6c74 <sock_socket>
    if (_sock < 0) {
   d8882:	2800      	cmp	r0, #0
    _sock = sock_socket(HAL_IPv6 ? AF_INET6 : AF_INET, SOCK_DGRAM, IPPROTO_UDP);
   d8884:	6160      	str	r0, [r4, #20]
    if (_sock < 0) {
   d8886:	db25      	blt.n	d88d4 <_ZN3UDP5beginEtm+0x8c>
    if (sock_setsockopt(_sock, SOL_SOCKET, SO_REUSEADDR, &one, sizeof(one))) {
   d8888:	2204      	movs	r2, #4
   d888a:	9200      	str	r2, [sp, #0]
   d888c:	ab02      	add	r3, sp, #8
   d888e:	f640 71ff 	movw	r1, #4095	; 0xfff
   d8892:	f7fe f9b7 	bl	d6c04 <sock_setsockopt>
   d8896:	b9e8      	cbnz	r0, d88d4 <_ZN3UDP5beginEtm+0x8c>
    if (nif != 0) {
   d8898:	b195      	cbz	r5, d88c0 <_ZN3UDP5beginEtm+0x78>
        struct ifreq ifr = {};
   d889a:	9003      	str	r0, [sp, #12]
   d889c:	f8ad 0010 	strh.w	r0, [sp, #16]
        if (if_index_to_name(nif, ifr.ifr_name)) {
   d88a0:	a903      	add	r1, sp, #12
   d88a2:	b2e8      	uxtb	r0, r5
   d88a4:	f7fe f96e 	bl	d6b84 <if_index_to_name>
   d88a8:	b9a0      	cbnz	r0, d88d4 <_ZN3UDP5beginEtm+0x8c>
        if (sock_setsockopt(_sock, SOL_SOCKET, SO_BINDTODEVICE, &ifr, sizeof(ifr))) {
   d88aa:	2306      	movs	r3, #6
   d88ac:	9300      	str	r3, [sp, #0]
   d88ae:	6960      	ldr	r0, [r4, #20]
   d88b0:	ab03      	add	r3, sp, #12
   d88b2:	f241 020b 	movw	r2, #4107	; 0x100b
   d88b6:	f640 71ff 	movw	r1, #4095	; 0xfff
   d88ba:	f7fe f9a3 	bl	d6c04 <sock_setsockopt>
   d88be:	b948      	cbnz	r0, d88d4 <_ZN3UDP5beginEtm+0x8c>
    if (sock_bind(_sock, (const struct sockaddr*)&saddr, sizeof(saddr))) {
   d88c0:	6960      	ldr	r0, [r4, #20]
   d88c2:	221c      	movs	r2, #28
   d88c4:	a905      	add	r1, sp, #20
   d88c6:	f7fe f995 	bl	d6bf4 <sock_bind>
   d88ca:	b918      	cbnz	r0, d88d4 <_ZN3UDP5beginEtm+0x8c>
    _nif = nif;
   d88cc:	6465      	str	r5, [r4, #68]	; 0x44
    bound = true;
   d88ce:	2001      	movs	r0, #1
}
   d88d0:	b00c      	add	sp, #48	; 0x30
   d88d2:	bd70      	pop	{r4, r5, r6, pc}
        stop();
   d88d4:	6823      	ldr	r3, [r4, #0]
   d88d6:	4620      	mov	r0, r4
   d88d8:	6a5b      	ldr	r3, [r3, #36]	; 0x24
   d88da:	4798      	blx	r3
   d88dc:	2000      	movs	r0, #0
   d88de:	e7f7      	b.n	d88d0 <_ZN3UDP5beginEtm+0x88>

000d88e0 <_ZN3UDP4stopEv>:
void UDP::stop() {
   d88e0:	b510      	push	{r4, lr}
   d88e2:	4604      	mov	r4, r0
    if (isOpen(_sock)) {
   d88e4:	6940      	ldr	r0, [r0, #20]
   d88e6:	2800      	cmp	r0, #0
   d88e8:	db01      	blt.n	d88ee <_ZN3UDP4stopEv+0xe>
        sock_close(_sock);
   d88ea:	f7fe f993 	bl	d6c14 <sock_close>
    _sock = -1;
   d88ee:	f04f 33ff 	mov.w	r3, #4294967295	; 0xffffffff
   d88f2:	6163      	str	r3, [r4, #20]
    _offset = 0;
   d88f4:	2300      	movs	r3, #0
   d88f6:	86e3      	strh	r3, [r4, #54]	; 0x36
    _total = 0;
   d88f8:	8723      	strh	r3, [r4, #56]	; 0x38
}
   d88fa:	bd10      	pop	{r4, pc}

000d88fc <_ZN3UDP5writeEPKhj>:
size_t UDP::write(const uint8_t *buffer, size_t size) {
   d88fc:	b570      	push	{r4, r5, r6, lr}
   d88fe:	4605      	mov	r5, r0
    size_t available = _buffer ? _buffer_size - _offset : 0;
   d8900:	6bc0      	ldr	r0, [r0, #60]	; 0x3c
   d8902:	8eee      	ldrh	r6, [r5, #54]	; 0x36
   d8904:	b168      	cbz	r0, d8922 <_ZN3UDP5writeEPKhj+0x26>
   d8906:	6c2b      	ldr	r3, [r5, #64]	; 0x40
   d8908:	1b9c      	subs	r4, r3, r6
    if (size > available) {
   d890a:	4294      	cmp	r4, r2
   d890c:	bf28      	it	cs
   d890e:	4614      	movcs	r4, r2
    memcpy(_buffer + _offset, buffer, size);
   d8910:	4622      	mov	r2, r4
   d8912:	4430      	add	r0, r6
   d8914:	f001 fd1e 	bl	da354 <memcpy>
    _offset += size;
   d8918:	8eeb      	ldrh	r3, [r5, #54]	; 0x36
   d891a:	4423      	add	r3, r4
   d891c:	86eb      	strh	r3, [r5, #54]	; 0x36
}
   d891e:	4620      	mov	r0, r4
   d8920:	bd70      	pop	{r4, r5, r6, pc}
    size_t available = _buffer ? _buffer_size - _offset : 0;
   d8922:	4604      	mov	r4, r0
   d8924:	e7f1      	b.n	d890a <_ZN3UDP5writeEPKhj+0xe>

000d8926 <_ZN3UDP4readEPhj>:
int UDP::read(unsigned char* buffer, size_t len) {
   d8926:	b5d0      	push	{r4, r6, r7, lr}
    if (available()) {
   d8928:	6803      	ldr	r3, [r0, #0]
   d892a:	691b      	ldr	r3, [r3, #16]
int UDP::read(unsigned char* buffer, size_t len) {
   d892c:	4604      	mov	r4, r0
   d892e:	460f      	mov	r7, r1
   d8930:	4616      	mov	r6, r2
    if (available()) {
   d8932:	4798      	blx	r3
   d8934:	b190      	cbz	r0, d895c <_ZN3UDP4readEPhj+0x36>
        read = min(int(len), available());
   d8936:	6823      	ldr	r3, [r4, #0]
   d8938:	4620      	mov	r0, r4
   d893a:	691b      	ldr	r3, [r3, #16]
   d893c:	4798      	blx	r3
        memcpy(buffer, &_buffer[_offset], read);
   d893e:	8ee3      	ldrh	r3, [r4, #54]	; 0x36
   d8940:	6be1      	ldr	r1, [r4, #60]	; 0x3c
   d8942:	4286      	cmp	r6, r0
   d8944:	bfa8      	it	ge
   d8946:	4606      	movge	r6, r0
   d8948:	4419      	add	r1, r3
   d894a:	4632      	mov	r2, r6
   d894c:	4638      	mov	r0, r7
   d894e:	f001 fd01 	bl	da354 <memcpy>
        _offset += read;
   d8952:	8ee3      	ldrh	r3, [r4, #54]	; 0x36
   d8954:	4433      	add	r3, r6
   d8956:	86e3      	strh	r3, [r4, #54]	; 0x36
}
   d8958:	4630      	mov	r0, r6
   d895a:	bdd0      	pop	{r4, r6, r7, pc}
    int read = -1;
   d895c:	f04f 36ff 	mov.w	r6, #4294967295	; 0xffffffff
    return read;
   d8960:	e7fa      	b.n	d8958 <_ZN3UDP4readEPhj+0x32>
	...

000d8964 <_ZN3UDP8remoteIPEv>:
    virtual IPAddress remoteIP() { return _remoteIP; };
   d8964:	b570      	push	{r4, r5, r6, lr}
   d8966:	4604      	mov	r4, r0
   d8968:	4b05      	ldr	r3, [pc, #20]	; (d8980 <_ZN3UDP8remoteIPEv+0x1c>)
   d896a:	f844 3b04 	str.w	r3, [r4], #4
   d896e:	f101 0520 	add.w	r5, r1, #32
   d8972:	4606      	mov	r6, r0
   d8974:	cd0f      	ldmia	r5!, {r0, r1, r2, r3}
   d8976:	c40f      	stmia	r4!, {r0, r1, r2, r3}
   d8978:	682b      	ldr	r3, [r5, #0]
   d897a:	7023      	strb	r3, [r4, #0]
   d897c:	4630      	mov	r0, r6
   d897e:	bd70      	pop	{r4, r5, r6, pc}
   d8980:	000dcb60 	.word	0x000dcb60

000d8984 <_ZN3UDP10sendPacketEPKcj9IPAddresst>:
    virtual int sendPacket(const char* buffer, size_t buffer_size, IPAddress destination, uint16_t port) {
   d8984:	b5f0      	push	{r4, r5, r6, r7, lr}
   d8986:	4696      	mov	lr, r2
        return sendPacket((uint8_t*)buffer, buffer_size, destination, port);
   d8988:	6802      	ldr	r2, [r0, #0]
    virtual int sendPacket(const char* buffer, size_t buffer_size, IPAddress destination, uint16_t port) {
   d898a:	b089      	sub	sp, #36	; 0x24
        return sendPacket((uint8_t*)buffer, buffer_size, destination, port);
   d898c:	6a97      	ldr	r7, [r2, #40]	; 0x28
   d898e:	4a0a      	ldr	r2, [pc, #40]	; (d89b8 <_ZN3UDP10sendPacketEPKcj9IPAddresst+0x34>)
   d8990:	9202      	str	r2, [sp, #8]
   d8992:	1d1c      	adds	r4, r3, #4
    virtual int sendPacket(const char* buffer, size_t buffer_size, IPAddress destination, uint16_t port) {
   d8994:	468c      	mov	ip, r1
   d8996:	4606      	mov	r6, r0
   d8998:	cc0f      	ldmia	r4!, {r0, r1, r2, r3}
   d899a:	ad03      	add	r5, sp, #12
   d899c:	c50f      	stmia	r5!, {r0, r1, r2, r3}
   d899e:	6823      	ldr	r3, [r4, #0]
   d89a0:	702b      	strb	r3, [r5, #0]
        return sendPacket((uint8_t*)buffer, buffer_size, destination, port);
   d89a2:	f8bd 3038 	ldrh.w	r3, [sp, #56]	; 0x38
   d89a6:	9300      	str	r3, [sp, #0]
   d89a8:	4672      	mov	r2, lr
   d89aa:	ab02      	add	r3, sp, #8
   d89ac:	4661      	mov	r1, ip
   d89ae:	4630      	mov	r0, r6
   d89b0:	47b8      	blx	r7
    }
   d89b2:	b009      	add	sp, #36	; 0x24
   d89b4:	bdf0      	pop	{r4, r5, r6, r7, pc}
   d89b6:	bf00      	nop
   d89b8:	000dcb60 	.word	0x000dcb60

000d89bc <_ZN3UDP9endPacketEv>:
int UDP::endPacket() {
   d89bc:	b5f0      	push	{r4, r5, r6, r7, lr}
    int result = sendPacket(_buffer, _offset, _remoteIP, _remotePort);
   d89be:	6803      	ldr	r3, [r0, #0]
int UDP::endPacket() {
   d89c0:	b089      	sub	sp, #36	; 0x24
    int result = sendPacket(_buffer, _offset, _remoteIP, _remotePort);
   d89c2:	6a9f      	ldr	r7, [r3, #40]	; 0x28
   d89c4:	4b0c      	ldr	r3, [pc, #48]	; (d89f8 <_ZN3UDP9endPacketEv+0x3c>)
   d89c6:	9302      	str	r3, [sp, #8]
   d89c8:	f100 0620 	add.w	r6, r0, #32
int UDP::endPacket() {
   d89cc:	4604      	mov	r4, r0
   d89ce:	ce0f      	ldmia	r6!, {r0, r1, r2, r3}
   d89d0:	ad03      	add	r5, sp, #12
   d89d2:	c50f      	stmia	r5!, {r0, r1, r2, r3}
   d89d4:	6833      	ldr	r3, [r6, #0]
   d89d6:	702b      	strb	r3, [r5, #0]
    int result = sendPacket(_buffer, _offset, _remoteIP, _remotePort);
   d89d8:	8ea3      	ldrh	r3, [r4, #52]	; 0x34
   d89da:	8ee2      	ldrh	r2, [r4, #54]	; 0x36
   d89dc:	6be1      	ldr	r1, [r4, #60]	; 0x3c
   d89de:	9300      	str	r3, [sp, #0]
   d89e0:	4620      	mov	r0, r4
   d89e2:	ab02      	add	r3, sp, #8
   d89e4:	47b8      	blx	r7
    flush(); // wait for send to complete
   d89e6:	6823      	ldr	r3, [r4, #0]
    int result = sendPacket(_buffer, _offset, _remoteIP, _remotePort);
   d89e8:	4605      	mov	r5, r0
    flush(); // wait for send to complete
   d89ea:	69db      	ldr	r3, [r3, #28]
   d89ec:	4620      	mov	r0, r4
   d89ee:	4798      	blx	r3
}
   d89f0:	4628      	mov	r0, r5
   d89f2:	b009      	add	sp, #36	; 0x24
   d89f4:	bdf0      	pop	{r4, r5, r6, r7, pc}
   d89f6:	bf00      	nop
   d89f8:	000dcb60 	.word	0x000dcb60

000d89fc <_ZN5spark6detail23ipAddressPortToSockaddrERK9IPAddresstP8sockaddr>:
        }
    }
#endif // HAL_IPv6
}

inline void ipAddressPortToSockaddr(const IPAddress& addr, uint16_t port, struct sockaddr* saddr) {
   d89fc:	b538      	push	{r3, r4, r5, lr}
   d89fe:	4605      	mov	r5, r0
   d8a00:	4614      	mov	r4, r2
    if (addr.version() == 6) {
   d8a02:	7d2b      	ldrb	r3, [r5, #20]
   d8a04:	2b06      	cmp	r3, #6
inline void ipAddressPortToSockaddr(const IPAddress& addr, uint16_t port, struct sockaddr* saddr) {
   d8a06:	4608      	mov	r0, r1
    if (addr.version() == 6) {
   d8a08:	d110      	bne.n	d8a2c <_ZN5spark6detail23ipAddressPortToSockaddrERK9IPAddresstP8sockaddr+0x30>
        struct sockaddr_in6* in6addr = (struct sockaddr_in6*)saddr;
        in6addr->sin6_len = sizeof(sockaddr_in6);
   d8a0a:	f640 231c 	movw	r3, #2588	; 0xa1c
   d8a0e:	8013      	strh	r3, [r2, #0]
        in6addr->sin6_family = AF_INET6;
        in6addr->sin6_port = htons(port);
   d8a10:	f7fe f8d8 	bl	d6bc4 <inet_htons>
        const auto& a = addr.raw();
        memcpy(in6addr->sin6_addr.s6_addr, a.ipv6, sizeof(a.ipv6));
   d8a14:	3408      	adds	r4, #8
   d8a16:	1d2b      	adds	r3, r5, #4
        in6addr->sin6_port = htons(port);
   d8a18:	f824 0c06 	strh.w	r0, [r4, #-6]
        memcpy(in6addr->sin6_addr.s6_addr, a.ipv6, sizeof(a.ipv6));
   d8a1c:	3514      	adds	r5, #20
   d8a1e:	f853 2b04 	ldr.w	r2, [r3], #4
   d8a22:	f844 2b04 	str.w	r2, [r4], #4
   d8a26:	42ab      	cmp	r3, r5
   d8a28:	d1f9      	bne.n	d8a1e <_ZN5spark6detail23ipAddressPortToSockaddrERK9IPAddresstP8sockaddr+0x22>
        const auto& a = addr.raw();
        // NOTE: HAL_IPAddress.ipv4 is host-order :|
        inaddr->sin_addr.s_addr = htonl(a.ipv4);
    }
#endif // HAL_IPv6
}
   d8a2a:	bd38      	pop	{r3, r4, r5, pc}
    else if (addr.version() == 4) {
   d8a2c:	2b04      	cmp	r3, #4
   d8a2e:	d1fc      	bne.n	d8a2a <_ZN5spark6detail23ipAddressPortToSockaddrERK9IPAddresstP8sockaddr+0x2e>
        inaddr->sin_len = sizeof(sockaddr_in);
   d8a30:	f44f 7304 	mov.w	r3, #528	; 0x210
   d8a34:	8013      	strh	r3, [r2, #0]
        inaddr->sin_port = htons(port);
   d8a36:	f7fe f8c5 	bl	d6bc4 <inet_htons>
   d8a3a:	8060      	strh	r0, [r4, #2]
        inaddr->sin_addr.s_addr = htonl(a.ipv4);
   d8a3c:	6868      	ldr	r0, [r5, #4]
   d8a3e:	f7fe f8b1 	bl	d6ba4 <inet_htonl>
   d8a42:	6060      	str	r0, [r4, #4]
}
   d8a44:	e7f1      	b.n	d8a2a <_ZN5spark6detail23ipAddressPortToSockaddrERK9IPAddresstP8sockaddr+0x2e>

000d8a46 <_ZN3UDP10sendPacketEPKhj9IPAddresst>:
int UDP::sendPacket(const uint8_t* buffer, size_t buffer_size, IPAddress remoteIP, uint16_t port) {
   d8a46:	e92d 43f0 	stmdb	sp!, {r4, r5, r6, r7, r8, r9, lr}
   d8a4a:	b08b      	sub	sp, #44	; 0x2c
	sockaddr_storage s = {};
   d8a4c:	af03      	add	r7, sp, #12
   d8a4e:	f04f 091c 	mov.w	r9, #28
int UDP::sendPacket(const uint8_t* buffer, size_t buffer_size, IPAddress remoteIP, uint16_t port) {
   d8a52:	4698      	mov	r8, r3
   d8a54:	4604      	mov	r4, r0
   d8a56:	460d      	mov	r5, r1
   d8a58:	4616      	mov	r6, r2
	sockaddr_storage s = {};
   d8a5a:	2100      	movs	r1, #0
   d8a5c:	464a      	mov	r2, r9
   d8a5e:	4638      	mov	r0, r7
   d8a60:	f001 fca0 	bl	da3a4 <memset>
    detail::ipAddressPortToSockaddr(remoteIP, port, (struct sockaddr*)&s);
   d8a64:	f8bd 1048 	ldrh.w	r1, [sp, #72]	; 0x48
   d8a68:	463a      	mov	r2, r7
   d8a6a:	4640      	mov	r0, r8
   d8a6c:	f7ff ffc6 	bl	d89fc <_ZN5spark6detail23ipAddressPortToSockaddrERK9IPAddresstP8sockaddr>
    if (s.ss_family == AF_UNSPEC) {
   d8a70:	f89d 300d 	ldrb.w	r3, [sp, #13]
   d8a74:	b153      	cbz	r3, d8a8c <_ZN3UDP10sendPacketEPKhj9IPAddresst+0x46>
    return sock_sendto(_sock, buffer, buffer_size, 0, (const struct sockaddr*)&s, sizeof(s));
   d8a76:	e9cd 7900 	strd	r7, r9, [sp]
   d8a7a:	6960      	ldr	r0, [r4, #20]
   d8a7c:	2300      	movs	r3, #0
   d8a7e:	4632      	mov	r2, r6
   d8a80:	4629      	mov	r1, r5
   d8a82:	f7fe f8ef 	bl	d6c64 <sock_sendto>
}
   d8a86:	b00b      	add	sp, #44	; 0x2c
   d8a88:	e8bd 83f0 	ldmia.w	sp!, {r4, r5, r6, r7, r8, r9, pc}
        return -1;
   d8a8c:	f04f 30ff 	mov.w	r0, #4294967295	; 0xffffffff
   d8a90:	e7f9      	b.n	d8a86 <_ZN3UDP10sendPacketEPKhj9IPAddresst+0x40>
	...

000d8a94 <_ZN3UDPC1Ev>:
UDP::UDP()
   d8a94:	b538      	push	{r3, r4, r5, lr}
   d8a96:	2500      	movs	r5, #0
   d8a98:	f44f 737a 	mov.w	r3, #1000	; 0x3e8
   d8a9c:	e9c0 5301 	strd	r5, r3, [r0, #4]
          _buffer_allocated(false) {
   d8aa0:	4b0b      	ldr	r3, [pc, #44]	; (d8ad0 <_ZN3UDPC1Ev+0x3c>)
   d8aa2:	f103 0208 	add.w	r2, r3, #8
   d8aa6:	336c      	adds	r3, #108	; 0x6c
   d8aa8:	6103      	str	r3, [r0, #16]
   d8aaa:	f04f 33ff 	mov.w	r3, #4294967295	; 0xffffffff
UDP::UDP()
   d8aae:	4604      	mov	r4, r0
          _buffer_allocated(false) {
   d8ab0:	6002      	str	r2, [r0, #0]
   d8ab2:	6143      	str	r3, [r0, #20]
   d8ab4:	301c      	adds	r0, #28
   d8ab6:	f7fe fe49 	bl	d774c <_ZN9IPAddressC1Ev>
   d8aba:	f44f 7300 	mov.w	r3, #512	; 0x200
   d8abe:	e9c4 3510 	strd	r3, r5, [r4, #64]	; 0x40
   d8ac2:	86e5      	strh	r5, [r4, #54]	; 0x36
   d8ac4:	8725      	strh	r5, [r4, #56]	; 0x38
   d8ac6:	63e5      	str	r5, [r4, #60]	; 0x3c
   d8ac8:	f884 5048 	strb.w	r5, [r4, #72]	; 0x48
}
   d8acc:	4620      	mov	r0, r4
   d8ace:	bd38      	pop	{r3, r4, r5, pc}
   d8ad0:	000dcc64 	.word	0x000dcc64

000d8ad4 <_ZN3UDP13releaseBufferEv>:
void UDP::releaseBuffer() {
   d8ad4:	b510      	push	{r4, lr}
    if (_buffer_allocated && _buffer) {
   d8ad6:	f890 3048 	ldrb.w	r3, [r0, #72]	; 0x48
void UDP::releaseBuffer() {
   d8ada:	4604      	mov	r4, r0
    if (_buffer_allocated && _buffer) {
   d8adc:	b123      	cbz	r3, d8ae8 <_ZN3UDP13releaseBufferEv+0x14>
   d8ade:	6bc0      	ldr	r0, [r0, #60]	; 0x3c
   d8ae0:	b110      	cbz	r0, d8ae8 <_ZN3UDP13releaseBufferEv+0x14>
        delete _buffer;
   d8ae2:	2101      	movs	r1, #1
   d8ae4:	f000 fbe7 	bl	d92b6 <_ZdlPvj>
    _buffer = NULL;
   d8ae8:	2300      	movs	r3, #0
   d8aea:	63e3      	str	r3, [r4, #60]	; 0x3c
    _buffer_allocated = false;
   d8aec:	f884 3048 	strb.w	r3, [r4, #72]	; 0x48
    _buffer_size = 0;
   d8af0:	6423      	str	r3, [r4, #64]	; 0x40
    _offset = 0;
   d8af2:	86e3      	strh	r3, [r4, #54]	; 0x36
    _total = 0;
   d8af4:	8723      	strh	r3, [r4, #56]	; 0x38
}
   d8af6:	bd10      	pop	{r4, pc}

000d8af8 <_ZN3UDP9setBufferEjPh>:
bool UDP::setBuffer(size_t buf_size, uint8_t* buffer) {
   d8af8:	b570      	push	{r4, r5, r6, lr}
   d8afa:	4604      	mov	r4, r0
   d8afc:	4616      	mov	r6, r2
   d8afe:	460d      	mov	r5, r1
    releaseBuffer();
   d8b00:	f7ff ffe8 	bl	d8ad4 <_ZN3UDP13releaseBufferEv>
    _buffer_size = 0;
   d8b04:	2300      	movs	r3, #0
    _buffer = buffer;
   d8b06:	63e6      	str	r6, [r4, #60]	; 0x3c
    _buffer_size = 0;
   d8b08:	6423      	str	r3, [r4, #64]	; 0x40
    if (!_buffer && buf_size) {         // requested allocation
   d8b0a:	b12e      	cbz	r6, d8b18 <_ZN3UDP9setBufferEjPh+0x20>
        _buffer_size = buf_size;
   d8b0c:	6425      	str	r5, [r4, #64]	; 0x40
    return _buffer_size;
   d8b0e:	6c20      	ldr	r0, [r4, #64]	; 0x40
}
   d8b10:	3800      	subs	r0, #0
   d8b12:	bf18      	it	ne
   d8b14:	2001      	movne	r0, #1
   d8b16:	bd70      	pop	{r4, r5, r6, pc}
    if (!_buffer && buf_size) {         // requested allocation
   d8b18:	2d00      	cmp	r5, #0
   d8b1a:	d0f8      	beq.n	d8b0e <_ZN3UDP9setBufferEjPh+0x16>
        _buffer = new uint8_t[buf_size];
   d8b1c:	4628      	mov	r0, r5
   d8b1e:	f7fb fabc 	bl	d409a <_Znaj>
        _buffer_allocated = true;
   d8b22:	2301      	movs	r3, #1
        _buffer = new uint8_t[buf_size];
   d8b24:	63e0      	str	r0, [r4, #60]	; 0x3c
        _buffer_allocated = true;
   d8b26:	f884 3048 	strb.w	r3, [r4, #72]	; 0x48
    if (_buffer) {
   d8b2a:	2800      	cmp	r0, #0
   d8b2c:	d0ef      	beq.n	d8b0e <_ZN3UDP9setBufferEjPh+0x16>
   d8b2e:	e7ed      	b.n	d8b0c <_ZN3UDP9setBufferEjPh+0x14>

000d8b30 <_ZN3UDP11beginPacketE9IPAddresst>:
int UDP::beginPacket(IPAddress ip, uint16_t port) {
   d8b30:	b5f8      	push	{r3, r4, r5, r6, r7, lr}
   d8b32:	4617      	mov	r7, r2
    if (!_buffer && _buffer_size) {
   d8b34:	6bc2      	ldr	r2, [r0, #60]	; 0x3c
int UDP::beginPacket(IPAddress ip, uint16_t port) {
   d8b36:	4605      	mov	r5, r0
   d8b38:	460c      	mov	r4, r1
    if (!_buffer && _buffer_size) {
   d8b3a:	b91a      	cbnz	r2, d8b44 <_ZN3UDP11beginPacketE9IPAddresst+0x14>
   d8b3c:	6c01      	ldr	r1, [r0, #64]	; 0x40
   d8b3e:	b109      	cbz	r1, d8b44 <_ZN3UDP11beginPacketE9IPAddresst+0x14>
        setBuffer(_buffer_size);
   d8b40:	f7ff ffda 	bl	d8af8 <_ZN3UDP9setBufferEjPh>
   d8b44:	3404      	adds	r4, #4
   d8b46:	cc0f      	ldmia	r4!, {r0, r1, r2, r3}
   d8b48:	f105 0620 	add.w	r6, r5, #32
   d8b4c:	c60f      	stmia	r6!, {r0, r1, r2, r3}
   d8b4e:	6823      	ldr	r3, [r4, #0]
   d8b50:	7033      	strb	r3, [r6, #0]
    _offset = 0;
   d8b52:	2300      	movs	r3, #0
}
   d8b54:	6c28      	ldr	r0, [r5, #64]	; 0x40
    _remotePort = port;
   d8b56:	86af      	strh	r7, [r5, #52]	; 0x34
    _offset = 0;
   d8b58:	86eb      	strh	r3, [r5, #54]	; 0x36
    _total = 0;
   d8b5a:	872b      	strh	r3, [r5, #56]	; 0x38
}
   d8b5c:	bdf8      	pop	{r3, r4, r5, r6, r7, pc}

000d8b5e <_ZN3UDP11parsePacketEm>:
int UDP::parsePacket(system_tick_t timeout) {
   d8b5e:	b537      	push	{r0, r1, r2, r4, r5, lr}
    if (!_buffer && _buffer_size) {
   d8b60:	6bc2      	ldr	r2, [r0, #60]	; 0x3c
int UDP::parsePacket(system_tick_t timeout) {
   d8b62:	4604      	mov	r4, r0
   d8b64:	460b      	mov	r3, r1
    if (!_buffer && _buffer_size) {
   d8b66:	b92a      	cbnz	r2, d8b74 <_ZN3UDP11parsePacketEm+0x16>
   d8b68:	6c01      	ldr	r1, [r0, #64]	; 0x40
   d8b6a:	b119      	cbz	r1, d8b74 <_ZN3UDP11parsePacketEm+0x16>
   d8b6c:	9301      	str	r3, [sp, #4]
        setBuffer(_buffer_size);
   d8b6e:	f7ff ffc3 	bl	d8af8 <_ZN3UDP9setBufferEjPh>
   d8b72:	9b01      	ldr	r3, [sp, #4]
    if (_buffer && _buffer_size) {
   d8b74:	6be1      	ldr	r1, [r4, #60]	; 0x3c
    _offset = 0;
   d8b76:	2200      	movs	r2, #0
   d8b78:	86e2      	strh	r2, [r4, #54]	; 0x36
    _total = 0;
   d8b7a:	8722      	strh	r2, [r4, #56]	; 0x38
    if (_buffer && _buffer_size) {
   d8b7c:	b141      	cbz	r1, d8b90 <_ZN3UDP11parsePacketEm+0x32>
   d8b7e:	6c22      	ldr	r2, [r4, #64]	; 0x40
   d8b80:	b132      	cbz	r2, d8b90 <_ZN3UDP11parsePacketEm+0x32>
        int result = receivePacket(_buffer, _buffer_size, timeout);
   d8b82:	6820      	ldr	r0, [r4, #0]
   d8b84:	6b05      	ldr	r5, [r0, #48]	; 0x30
   d8b86:	4620      	mov	r0, r4
   d8b88:	47a8      	blx	r5
        if (result > 0) {
   d8b8a:	2800      	cmp	r0, #0
            _total = result;
   d8b8c:	bfc8      	it	gt
   d8b8e:	8720      	strhgt	r0, [r4, #56]	; 0x38
    return available();
   d8b90:	6823      	ldr	r3, [r4, #0]
   d8b92:	691b      	ldr	r3, [r3, #16]
   d8b94:	4620      	mov	r0, r4
}
   d8b96:	b003      	add	sp, #12
   d8b98:	e8bd 4030 	ldmia.w	sp!, {r4, r5, lr}
    return available();
   d8b9c:	4718      	bx	r3

000d8b9e <_ZN5spark6detail23sockaddrToIpAddressPortEPK8sockaddrR9IPAddressPt>:
inline void sockaddrToIpAddressPort(const struct sockaddr* saddr, IPAddress& addr, uint16_t* port) {
   d8b9e:	b5f0      	push	{r4, r5, r6, r7, lr}
    if (saddr->sa_family == AF_INET) {
   d8ba0:	7843      	ldrb	r3, [r0, #1]
   d8ba2:	2b02      	cmp	r3, #2
inline void sockaddrToIpAddressPort(const struct sockaddr* saddr, IPAddress& addr, uint16_t* port) {
   d8ba4:	b08d      	sub	sp, #52	; 0x34
   d8ba6:	4605      	mov	r5, r0
   d8ba8:	460c      	mov	r4, r1
   d8baa:	4617      	mov	r7, r2
    if (saddr->sa_family == AF_INET) {
   d8bac:	d104      	bne.n	d8bb8 <_ZN5spark6detail23sockaddrToIpAddressPortEPK8sockaddrR9IPAddressPt+0x1a>
        addr = (const uint8_t*)(&inaddr->sin_addr.s_addr);
   d8bae:	1d01      	adds	r1, r0, #4
            addr = (const uint8_t*)(&ptr[3]);
   d8bb0:	4620      	mov	r0, r4
   d8bb2:	f7ff fd67 	bl	d8684 <_ZN9IPAddressaSIPKhEERS_T_>
   d8bb6:	e022      	b.n	d8bfe <_ZN5spark6detail23sockaddrToIpAddressPortEPK8sockaddrR9IPAddressPt+0x60>
    else if (saddr->sa_family == AF_INET6) {
   d8bb8:	2b0a      	cmp	r3, #10
   d8bba:	d125      	bne.n	d8c08 <_ZN5spark6detail23sockaddrToIpAddressPortEPK8sockaddrR9IPAddressPt+0x6a>
        HAL_IPAddress a = {};
   d8bbc:	2211      	movs	r2, #17
   d8bbe:	2100      	movs	r1, #0
   d8bc0:	a801      	add	r0, sp, #4
   d8bc2:	f001 fbef 	bl	da3a4 <memset>
        if (!IN6_IS_ADDR_V4MAPPED(&in6addr->sin6_addr)) {
   d8bc6:	68ab      	ldr	r3, [r5, #8]
   d8bc8:	b303      	cbz	r3, d8c0c <_ZN5spark6detail23sockaddrToIpAddressPortEPK8sockaddrR9IPAddressPt+0x6e>
            memcpy(a.ipv6, in6addr->sin6_addr.s6_addr, sizeof(a.ipv6));
   d8bca:	f105 0308 	add.w	r3, r5, #8
   d8bce:	ae01      	add	r6, sp, #4
   d8bd0:	f105 0c18 	add.w	ip, r5, #24
   d8bd4:	6818      	ldr	r0, [r3, #0]
   d8bd6:	6859      	ldr	r1, [r3, #4]
   d8bd8:	4632      	mov	r2, r6
   d8bda:	c203      	stmia	r2!, {r0, r1}
   d8bdc:	3308      	adds	r3, #8
   d8bde:	4563      	cmp	r3, ip
   d8be0:	4616      	mov	r6, r2
   d8be2:	d1f7      	bne.n	d8bd4 <_ZN5spark6detail23sockaddrToIpAddressPortEPK8sockaddrR9IPAddressPt+0x36>
            a.v = 6;
   d8be4:	2306      	movs	r3, #6
            addr = IPAddress(a);
   d8be6:	a901      	add	r1, sp, #4
   d8be8:	a806      	add	r0, sp, #24
   d8bea:	ae07      	add	r6, sp, #28
            a.v = 6;
   d8bec:	f88d 3014 	strb.w	r3, [sp, #20]
            addr = IPAddress(a);
   d8bf0:	f7fe fdba 	bl	d7768 <_ZN9IPAddressC1ERK16_HAL_IPAddress_t>
   d8bf4:	ce0f      	ldmia	r6!, {r0, r1, r2, r3}
   d8bf6:	3404      	adds	r4, #4
   d8bf8:	c40f      	stmia	r4!, {r0, r1, r2, r3}
   d8bfa:	6833      	ldr	r3, [r6, #0]
   d8bfc:	7023      	strb	r3, [r4, #0]
        if (port) {
   d8bfe:	b11f      	cbz	r7, d8c08 <_ZN5spark6detail23sockaddrToIpAddressPortEPK8sockaddrR9IPAddressPt+0x6a>
            *port = ntohs(in6addr->sin6_port);
   d8c00:	8868      	ldrh	r0, [r5, #2]
   d8c02:	f7fd ffd7 	bl	d6bb4 <inet_ntohs>
   d8c06:	8038      	strh	r0, [r7, #0]
}
   d8c08:	b00d      	add	sp, #52	; 0x34
   d8c0a:	bdf0      	pop	{r4, r5, r6, r7, pc}
        if (!IN6_IS_ADDR_V4MAPPED(&in6addr->sin6_addr)) {
   d8c0c:	68eb      	ldr	r3, [r5, #12]
   d8c0e:	2b00      	cmp	r3, #0
   d8c10:	d1db      	bne.n	d8bca <_ZN5spark6detail23sockaddrToIpAddressPortEPK8sockaddrR9IPAddressPt+0x2c>
   d8c12:	f64f 70ff 	movw	r0, #65535	; 0xffff
   d8c16:	692e      	ldr	r6, [r5, #16]
   d8c18:	f7fd ffc4 	bl	d6ba4 <inet_htonl>
   d8c1c:	4286      	cmp	r6, r0
   d8c1e:	d1d4      	bne.n	d8bca <_ZN5spark6detail23sockaddrToIpAddressPortEPK8sockaddrR9IPAddressPt+0x2c>
            addr = (const uint8_t*)(&ptr[3]);
   d8c20:	f105 0114 	add.w	r1, r5, #20
   d8c24:	e7c4      	b.n	d8bb0 <_ZN5spark6detail23sockaddrToIpAddressPortEPK8sockaddrR9IPAddressPt+0x12>
	...

000d8c28 <_ZN3UDP11beginPacketEPKct>:
int UDP::beginPacket(const char *host, uint16_t port) {
   d8c28:	e92d 41f0 	stmdb	sp!, {r4, r5, r6, r7, r8, lr}
   d8c2c:	4617      	mov	r7, r2
   d8c2e:	b08e      	sub	sp, #56	; 0x38
    struct addrinfo* ais = nullptr;
   d8c30:	2200      	movs	r2, #0
int UDP::beginPacket(const char *host, uint16_t port) {
   d8c32:	4606      	mov	r6, r0
    CHECK(netdb_getaddrinfo(host, nullptr, nullptr, &ais));
   d8c34:	ab01      	add	r3, sp, #4
int UDP::beginPacket(const char *host, uint16_t port) {
   d8c36:	4608      	mov	r0, r1
    CHECK(netdb_getaddrinfo(host, nullptr, nullptr, &ais));
   d8c38:	4611      	mov	r1, r2
    struct addrinfo* ais = nullptr;
   d8c3a:	9201      	str	r2, [sp, #4]
    CHECK(netdb_getaddrinfo(host, nullptr, nullptr, &ais));
   d8c3c:	f7fd ffd2 	bl	d6be4 <netdb_getaddrinfo>
   d8c40:	1e04      	subs	r4, r0, #0
   d8c42:	db20      	blt.n	d8c86 <_ZN3UDP11beginPacketEPKct+0x5e>
    if (ais && ais->ai_addr) {
   d8c44:	9b01      	ldr	r3, [sp, #4]
   d8c46:	b32b      	cbz	r3, d8c94 <_ZN3UDP11beginPacketEPKct+0x6c>
   d8c48:	695b      	ldr	r3, [r3, #20]
   d8c4a:	b31b      	cbz	r3, d8c94 <_ZN3UDP11beginPacketEPKct+0x6c>
        IPAddress addr;
   d8c4c:	a802      	add	r0, sp, #8
   d8c4e:	f7fe fd7d 	bl	d774c <_ZN9IPAddressC1Ev>
        detail::sockaddrToIpAddressPort(ais->ai_addr, addr, nullptr);
   d8c52:	9b01      	ldr	r3, [sp, #4]
   d8c54:	2200      	movs	r2, #0
   d8c56:	6958      	ldr	r0, [r3, #20]
   d8c58:	a902      	add	r1, sp, #8
   d8c5a:	f7ff ffa0 	bl	d8b9e <_ZN5spark6detail23sockaddrToIpAddressPortEPK8sockaddrR9IPAddressPt>
        return static_cast<const IPAddress*>(this)->operator bool();
   d8c5e:	a802      	add	r0, sp, #8
   d8c60:	f7fe fd94 	bl	d778c <_ZNK9IPAddresscvbEv>
        if (addr) {
   d8c64:	b1b0      	cbz	r0, d8c94 <_ZN3UDP11beginPacketEPKct+0x6c>
            return beginPacket(addr, port);
   d8c66:	6833      	ldr	r3, [r6, #0]
class IPAddress : public Printable {
   d8c68:	ad03      	add	r5, sp, #12
   d8c6a:	f8d3 8038 	ldr.w	r8, [r3, #56]	; 0x38
   d8c6e:	4b0b      	ldr	r3, [pc, #44]	; (d8c9c <_ZN3UDP11beginPacketEPKct+0x74>)
   d8c70:	9308      	str	r3, [sp, #32]
   d8c72:	cd0f      	ldmia	r5!, {r0, r1, r2, r3}
   d8c74:	ac09      	add	r4, sp, #36	; 0x24
   d8c76:	c40f      	stmia	r4!, {r0, r1, r2, r3}
   d8c78:	682b      	ldr	r3, [r5, #0]
   d8c7a:	7023      	strb	r3, [r4, #0]
   d8c7c:	463a      	mov	r2, r7
   d8c7e:	a908      	add	r1, sp, #32
   d8c80:	4630      	mov	r0, r6
   d8c82:	47c0      	blx	r8
   d8c84:	4604      	mov	r4, r0
    SCOPE_GUARD({
   d8c86:	9801      	ldr	r0, [sp, #4]
   d8c88:	f7fd ffa4 	bl	d6bd4 <netdb_freeaddrinfo>
}
   d8c8c:	4620      	mov	r0, r4
   d8c8e:	b00e      	add	sp, #56	; 0x38
   d8c90:	e8bd 81f0 	ldmia.w	sp!, {r4, r5, r6, r7, r8, pc}
    return -1;
   d8c94:	f04f 34ff 	mov.w	r4, #4294967295	; 0xffffffff
   d8c98:	e7f5      	b.n	d8c86 <_ZN3UDP11beginPacketEPKct+0x5e>
   d8c9a:	bf00      	nop
   d8c9c:	000dcb60 	.word	0x000dcb60

000d8ca0 <_ZN3UDP13receivePacketEPhjm>:
int UDP::receivePacket(uint8_t* buffer, size_t size, system_tick_t timeout) {
   d8ca0:	e92d 47f0 	stmdb	sp!, {r4, r5, r6, r7, r8, r9, sl, lr}
    if (isOpen(_sock) && buffer) {
   d8ca4:	f8d0 9014 	ldr.w	r9, [r0, #20]
   d8ca8:	f1b9 0f00 	cmp.w	r9, #0
int UDP::receivePacket(uint8_t* buffer, size_t size, system_tick_t timeout) {
   d8cac:	b090      	sub	sp, #64	; 0x40
   d8cae:	4605      	mov	r5, r0
   d8cb0:	460e      	mov	r6, r1
   d8cb2:	4690      	mov	r8, r2
   d8cb4:	461c      	mov	r4, r3
    if (isOpen(_sock) && buffer) {
   d8cb6:	db3c      	blt.n	d8d32 <_ZN3UDP13receivePacketEPhjm+0x92>
   d8cb8:	2900      	cmp	r1, #0
   d8cba:	d03a      	beq.n	d8d32 <_ZN3UDP13receivePacketEPhjm+0x92>
        sockaddr_storage saddr = {};
   d8cbc:	f04f 0a1c 	mov.w	sl, #28
   d8cc0:	af09      	add	r7, sp, #36	; 0x24
   d8cc2:	4652      	mov	r2, sl
   d8cc4:	2100      	movs	r1, #0
   d8cc6:	4638      	mov	r0, r7
   d8cc8:	f001 fb6c 	bl	da3a4 <memset>
        socklen_t slen = sizeof(saddr);
   d8ccc:	f8cd a00c 	str.w	sl, [sp, #12]
        if (timeout == 0) {
   d8cd0:	b1dc      	cbz	r4, d8d0a <_ZN3UDP13receivePacketEPhjm+0x6a>
            struct timeval tv = {};
   d8cd2:	2200      	movs	r2, #0
            tv.tv_sec = timeout / 1000;
   d8cd4:	f44f 707a 	mov.w	r0, #1000	; 0x3e8
   d8cd8:	fbb4 f3f0 	udiv	r3, r4, r0
   d8cdc:	e9cd 3204 	strd	r3, r2, [sp, #16]
            tv.tv_usec = (timeout % 1000) * 1000;
   d8ce0:	fb00 4313 	mls	r3, r0, r3, r4
   d8ce4:	4358      	muls	r0, r3
            ret = sock_setsockopt(_sock, SOL_SOCKET, SO_RCVTIMEO, &tv, sizeof(tv));
   d8ce6:	2310      	movs	r3, #16
            struct timeval tv = {};
   d8ce8:	9207      	str	r2, [sp, #28]
            tv.tv_usec = (timeout % 1000) * 1000;
   d8cea:	9006      	str	r0, [sp, #24]
            ret = sock_setsockopt(_sock, SOL_SOCKET, SO_RCVTIMEO, &tv, sizeof(tv));
   d8cec:	9300      	str	r3, [sp, #0]
   d8cee:	f241 0206 	movw	r2, #4102	; 0x1006
   d8cf2:	446b      	add	r3, sp
   d8cf4:	f640 71ff 	movw	r1, #4095	; 0xfff
   d8cf8:	4648      	mov	r0, r9
   d8cfa:	f7fd ff83 	bl	d6c04 <sock_setsockopt>
            if (ret) {
   d8cfe:	4604      	mov	r4, r0
   d8d00:	b120      	cbz	r0, d8d0c <_ZN3UDP13receivePacketEPhjm+0x6c>
}
   d8d02:	4620      	mov	r0, r4
   d8d04:	b010      	add	sp, #64	; 0x40
   d8d06:	e8bd 87f0 	ldmia.w	sp!, {r4, r5, r6, r7, r8, r9, sl, pc}
            flags = MSG_DONTWAIT;
   d8d0a:	2408      	movs	r4, #8
        ret = sock_recvfrom(_sock, buffer, size, flags, (struct sockaddr*)&saddr, &slen);
   d8d0c:	ab03      	add	r3, sp, #12
   d8d0e:	e9cd 7300 	strd	r7, r3, [sp]
   d8d12:	6968      	ldr	r0, [r5, #20]
   d8d14:	4623      	mov	r3, r4
   d8d16:	4642      	mov	r2, r8
   d8d18:	4631      	mov	r1, r6
   d8d1a:	f7fd ff93 	bl	d6c44 <sock_recvfrom>
        if (ret >= 0) {
   d8d1e:	1e04      	subs	r4, r0, #0
   d8d20:	dbef      	blt.n	d8d02 <_ZN3UDP13receivePacketEPhjm+0x62>
            detail::sockaddrToIpAddressPort((const struct sockaddr*)&saddr, _remoteIP, &_remotePort);
   d8d22:	f105 0234 	add.w	r2, r5, #52	; 0x34
   d8d26:	f105 011c 	add.w	r1, r5, #28
   d8d2a:	4638      	mov	r0, r7
   d8d2c:	f7ff ff37 	bl	d8b9e <_ZN5spark6detail23sockaddrToIpAddressPortEPK8sockaddrR9IPAddressPt>
            LOG_DEBUG(TRACE, "received %d bytes from %s#%d", ret, _remoteIP.toString().c_str(), _remotePort);
   d8d30:	e7e7      	b.n	d8d02 <_ZN3UDP13receivePacketEPhjm+0x62>
    int ret = -1;
   d8d32:	f04f 34ff 	mov.w	r4, #4294967295	; 0xffffffff
   d8d36:	e7e4      	b.n	d8d02 <_ZN3UDP13receivePacketEPhjm+0x62>

000d8d38 <_ZN11USARTSerialD1Ev>:
private:
  hal_usart_interface_t _serial;
  bool _blocking;
public:
  USARTSerial(hal_usart_interface_t serial, hal_usart_ring_buffer_t *rx_buffer, hal_usart_ring_buffer_t *tx_buffer);
  virtual ~USARTSerial() {};
   d8d38:	4770      	bx	lr

000d8d3a <_ZN11USARTSerial14blockOnOverrunEb>:
    hal_usart_half_duplex(_serial, Enable);
}

void USARTSerial::blockOnOverrun(bool block)
{
  _blocking = block;
   d8d3a:	7441      	strb	r1, [r0, #17]
}
   d8d3c:	4770      	bx	lr

000d8d3e <_ZN11USARTSerial17availableForWriteEv>:


int USARTSerial::availableForWrite(void)
{
   d8d3e:	b508      	push	{r3, lr}
  return std::max(0, (int)hal_usart_available_data_for_write(_serial));
   d8d40:	7c00      	ldrb	r0, [r0, #16]
   d8d42:	f7fd ffe7 	bl	d6d14 <hal_usart_available_data_for_write>
}
   d8d46:	ea20 70e0 	bic.w	r0, r0, r0, asr #31
   d8d4a:	bd08      	pop	{r3, pc}

000d8d4c <_ZN11USARTSerial9availableEv>:

int USARTSerial::available(void)
{
   d8d4c:	b508      	push	{r3, lr}
  return std::max(0, (int)hal_usart_available(_serial));
   d8d4e:	7c00      	ldrb	r0, [r0, #16]
   d8d50:	f7fd ffb8 	bl	d6cc4 <hal_usart_available>
}
   d8d54:	ea20 70e0 	bic.w	r0, r0, r0, asr #31
   d8d58:	bd08      	pop	{r3, pc}

000d8d5a <_ZN11USARTSerial4peekEv>:

int USARTSerial::peek(void)
{
   d8d5a:	b508      	push	{r3, lr}
  return std::max(-1, (int)hal_usart_peek(_serial));
   d8d5c:	7c00      	ldrb	r0, [r0, #16]
   d8d5e:	f7fd ffc1 	bl	d6ce4 <hal_usart_peek>
}
   d8d62:	ea40 70e0 	orr.w	r0, r0, r0, asr #31
   d8d66:	bd08      	pop	{r3, pc}

000d8d68 <_ZN11USARTSerial4readEv>:

int USARTSerial::read(void)
{
   d8d68:	b508      	push	{r3, lr}
  return std::max(-1, (int)hal_usart_read(_serial));
   d8d6a:	7c00      	ldrb	r0, [r0, #16]
   d8d6c:	f7fd ffb2 	bl	d6cd4 <hal_usart_read>
}
   d8d70:	ea40 70e0 	orr.w	r0, r0, r0, asr #31
   d8d74:	bd08      	pop	{r3, pc}

000d8d76 <_ZN11USARTSerial5flushEv>:

void USARTSerial::flush()
{
  hal_usart_flush(_serial);
   d8d76:	7c00      	ldrb	r0, [r0, #16]
   d8d78:	f7fd bfbc 	b.w	d6cf4 <hal_usart_flush>

000d8d7c <_ZN11USARTSerial5writeEh>:
}

size_t USARTSerial::write(uint8_t c)
{
   d8d7c:	b537      	push	{r0, r1, r2, r4, r5, lr}
  // attempt a write if blocking, or for non-blocking if there is room.
  if (_blocking || hal_usart_available_data_for_write(_serial) > 0) {
   d8d7e:	7c45      	ldrb	r5, [r0, #17]
{
   d8d80:	4604      	mov	r4, r0
  if (_blocking || hal_usart_available_data_for_write(_serial) > 0) {
   d8d82:	b12d      	cbz	r5, d8d90 <_ZN11USARTSerial5writeEh+0x14>
    // the HAL always blocks.
	  return hal_usart_write(_serial, c);
   d8d84:	7c20      	ldrb	r0, [r4, #16]
  }
  return 0;
}
   d8d86:	b003      	add	sp, #12
   d8d88:	e8bd 4030 	ldmia.w	sp!, {r4, r5, lr}
	  return hal_usart_write(_serial, c);
   d8d8c:	f7fd bf92 	b.w	d6cb4 <hal_usart_write>
  if (_blocking || hal_usart_available_data_for_write(_serial) > 0) {
   d8d90:	7c00      	ldrb	r0, [r0, #16]
   d8d92:	9101      	str	r1, [sp, #4]
   d8d94:	f7fd ffbe 	bl	d6d14 <hal_usart_available_data_for_write>
   d8d98:	2800      	cmp	r0, #0
   d8d9a:	9901      	ldr	r1, [sp, #4]
   d8d9c:	dcf2      	bgt.n	d8d84 <_ZN11USARTSerial5writeEh+0x8>
}
   d8d9e:	4628      	mov	r0, r5
   d8da0:	b003      	add	sp, #12
   d8da2:	bd30      	pop	{r4, r5, pc}

000d8da4 <_ZN11USARTSerialD0Ev>:
   d8da4:	b510      	push	{r4, lr}
   d8da6:	2114      	movs	r1, #20
   d8da8:	4604      	mov	r4, r0
   d8daa:	f000 fa84 	bl	d92b6 <_ZdlPvj>
   d8dae:	4620      	mov	r0, r4
   d8db0:	bd10      	pop	{r4, pc}
	...

000d8db4 <_ZN11USARTSerialC1E21hal_usart_interface_tP23hal_usart_ring_buffer_tS2_>:
USARTSerial::USARTSerial(hal_usart_interface_t serial, hal_usart_ring_buffer_t *rx_buffer, hal_usart_ring_buffer_t *tx_buffer)
   d8db4:	b510      	push	{r4, lr}
   d8db6:	f04f 0c00 	mov.w	ip, #0
   d8dba:	4604      	mov	r4, r0
   d8dbc:	4608      	mov	r0, r1
   d8dbe:	4611      	mov	r1, r2
   d8dc0:	f44f 727a 	mov.w	r2, #1000	; 0x3e8
   d8dc4:	e9c4 c201 	strd	ip, r2, [r4, #4]
   d8dc8:	4a04      	ldr	r2, [pc, #16]	; (d8ddc <_ZN11USARTSerialC1E21hal_usart_interface_tP23hal_usart_ring_buffer_tS2_+0x28>)
   d8dca:	6022      	str	r2, [r4, #0]
  _blocking = true;
   d8dcc:	2201      	movs	r2, #1
  _serial = serial;
   d8dce:	7420      	strb	r0, [r4, #16]
  _blocking = true;
   d8dd0:	7462      	strb	r2, [r4, #17]
  hal_usart_init(serial, rx_buffer, tx_buffer);
   d8dd2:	461a      	mov	r2, r3
   d8dd4:	f7fd ff66 	bl	d6ca4 <hal_usart_init>
}
   d8dd8:	4620      	mov	r0, r4
   d8dda:	bd10      	pop	{r4, pc}
   d8ddc:	000dccdc 	.word	0x000dccdc

000d8de0 <_Z22__fetch_global_Serial1v>:
static hal_usart_ring_buffer_t* serial1_rx_buffer = nullptr;
static hal_usart_ring_buffer_t* serial1_tx_buffer = nullptr;
#endif

USARTSerial& __fetch_global_Serial1()
{
   d8de0:	b513      	push	{r0, r1, r4, lr}
#if ((MODULE_FUNCTION == MOD_FUNC_USER_PART) || (MODULE_FUNCTION == MOD_FUNC_MONO_FIRMWARE))
	static USARTSerial serial1(HAL_USART_SERIAL1, &serial1_rx_buffer, &serial1_tx_buffer);
   d8de2:	4c0e      	ldr	r4, [pc, #56]	; (d8e1c <_Z22__fetch_global_Serial1v+0x3c>)
   d8de4:	7821      	ldrb	r1, [r4, #0]
   d8de6:	f3bf 8f5b 	dmb	ish
   d8dea:	f011 0101 	ands.w	r1, r1, #1
   d8dee:	d112      	bne.n	d8e16 <_Z22__fetch_global_Serial1v+0x36>
   d8df0:	4620      	mov	r0, r4
   d8df2:	9101      	str	r1, [sp, #4]
   d8df4:	f7fb f957 	bl	d40a6 <__cxa_guard_acquire>
   d8df8:	9901      	ldr	r1, [sp, #4]
   d8dfa:	b160      	cbz	r0, d8e16 <_Z22__fetch_global_Serial1v+0x36>
   d8dfc:	4a08      	ldr	r2, [pc, #32]	; (d8e20 <_Z22__fetch_global_Serial1v+0x40>)
   d8dfe:	4b09      	ldr	r3, [pc, #36]	; (d8e24 <_Z22__fetch_global_Serial1v+0x44>)
   d8e00:	4809      	ldr	r0, [pc, #36]	; (d8e28 <_Z22__fetch_global_Serial1v+0x48>)
   d8e02:	f7ff ffd7 	bl	d8db4 <_ZN11USARTSerialC1E21hal_usart_interface_tP23hal_usart_ring_buffer_tS2_>
   d8e06:	4620      	mov	r0, r4
   d8e08:	f7fb f952 	bl	d40b0 <__cxa_guard_release>
   d8e0c:	4a07      	ldr	r2, [pc, #28]	; (d8e2c <_Z22__fetch_global_Serial1v+0x4c>)
   d8e0e:	4908      	ldr	r1, [pc, #32]	; (d8e30 <_Z22__fetch_global_Serial1v+0x50>)
   d8e10:	4805      	ldr	r0, [pc, #20]	; (d8e28 <_Z22__fetch_global_Serial1v+0x48>)
   d8e12:	f000 fa4b 	bl	d92ac <__aeabi_atexit>
    serial1_tx_buffer = new hal_usart_ring_buffer_t();
  }
  static USARTSerial serial1(HAL_USART_SERIAL1, serial1_rx_buffer, serial1_tx_buffer);
#endif
	return serial1;
}
   d8e16:	4804      	ldr	r0, [pc, #16]	; (d8e28 <_Z22__fetch_global_Serial1v+0x48>)
   d8e18:	b002      	add	sp, #8
   d8e1a:	bd10      	pop	{r4, pc}
   d8e1c:	2003e680 	.word	0x2003e680
   d8e20:	2003e684 	.word	0x2003e684
   d8e24:	2003e708 	.word	0x2003e708
   d8e28:	2003e78c 	.word	0x2003e78c
   d8e2c:	2003e470 	.word	0x2003e470
   d8e30:	000d8d39 	.word	0x000d8d39

000d8e34 <_ZN9USBSerial14blockOnOverrunEb>:
  HAL_USB_USART_Flush_Data(_serial);
}

void USBSerial::blockOnOverrun(bool block)
{
  _blocking = block;
   d8e34:	7441      	strb	r1, [r0, #17]
}
   d8e36:	4770      	bx	lr

000d8e38 <_ZN9USBSerialD1Ev>:
#include "usb_hal.h"
#include "system_task.h"
#include "spark_wiring_startup.h"
#include "concurrent_hal.h"

class USBSerial : public Stream
   d8e38:	4770      	bx	lr

000d8e3a <_ZN9USBSerial4readEv>:
{
   d8e3a:	b508      	push	{r3, lr}
	return std::max(-1, (int)HAL_USB_USART_Receive_Data(_serial, false));
   d8e3c:	2100      	movs	r1, #0
   d8e3e:	7c00      	ldrb	r0, [r0, #16]
   d8e40:	f7fd ff90 	bl	d6d64 <HAL_USB_USART_Receive_Data>
}
   d8e44:	ea40 70e0 	orr.w	r0, r0, r0, asr #31
   d8e48:	bd08      	pop	{r3, pc}

000d8e4a <_ZN9USBSerial4peekEv>:

int USBSerial::peek()
{
   d8e4a:	b508      	push	{r3, lr}
	return std::max(-1, (int)HAL_USB_USART_Receive_Data(_serial, true));
   d8e4c:	2101      	movs	r1, #1
   d8e4e:	7c00      	ldrb	r0, [r0, #16]
   d8e50:	f7fd ff88 	bl	d6d64 <HAL_USB_USART_Receive_Data>
}
   d8e54:	ea40 70e0 	orr.w	r0, r0, r0, asr #31
   d8e58:	bd08      	pop	{r3, pc}

000d8e5a <_ZN9USBSerial17availableForWriteEv>:
{
   d8e5a:	b508      	push	{r3, lr}
  return std::max(0, (int)HAL_USB_USART_Available_Data_For_Write(_serial));
   d8e5c:	7c00      	ldrb	r0, [r0, #16]
   d8e5e:	f7fd ff79 	bl	d6d54 <HAL_USB_USART_Available_Data_For_Write>
}
   d8e62:	ea20 70e0 	bic.w	r0, r0, r0, asr #31
   d8e66:	bd08      	pop	{r3, pc}

000d8e68 <_ZN9USBSerial9availableEv>:
{
   d8e68:	b508      	push	{r3, lr}
	return std::max(0, (int)HAL_USB_USART_Available_Data(_serial));
   d8e6a:	7c00      	ldrb	r0, [r0, #16]
   d8e6c:	f7fd ff6a 	bl	d6d44 <HAL_USB_USART_Available_Data>
}
   d8e70:	ea20 70e0 	bic.w	r0, r0, r0, asr #31
   d8e74:	bd08      	pop	{r3, pc}

000d8e76 <_ZN9USBSerial5writeEh>:
{
   d8e76:	b513      	push	{r0, r1, r4, lr}
   d8e78:	4604      	mov	r4, r0
  if (HAL_USB_USART_Available_Data_For_Write(_serial) > 0 || _blocking) {
   d8e7a:	7c00      	ldrb	r0, [r0, #16]
{
   d8e7c:	9101      	str	r1, [sp, #4]
  if (HAL_USB_USART_Available_Data_For_Write(_serial) > 0 || _blocking) {
   d8e7e:	f7fd ff69 	bl	d6d54 <HAL_USB_USART_Available_Data_For_Write>
   d8e82:	2800      	cmp	r0, #0
   d8e84:	9901      	ldr	r1, [sp, #4]
   d8e86:	dc01      	bgt.n	d8e8c <_ZN9USBSerial5writeEh+0x16>
   d8e88:	7c60      	ldrb	r0, [r4, #17]
   d8e8a:	b120      	cbz	r0, d8e96 <_ZN9USBSerial5writeEh+0x20>
    return std::max(0, (int)HAL_USB_USART_Send_Data(_serial, byte));
   d8e8c:	7c20      	ldrb	r0, [r4, #16]
   d8e8e:	f7fd ff71 	bl	d6d74 <HAL_USB_USART_Send_Data>
   d8e92:	ea20 70e0 	bic.w	r0, r0, r0, asr #31
}
   d8e96:	b002      	add	sp, #8
   d8e98:	bd10      	pop	{r4, pc}

000d8e9a <_ZN9USBSerial5flushEv>:
  HAL_USB_USART_Flush_Data(_serial);
   d8e9a:	7c00      	ldrb	r0, [r0, #16]
   d8e9c:	f7fd bf72 	b.w	d6d84 <HAL_USB_USART_Flush_Data>

000d8ea0 <_ZN9USBSerialD0Ev>:
   d8ea0:	b510      	push	{r4, lr}
   d8ea2:	2114      	movs	r1, #20
   d8ea4:	4604      	mov	r4, r0
   d8ea6:	f000 fa06 	bl	d92b6 <_ZdlPvj>
   d8eaa:	4620      	mov	r0, r4
   d8eac:	bd10      	pop	{r4, pc}
	...

000d8eb0 <_ZN9USBSerialC1E20HAL_USB_USART_SerialRK20HAL_USB_USART_Config>:
USBSerial::USBSerial(HAL_USB_USART_Serial serial, const HAL_USB_USART_Config& conf)
   d8eb0:	b510      	push	{r4, lr}
   d8eb2:	f44f 737a 	mov.w	r3, #1000	; 0x3e8
   d8eb6:	4604      	mov	r4, r0
   d8eb8:	4608      	mov	r0, r1
   d8eba:	2100      	movs	r1, #0
   d8ebc:	e9c4 1301 	strd	r1, r3, [r4, #4]
   d8ec0:	4b04      	ldr	r3, [pc, #16]	; (d8ed4 <_ZN9USBSerialC1E20HAL_USB_USART_SerialRK20HAL_USB_USART_Config+0x24>)
   d8ec2:	6023      	str	r3, [r4, #0]
  _blocking = true;
   d8ec4:	2301      	movs	r3, #1
  _serial = serial;
   d8ec6:	7420      	strb	r0, [r4, #16]
  _blocking = true;
   d8ec8:	7463      	strb	r3, [r4, #17]
  HAL_USB_USART_Init(_serial, &conf);
   d8eca:	4611      	mov	r1, r2
   d8ecc:	f7fd ff2a 	bl	d6d24 <HAL_USB_USART_Init>
}
   d8ed0:	4620      	mov	r0, r4
   d8ed2:	bd10      	pop	{r4, pc}
   d8ed4:	000dcd0c 	.word	0x000dcd0c

000d8ed8 <_ZN9USBSerial5beginEl>:
    HAL_USB_USART_Begin(_serial, speed, NULL);
   d8ed8:	7c00      	ldrb	r0, [r0, #16]
   d8eda:	2200      	movs	r2, #0
   d8edc:	f7fd bf2a 	b.w	d6d34 <HAL_USB_USART_Begin>

000d8ee0 <_Z19acquireSerialBufferv>:

// Preinstantiate Objects //////////////////////////////////////////////////////
#ifdef SPARK_USB_SERIAL

HAL_USB_USART_Config __attribute__((weak)) acquireSerialBuffer()
{
   d8ee0:	b510      	push	{r4, lr}
  HAL_USB_USART_Config conf = {0};
   d8ee2:	2214      	movs	r2, #20
{
   d8ee4:	4604      	mov	r4, r0
  HAL_USB_USART_Config conf = {0};
   d8ee6:	2100      	movs	r1, #0
   d8ee8:	f001 fa5c 	bl	da3a4 <memset>
  conf.rx_buffer_size = USB_RX_BUFFER_SIZE;
  conf.tx_buffer_size = USB_TX_BUFFER_SIZE;
#endif

  return conf;
}
   d8eec:	4620      	mov	r0, r4
   d8eee:	bd10      	pop	{r4, pc}

000d8ef0 <_Z16_fetch_usbserialv>:

USBSerial& _fetch_usbserial()
{
   d8ef0:	b510      	push	{r4, lr}
  HAL_USB_USART_Config conf = acquireSerialBuffer();
	static USBSerial _usbserial(HAL_USB_USART_SERIAL, conf);
   d8ef2:	4c10      	ldr	r4, [pc, #64]	; (d8f34 <_Z16_fetch_usbserialv+0x44>)
{
   d8ef4:	b088      	sub	sp, #32
  HAL_USB_USART_Config conf = acquireSerialBuffer();
   d8ef6:	a803      	add	r0, sp, #12
   d8ef8:	f7ff fff2 	bl	d8ee0 <_Z19acquireSerialBufferv>
	static USBSerial _usbserial(HAL_USB_USART_SERIAL, conf);
   d8efc:	7821      	ldrb	r1, [r4, #0]
   d8efe:	f3bf 8f5b 	dmb	ish
   d8f02:	f011 0101 	ands.w	r1, r1, #1
   d8f06:	d111      	bne.n	d8f2c <_Z16_fetch_usbserialv+0x3c>
   d8f08:	4620      	mov	r0, r4
   d8f0a:	9101      	str	r1, [sp, #4]
   d8f0c:	f7fb f8cb 	bl	d40a6 <__cxa_guard_acquire>
   d8f10:	9901      	ldr	r1, [sp, #4]
   d8f12:	b158      	cbz	r0, d8f2c <_Z16_fetch_usbserialv+0x3c>
   d8f14:	aa03      	add	r2, sp, #12
   d8f16:	4808      	ldr	r0, [pc, #32]	; (d8f38 <_Z16_fetch_usbserialv+0x48>)
   d8f18:	f7ff ffca 	bl	d8eb0 <_ZN9USBSerialC1E20HAL_USB_USART_SerialRK20HAL_USB_USART_Config>
   d8f1c:	4620      	mov	r0, r4
   d8f1e:	f7fb f8c7 	bl	d40b0 <__cxa_guard_release>
   d8f22:	4a06      	ldr	r2, [pc, #24]	; (d8f3c <_Z16_fetch_usbserialv+0x4c>)
   d8f24:	4906      	ldr	r1, [pc, #24]	; (d8f40 <_Z16_fetch_usbserialv+0x50>)
   d8f26:	4804      	ldr	r0, [pc, #16]	; (d8f38 <_Z16_fetch_usbserialv+0x48>)
   d8f28:	f000 f9c0 	bl	d92ac <__aeabi_atexit>
	return _usbserial;
}
   d8f2c:	4802      	ldr	r0, [pc, #8]	; (d8f38 <_Z16_fetch_usbserialv+0x48>)
   d8f2e:	b008      	add	sp, #32
   d8f30:	bd10      	pop	{r4, pc}
   d8f32:	bf00      	nop
   d8f34:	2003e7a0 	.word	0x2003e7a0
   d8f38:	2003e7a4 	.word	0x2003e7a4
   d8f3c:	2003e470 	.word	0x2003e470
   d8f40:	000d8e39 	.word	0x000d8e39

000d8f44 <_ZN5spark9WiFiClass5readyEv>:
    bool connecting(void) {
        return network_connecting(*this, 0, NULL);
    }

    bool ready(void) {
        return network_ready(*this, 0, NULL);
   d8f44:	2200      	movs	r2, #0
   d8f46:	6840      	ldr	r0, [r0, #4]
   d8f48:	4611      	mov	r1, r2
   d8f4a:	f7fd bfc7 	b.w	d6edc <network_ready>

000d8f4e <_ZN5spark9WiFiClass9listeningEv>:
    uint16_t getListenTimeout(void) {
        return network_get_listen_timeout(*this, 0, NULL);
    }

    bool listening(void) {
        return network_listening(*this, 0, NULL);
   d8f4e:	2200      	movs	r2, #0
   d8f50:	6840      	ldr	r0, [r0, #4]
   d8f52:	4611      	mov	r1, r2
   d8f54:	f7fd bfe2 	b.w	d6f1c <network_listening>

000d8f58 <_ZN5spark9WiFiClass16getListenTimeoutEv>:
        return network_get_listen_timeout(*this, 0, NULL);
   d8f58:	2200      	movs	r2, #0
   d8f5a:	6840      	ldr	r0, [r0, #4]
   d8f5c:	4611      	mov	r1, r2
   d8f5e:	f7fd bfed 	b.w	d6f3c <network_get_listen_timeout>

000d8f62 <_ZN5spark9WiFiClass16setListenTimeoutEt>:
        network_set_listen_timeout(*this, timeout, NULL);
   d8f62:	6840      	ldr	r0, [r0, #4]
   d8f64:	2200      	movs	r2, #0
   d8f66:	f7fd bfe1 	b.w	d6f2c <network_set_listen_timeout>

000d8f6a <_ZN5spark9WiFiClass6listenEb>:
        network_listen(*this, begin ? 0 : 1, NULL);
   d8f6a:	6840      	ldr	r0, [r0, #4]
   d8f6c:	2200      	movs	r2, #0
   d8f6e:	f081 0101 	eor.w	r1, r1, #1
   d8f72:	f7fd bfcb 	b.w	d6f0c <network_listen>

000d8f76 <_ZN5spark9WiFiClass3offEv>:
        network_off(*this, 0, 0, NULL);
   d8f76:	2300      	movs	r3, #0
   d8f78:	6840      	ldr	r0, [r0, #4]
   d8f7a:	461a      	mov	r2, r3
   d8f7c:	4619      	mov	r1, r3
   d8f7e:	f7fd bfbd 	b.w	d6efc <network_off>

000d8f82 <_ZN5spark9WiFiClass2onEv>:
        network_on(*this, 0, 0, NULL);
   d8f82:	2300      	movs	r3, #0
   d8f84:	6840      	ldr	r0, [r0, #4]
   d8f86:	461a      	mov	r2, r3
   d8f88:	4619      	mov	r1, r3
   d8f8a:	f7fd bfaf 	b.w	d6eec <network_on>

000d8f8e <_ZN5spark9WiFiClass10connectingEv>:
        return network_connecting(*this, 0, NULL);
   d8f8e:	2200      	movs	r2, #0
   d8f90:	6840      	ldr	r0, [r0, #4]
   d8f92:	4611      	mov	r1, r2
   d8f94:	f7fd bf92 	b.w	d6ebc <network_connecting>

000d8f98 <_ZN5spark9WiFiClass10disconnectEv>:
        network_disconnect(*this, NETWORK_DISCONNECT_REASON_USER, NULL);
   d8f98:	6840      	ldr	r0, [r0, #4]
   d8f9a:	2200      	movs	r2, #0
   d8f9c:	2102      	movs	r1, #2
   d8f9e:	f7fd bf95 	b.w	d6ecc <network_disconnect>

000d8fa2 <_ZN5spark9WiFiClass7connectEj>:
        network_connect(*this, flags, 0, NULL);
   d8fa2:	2300      	movs	r3, #0
   d8fa4:	6840      	ldr	r0, [r0, #4]
   d8fa6:	461a      	mov	r2, r3
   d8fa8:	f7fd bf80 	b.w	d6eac <network_connect>

000d8fac <_GLOBAL__sub_I__ZN10WiFiSignalC2ERK21wlan_connected_info_t>:
   d8fac:	4b02      	ldr	r3, [pc, #8]	; (d8fb8 <_GLOBAL__sub_I__ZN10WiFiSignalC2ERK21wlan_connected_info_t+0xc>)
   d8fae:	2204      	movs	r2, #4
   d8fb0:	605a      	str	r2, [r3, #4]
            NetworkClass(NETWORK_INTERFACE_WIFI_STA) {
   d8fb2:	4a02      	ldr	r2, [pc, #8]	; (d8fbc <_GLOBAL__sub_I__ZN10WiFiSignalC2ERK21wlan_connected_info_t+0x10>)
   d8fb4:	601a      	str	r2, [r3, #0]
the same way.
*****************************************************************************/

    WiFiClass WiFi;
    // NetworkClass& Network = WiFi;
}
   d8fb6:	4770      	bx	lr
   d8fb8:	2003e7b8 	.word	0x2003e7b8
   d8fbc:	000dcd3c 	.word	0x000dcd3c

000d8fc0 <_Z11str_reversePc>:

//------------------------------------------------------------------------------------------
#define BUFSIZE (sizeof(long) * 8 + 1)

//utility function used by ultoa()
__attribute__((weak)) void str_reverse(char* buffer){
   d8fc0:	b510      	push	{r4, lr}
   d8fc2:	4604      	mov	r4, r0
	char *i, *j;
	char c;
	i=buffer;
	j=buffer + strlen(buffer)-1;
   d8fc4:	f001 fa67 	bl	da496 <strlen>
   d8fc8:	3801      	subs	r0, #1
   d8fca:	1823      	adds	r3, r4, r0
   d8fcc:	4620      	mov	r0, r4
	while(i<j){
   d8fce:	4283      	cmp	r3, r0
   d8fd0:	d906      	bls.n	d8fe0 <_Z11str_reversePc+0x20>
		c = *i;
   d8fd2:	7802      	ldrb	r2, [r0, #0]
		*i = *j;
   d8fd4:	7819      	ldrb	r1, [r3, #0]
   d8fd6:	f800 1b01 	strb.w	r1, [r0], #1
		*j = c;
   d8fda:	f803 2901 	strb.w	r2, [r3], #-1
	while(i<j){
   d8fde:	e7f6      	b.n	d8fce <_Z11str_reversePc+0xe>
		++i;
		--j;
	}
}
   d8fe0:	bd10      	pop	{r4, pc}

000d8fe2 <ultoa>:
      memcpy(head, ++tail, i);
      return str;
}

//convert unsigned long to string
__attribute__((weak)) char* ultoa(unsigned long a, char* buffer, int radix, char pad){
   d8fe2:	b570      	push	{r4, r5, r6, lr}
   d8fe4:	460c      	mov	r4, r1
	if(radix<2 || radix>36){
   d8fe6:	1e91      	subs	r1, r2, #2
   d8fe8:	2922      	cmp	r1, #34	; 0x22
__attribute__((weak)) char* ultoa(unsigned long a, char* buffer, int radix, char pad){
   d8fea:	4605      	mov	r5, r0
	if(radix<2 || radix>36){
   d8fec:	d822      	bhi.n	d9034 <ultoa+0x52>
		return NULL;
	}
	char* ptr=buffer;
   d8fee:	4620      	mov	r0, r4

	div_t result;
	while(a){
   d8ff0:	b16d      	cbz	r5, d900e <ultoa+0x2c>
            /* toolchain bug??
            result = div(a, radix);
            */
            result.quot = a/radix;
   d8ff2:	fbb5 f6f2 	udiv	r6, r5, r2
            result.rem = a%radix;
   d8ff6:	fb02 5516 	mls	r5, r2, r6, r5
            *ptr = result.rem;
   d8ffa:	b2e9      	uxtb	r1, r5
            if(result.rem<10){
   d8ffc:	2d09      	cmp	r5, #9
                *ptr += '0';
   d8ffe:	bf94      	ite	ls
   d9000:	3130      	addls	r1, #48	; 0x30
            }else{
                *ptr += 'a'-10;
   d9002:	3157      	addhi	r1, #87	; 0x57
   d9004:	b2c9      	uxtb	r1, r1
   d9006:	f800 1b01 	strb.w	r1, [r0], #1
            }
            ++ptr;
            a = result.quot;
   d900a:	4635      	mov	r5, r6
	while(a){
   d900c:	e7f0      	b.n	d8ff0 <ultoa+0xe>
   d900e:	4602      	mov	r2, r0
	}
        while (ptr < buffer+pad)
   d9010:	4423      	add	r3, r4
            *ptr++ = '0';
   d9012:	2130      	movs	r1, #48	; 0x30
        while (ptr < buffer+pad)
   d9014:	4293      	cmp	r3, r2
   d9016:	d902      	bls.n	d901e <ultoa+0x3c>
            *ptr++ = '0';
   d9018:	f802 1b01 	strb.w	r1, [r2], #1
        while (ptr < buffer+pad)
   d901c:	e7fa      	b.n	d9014 <ultoa+0x32>
   d901e:	1a1a      	subs	r2, r3, r0
   d9020:	4283      	cmp	r3, r0
   d9022:	bf38      	it	cc
   d9024:	2200      	movcc	r2, #0

	*ptr = '\0';
   d9026:	2300      	movs	r3, #0
   d9028:	5483      	strb	r3, [r0, r2]
	str_reverse(buffer);
   d902a:	4620      	mov	r0, r4
   d902c:	f7ff ffc8 	bl	d8fc0 <_Z11str_reversePc>
	return buffer;
   d9030:	4620      	mov	r0, r4
}
   d9032:	bd70      	pop	{r4, r5, r6, pc}
		return NULL;
   d9034:	2000      	movs	r0, #0
   d9036:	e7fc      	b.n	d9032 <ultoa+0x50>

000d9038 <_ZZ21module_user_init_hookENUlP6_reentjmPvE_4_FUNES0_jmS1_>:

void module_user_init_hook()
{
#if HAL_PLATFORM_NEWLIB
    newlib_impure_ptr_callback([](struct _reent* r, size_t size, uint32_t version, void* ctx) -> void {
        _impure_ptr = r;
   d9038:	4b01      	ldr	r3, [pc, #4]	; (d9040 <_ZZ21module_user_init_hookENUlP6_reentjmPvE_4_FUNES0_jmS1_+0x8>)
   d903a:	6018      	str	r0, [r3, #0]
    }, nullptr);
   d903c:	4770      	bx	lr
   d903e:	bf00      	nop
   d9040:	2003e29c 	.word	0x2003e29c

000d9044 <serialEventRun>:
{
   d9044:	b508      	push	{r3, lr}
    if (serialEvent && Serial.available()>0)
   d9046:	4b0b      	ldr	r3, [pc, #44]	; (d9074 <serialEventRun+0x30>)
   d9048:	b143      	cbz	r3, d905c <serialEventRun+0x18>
   d904a:	f7ff ff51 	bl	d8ef0 <_Z16_fetch_usbserialv>
   d904e:	6803      	ldr	r3, [r0, #0]
   d9050:	691b      	ldr	r3, [r3, #16]
   d9052:	4798      	blx	r3
   d9054:	2800      	cmp	r0, #0
   d9056:	dd01      	ble.n	d905c <serialEventRun+0x18>
        serialEvent();
   d9058:	f3af 8000 	nop.w
    if (serialEvent1 && Serial1.available()>0)
   d905c:	4b06      	ldr	r3, [pc, #24]	; (d9078 <serialEventRun+0x34>)
   d905e:	b143      	cbz	r3, d9072 <serialEventRun+0x2e>
   d9060:	f7ff febe 	bl	d8de0 <_Z22__fetch_global_Serial1v>
   d9064:	6803      	ldr	r3, [r0, #0]
   d9066:	691b      	ldr	r3, [r3, #16]
   d9068:	4798      	blx	r3
   d906a:	2800      	cmp	r0, #0
   d906c:	dd01      	ble.n	d9072 <serialEventRun+0x2e>
        serialEvent1();
   d906e:	f3af 8000 	nop.w
}
   d9072:	bd08      	pop	{r3, pc}
	...

000d907c <_post_loop>:
{
   d907c:	b508      	push	{r3, lr}
	serialEventRun();
   d907e:	f7ff ffe1 	bl	d9044 <serialEventRun>
		return !timeout_fn;
	}

	static inline system_tick_t current_time()
	{
		return HAL_Timer_Get_Milli_Seconds();
   d9082:	f7fd fcf7 	bl	d6a74 <HAL_Timer_Get_Milli_Seconds>
	/**
	 * Lifesign that the application is still working normally.
	 */
	static void checkin()
	{
		last_checkin = current_time();
   d9086:	4b01      	ldr	r3, [pc, #4]	; (d908c <_post_loop+0x10>)
   d9088:	6018      	str	r0, [r3, #0]
}
   d908a:	bd08      	pop	{r3, pc}
   d908c:	2003e7d4 	.word	0x2003e7d4

000d9090 <_Z33system_initialize_user_backup_ramv>:
    memcpy(&link_global_retained_start, &link_global_retained_initial_values, len);
   d9090:	4802      	ldr	r0, [pc, #8]	; (d909c <_Z33system_initialize_user_backup_ramv+0xc>)
   d9092:	4a03      	ldr	r2, [pc, #12]	; (d90a0 <_Z33system_initialize_user_backup_ramv+0x10>)
   d9094:	4903      	ldr	r1, [pc, #12]	; (d90a4 <_Z33system_initialize_user_backup_ramv+0x14>)
   d9096:	1a12      	subs	r2, r2, r0
   d9098:	f001 b95c 	b.w	da354 <memcpy>
   d909c:	2003f400 	.word	0x2003f400
   d90a0:	2003f404 	.word	0x2003f404
   d90a4:	000dd128 	.word	0x000dd128

000d90a8 <_Z27ctrl_request_custom_handlerP12ctrl_request>:
void __attribute((weak)) ctrl_request_custom_handler(ctrl_request* req) {
   d90a8:	b507      	push	{r0, r1, r2, lr}
    system_ctrl_set_result(req, SYSTEM_ERROR_NOT_SUPPORTED, nullptr, nullptr, nullptr);
   d90aa:	2300      	movs	r3, #0
   d90ac:	9300      	str	r3, [sp, #0]
   d90ae:	461a      	mov	r2, r3
   d90b0:	f06f 0177 	mvn.w	r1, #119	; 0x77
   d90b4:	f7fd fec0 	bl	d6e38 <system_ctrl_set_result>
}
   d90b8:	b003      	add	sp, #12
   d90ba:	f85d fb04 	ldr.w	pc, [sp], #4
	...

000d90c0 <_ZL20ctrl_request_handlerP12ctrl_request>:
static void ctrl_request_handler(ctrl_request* req) {
   d90c0:	b507      	push	{r0, r1, r2, lr}
    switch (req->type) {
   d90c2:	8843      	ldrh	r3, [r0, #2]
   d90c4:	2b0a      	cmp	r3, #10
   d90c6:	d008      	beq.n	d90da <_ZL20ctrl_request_handlerP12ctrl_request+0x1a>
   d90c8:	2b50      	cmp	r3, #80	; 0x50
   d90ca:	d10b      	bne.n	d90e4 <_ZL20ctrl_request_handlerP12ctrl_request+0x24>
        if (log_process_ctrl_request_callback) {
   d90cc:	4b09      	ldr	r3, [pc, #36]	; (d90f4 <_ZL20ctrl_request_handlerP12ctrl_request+0x34>)
   d90ce:	681b      	ldr	r3, [r3, #0]
   d90d0:	b14b      	cbz	r3, d90e6 <_ZL20ctrl_request_handlerP12ctrl_request+0x26>
}
   d90d2:	b003      	add	sp, #12
   d90d4:	f85d eb04 	ldr.w	lr, [sp], #4
            log_process_ctrl_request_callback(req);
   d90d8:	4718      	bx	r3
        ctrl_request_custom_handler(req);
   d90da:	f7ff ffe5 	bl	d90a8 <_Z27ctrl_request_custom_handlerP12ctrl_request>
}
   d90de:	b003      	add	sp, #12
   d90e0:	f85d fb04 	ldr.w	pc, [sp], #4
        system_ctrl_set_result(req, SYSTEM_ERROR_NOT_SUPPORTED, nullptr, nullptr, nullptr);
   d90e4:	2300      	movs	r3, #0
   d90e6:	9300      	str	r3, [sp, #0]
   d90e8:	461a      	mov	r2, r3
   d90ea:	f06f 0177 	mvn.w	r1, #119	; 0x77
   d90ee:	f7fd fea3 	bl	d6e38 <system_ctrl_set_result>
}
   d90f2:	e7f4      	b.n	d90de <_ZL20ctrl_request_handlerP12ctrl_request+0x1e>
   d90f4:	2003e7c4 	.word	0x2003e7c4

000d90f8 <module_user_init_hook>:
{
   d90f8:	b538      	push	{r3, r4, r5, lr}
#endif // HAL_PLATFORM_NEWLIB

#if HAL_PLATFORM_BACKUP_RAM
    backup_ram_was_valid_ =  __backup_sram_signature==signature;
   d90fa:	4c12      	ldr	r4, [pc, #72]	; (d9144 <module_user_init_hook+0x4c>)
    newlib_impure_ptr_callback([](struct _reent* r, size_t size, uint32_t version, void* ctx) -> void {
   d90fc:	4812      	ldr	r0, [pc, #72]	; (d9148 <module_user_init_hook+0x50>)
    backup_ram_was_valid_ =  __backup_sram_signature==signature;
   d90fe:	4d13      	ldr	r5, [pc, #76]	; (d914c <module_user_init_hook+0x54>)
    newlib_impure_ptr_callback([](struct _reent* r, size_t size, uint32_t version, void* ctx) -> void {
   d9100:	2100      	movs	r1, #0
   d9102:	f7fd ff6b 	bl	d6fdc <newlib_impure_ptr_callback>
    backup_ram_was_valid_ =  __backup_sram_signature==signature;
   d9106:	6823      	ldr	r3, [r4, #0]
   d9108:	42ab      	cmp	r3, r5
   d910a:	4b11      	ldr	r3, [pc, #68]	; (d9150 <module_user_init_hook+0x58>)
   d910c:	bf0c      	ite	eq
   d910e:	2201      	moveq	r2, #1
   d9110:	2200      	movne	r2, #0
   d9112:	701a      	strb	r2, [r3, #0]
    if (!backup_ram_was_valid_) {
   d9114:	d002      	beq.n	d911c <module_user_init_hook+0x24>
        system_initialize_user_backup_ram();
   d9116:	f7ff ffbb 	bl	d9090 <_Z33system_initialize_user_backup_ramv>
        __backup_sram_signature = signature;
   d911a:	6025      	str	r5, [r4, #0]
    }
#endif

#if HAL_PLATFORM_RNG
    // Initialize the default stdlib PRNG using hardware RNG as a seed
    const uint32_t seed = HAL_RNG_GetRandomNumber();
   d911c:	f7fd fc9a 	bl	d6a54 <HAL_RNG_GetRandomNumber>
   d9120:	4604      	mov	r4, r0
    srand(seed);
   d9122:	f001 f957 	bl	da3d4 <srand>

    // If the user defines random_seed_from_cloud, call it with a seed value
    // generated by a hardware RNG as well.
    if (random_seed_from_cloud) {
   d9126:	4b0b      	ldr	r3, [pc, #44]	; (d9154 <module_user_init_hook+0x5c>)
   d9128:	b113      	cbz	r3, d9130 <module_user_init_hook+0x38>
        random_seed_from_cloud(seed);
   d912a:	4620      	mov	r0, r4
   d912c:	f3af 8000 	nop.w
    }
#endif
    // Register the random_seed_from_cloud handler
    spark_set_random_seed_from_cloud_handler(&random_seed_from_cloud, nullptr);
   d9130:	2100      	movs	r1, #0
   d9132:	4808      	ldr	r0, [pc, #32]	; (d9154 <module_user_init_hook+0x5c>)
   d9134:	f7fd feb2 	bl	d6e9c <spark_set_random_seed_from_cloud_handler>

    // Register application handler for the control requests
    system_ctrl_set_app_request_handler(ctrl_request_handler, nullptr);
}
   d9138:	e8bd 4038 	ldmia.w	sp!, {r3, r4, r5, lr}
    system_ctrl_set_app_request_handler(ctrl_request_handler, nullptr);
   d913c:	4806      	ldr	r0, [pc, #24]	; (d9158 <module_user_init_hook+0x60>)
   d913e:	2100      	movs	r1, #0
   d9140:	f7fd be70 	b.w	d6e24 <system_ctrl_set_app_request_handler>
   d9144:	2003f400 	.word	0x2003f400
   d9148:	000d9039 	.word	0x000d9039
   d914c:	9a271c1e 	.word	0x9a271c1e
   d9150:	2003e7c0 	.word	0x2003e7c0
   d9154:	00000000 	.word	0x00000000
   d9158:	000d90c1 	.word	0x000d90c1

000d915c <pinAvailable>:
/*
 * @brief Perform safety check on desired pin to see if it's already
 * being used.  Return 0 if used, otherwise return 1 if available.
 */
bool pinAvailable(uint16_t pin) {
  if (pin >= TOTAL_PINS) {
   d915c:	2823      	cmp	r0, #35	; 0x23
bool pinAvailable(uint16_t pin) {
   d915e:	b513      	push	{r0, r1, r4, lr}
  if (pin >= TOTAL_PINS) {
   d9160:	d902      	bls.n	d9168 <pinAvailable+0xc>
    return false;
   d9162:	2000      	movs	r0, #0
    return false; // 'pin' is used
  }
#endif

  return true; // 'pin' is available
}
   d9164:	b002      	add	sp, #8
   d9166:	bd10      	pop	{r4, pc}
  if((pin == SCK || pin == MOSI || pin == MISO) && hal_spi_is_enabled(SPI.interface()) == true)
   d9168:	f1a0 030b 	sub.w	r3, r0, #11
   d916c:	2b02      	cmp	r3, #2
   d916e:	d81a      	bhi.n	d91a6 <pinAvailable+0x4a>

template <hal_spi_interface_t Interface>
class SpiProxy {
public:
    static SPIClass& instance() {
        static SPIClass instance(Interface);
   d9170:	4c17      	ldr	r4, [pc, #92]	; (d91d0 <pinAvailable+0x74>)
   d9172:	7821      	ldrb	r1, [r4, #0]
   d9174:	f3bf 8f5b 	dmb	ish
   d9178:	f011 0101 	ands.w	r1, r1, #1
   d917c:	d10b      	bne.n	d9196 <pinAvailable+0x3a>
   d917e:	4620      	mov	r0, r4
   d9180:	9101      	str	r1, [sp, #4]
   d9182:	f7fa ff90 	bl	d40a6 <__cxa_guard_acquire>
   d9186:	9901      	ldr	r1, [sp, #4]
   d9188:	b128      	cbz	r0, d9196 <pinAvailable+0x3a>
   d918a:	4812      	ldr	r0, [pc, #72]	; (d91d4 <pinAvailable+0x78>)
   d918c:	f7fe fed0 	bl	d7f30 <_ZN8SPIClassC1E19hal_spi_interface_t>
   d9190:	4620      	mov	r0, r4
   d9192:	f7fa ff8d 	bl	d40b0 <__cxa_guard_release>
   d9196:	4b0f      	ldr	r3, [pc, #60]	; (d91d4 <pinAvailable+0x78>)
   d9198:	7818      	ldrb	r0, [r3, #0]
   d919a:	f7fd fd7b 	bl	d6c94 <hal_spi_is_enabled>
   d919e:	2800      	cmp	r0, #0
   d91a0:	d1df      	bne.n	d9162 <pinAvailable+0x6>
  return true; // 'pin' is available
   d91a2:	2001      	movs	r0, #1
   d91a4:	e7de      	b.n	d9164 <pinAvailable+0x8>
  if((pin == SCL || pin == SDA) && hal_i2c_is_enabled(Wire.interface(), nullptr) == true)
   d91a6:	2801      	cmp	r0, #1
   d91a8:	d809      	bhi.n	d91be <pinAvailable+0x62>
   d91aa:	f000 f857 	bl	d925c <_Z19__fetch_global_Wirev>
   d91ae:	2100      	movs	r1, #0
   d91b0:	7c00      	ldrb	r0, [r0, #16]
   d91b2:	f7fd fcd7 	bl	d6b64 <hal_i2c_is_enabled>
  if((pin == RX || pin == TX) && hal_usart_is_enabled(Serial1.interface()) == true)
   d91b6:	f080 0001 	eor.w	r0, r0, #1
   d91ba:	b2c0      	uxtb	r0, r0
   d91bc:	e7d2      	b.n	d9164 <pinAvailable+0x8>
   d91be:	3809      	subs	r0, #9
   d91c0:	2801      	cmp	r0, #1
   d91c2:	d8ee      	bhi.n	d91a2 <pinAvailable+0x46>
   d91c4:	f7ff fe0c 	bl	d8de0 <_Z22__fetch_global_Serial1v>
   d91c8:	7c00      	ldrb	r0, [r0, #16]
   d91ca:	f7fd fd9b 	bl	d6d04 <hal_usart_is_enabled>
   d91ce:	e7f2      	b.n	d91b6 <pinAvailable+0x5a>
   d91d0:	2003e7c8 	.word	0x2003e7c8
   d91d4:	2003e7cc 	.word	0x2003e7cc

000d91d8 <pinMode>:
  if(pin >= TOTAL_PINS || setMode == PIN_MODE_NONE )
   d91d8:	2823      	cmp	r0, #35	; 0x23
{
   d91da:	b538      	push	{r3, r4, r5, lr}
   d91dc:	4604      	mov	r4, r0
   d91de:	460d      	mov	r5, r1
  if(pin >= TOTAL_PINS || setMode == PIN_MODE_NONE )
   d91e0:	d80a      	bhi.n	d91f8 <pinMode+0x20>
   d91e2:	29ff      	cmp	r1, #255	; 0xff
   d91e4:	d008      	beq.n	d91f8 <pinMode+0x20>
  if( !pinAvailable(pin) ) {
   d91e6:	f7ff ffb9 	bl	d915c <pinAvailable>
   d91ea:	b128      	cbz	r0, d91f8 <pinMode+0x20>
  HAL_Pin_Mode(pin, setMode);
   d91ec:	4629      	mov	r1, r5
   d91ee:	4620      	mov	r0, r4
}
   d91f0:	e8bd 4038 	ldmia.w	sp!, {r3, r4, r5, lr}
  HAL_Pin_Mode(pin, setMode);
   d91f4:	f7fd bc4e 	b.w	d6a94 <HAL_Pin_Mode>
}
   d91f8:	bd38      	pop	{r3, r4, r5, pc}

000d91fa <digitalWrite>:

/*
 * @brief Sets a GPIO pin to HIGH or LOW.
 */
void digitalWrite(pin_t pin, uint8_t value)
{
   d91fa:	b538      	push	{r3, r4, r5, lr}
   d91fc:	4604      	mov	r4, r0
   d91fe:	460d      	mov	r5, r1
    PinMode mode = HAL_Get_Pin_Mode(pin);
   d9200:	f7fd fc50 	bl	d6aa4 <HAL_Get_Pin_Mode>
    if (mode==PIN_MODE_NONE || is_input_mode(mode))
   d9204:	28ff      	cmp	r0, #255	; 0xff
   d9206:	d010      	beq.n	d922a <digitalWrite+0x30>
            mode == INPUT_PULLDOWN ||
   d9208:	2806      	cmp	r0, #6
   d920a:	d804      	bhi.n	d9216 <digitalWrite+0x1c>
   d920c:	234d      	movs	r3, #77	; 0x4d
   d920e:	fa23 f000 	lsr.w	r0, r3, r0
   d9212:	07c3      	lsls	r3, r0, #31
   d9214:	d409      	bmi.n	d922a <digitalWrite+0x30>
        return;
  // Safety check
  if( !pinAvailable(pin) ) {
   d9216:	4620      	mov	r0, r4
   d9218:	f7ff ffa0 	bl	d915c <pinAvailable>
   d921c:	b128      	cbz	r0, d922a <digitalWrite+0x30>
    return;
  }

  HAL_GPIO_Write(pin, value);
   d921e:	4629      	mov	r1, r5
   d9220:	4620      	mov	r0, r4
}
   d9222:	e8bd 4038 	ldmia.w	sp!, {r3, r4, r5, lr}
  HAL_GPIO_Write(pin, value);
   d9226:	f7fd bc45 	b.w	d6ab4 <HAL_GPIO_Write>
}
   d922a:	bd38      	pop	{r3, r4, r5, pc}

000d922c <_Z17acquireWireBufferv>:
}

} // anonymous

hal_i2c_config_t __attribute__((weak)) acquireWireBuffer()
{
   d922c:	b538      	push	{r3, r4, r5, lr}
	hal_i2c_config_t config = {
   d922e:	2300      	movs	r3, #0
   d9230:	2520      	movs	r5, #32
   d9232:	8043      	strh	r3, [r0, #2]
   d9234:	2314      	movs	r3, #20
{
   d9236:	4604      	mov	r4, r0
	hal_i2c_config_t config = {
   d9238:	8003      	strh	r3, [r0, #0]
   d923a:	6085      	str	r5, [r0, #8]
   d923c:	6105      	str	r5, [r0, #16]
		.rx_buffer = new (std::nothrow) uint8_t[I2C_BUFFER_LENGTH],
   d923e:	4906      	ldr	r1, [pc, #24]	; (d9258 <_Z17acquireWireBufferv+0x2c>)
   d9240:	4628      	mov	r0, r5
   d9242:	f000 f83c 	bl	d92be <_ZnajRKSt9nothrow_t>
		.tx_buffer = new (std::nothrow) uint8_t[I2C_BUFFER_LENGTH],
   d9246:	4904      	ldr	r1, [pc, #16]	; (d9258 <_Z17acquireWireBufferv+0x2c>)
	};
   d9248:	6060      	str	r0, [r4, #4]
		.tx_buffer = new (std::nothrow) uint8_t[I2C_BUFFER_LENGTH],
   d924a:	4628      	mov	r0, r5
   d924c:	f000 f837 	bl	d92be <_ZnajRKSt9nothrow_t>
	};
   d9250:	60e0      	str	r0, [r4, #12]
	return defaultWireConfig();
}
   d9252:	4620      	mov	r0, r4
   d9254:	bd38      	pop	{r3, r4, r5, pc}
   d9256:	bf00      	nop
   d9258:	000dcd70 	.word	0x000dcd70

000d925c <_Z19__fetch_global_Wirev>:
	return defaultWireConfig();
}
#endif

TwoWire& __fetch_global_Wire()
{
   d925c:	b530      	push	{r4, r5, lr}
	static TwoWire wire(HAL_I2C_INTERFACE1, acquireWireBuffer());
   d925e:	4d0f      	ldr	r5, [pc, #60]	; (d929c <_Z19__fetch_global_Wirev+0x40>)
   d9260:	7829      	ldrb	r1, [r5, #0]
   d9262:	f3bf 8f5b 	dmb	ish
   d9266:	f011 0401 	ands.w	r4, r1, #1
{
   d926a:	b087      	sub	sp, #28
	static TwoWire wire(HAL_I2C_INTERFACE1, acquireWireBuffer());
   d926c:	d113      	bne.n	d9296 <_Z19__fetch_global_Wirev+0x3a>
   d926e:	4628      	mov	r0, r5
   d9270:	f7fa ff19 	bl	d40a6 <__cxa_guard_acquire>
   d9274:	b178      	cbz	r0, d9296 <_Z19__fetch_global_Wirev+0x3a>
   d9276:	a801      	add	r0, sp, #4
   d9278:	f7ff ffd8 	bl	d922c <_Z17acquireWireBufferv>
   d927c:	aa01      	add	r2, sp, #4
   d927e:	4621      	mov	r1, r4
   d9280:	4807      	ldr	r0, [pc, #28]	; (d92a0 <_Z19__fetch_global_Wirev+0x44>)
   d9282:	f7fe f9ff 	bl	d7684 <_ZN7TwoWireC1E19hal_i2c_interface_tRK16hal_i2c_config_t>
   d9286:	4628      	mov	r0, r5
   d9288:	f7fa ff12 	bl	d40b0 <__cxa_guard_release>
   d928c:	4a05      	ldr	r2, [pc, #20]	; (d92a4 <_Z19__fetch_global_Wirev+0x48>)
   d928e:	4906      	ldr	r1, [pc, #24]	; (d92a8 <_Z19__fetch_global_Wirev+0x4c>)
   d9290:	4803      	ldr	r0, [pc, #12]	; (d92a0 <_Z19__fetch_global_Wirev+0x44>)
   d9292:	f000 f80b 	bl	d92ac <__aeabi_atexit>
	return wire;
}
   d9296:	4802      	ldr	r0, [pc, #8]	; (d92a0 <_Z19__fetch_global_Wirev+0x44>)
   d9298:	b007      	add	sp, #28
   d929a:	bd30      	pop	{r4, r5, pc}
   d929c:	2003e7d8 	.word	0x2003e7d8
   d92a0:	2003e7dc 	.word	0x2003e7dc
   d92a4:	2003e470 	.word	0x2003e470
   d92a8:	000d762d 	.word	0x000d762d

000d92ac <__aeabi_atexit>:
   d92ac:	460b      	mov	r3, r1
   d92ae:	4601      	mov	r1, r0
   d92b0:	4618      	mov	r0, r3
   d92b2:	f001 b841 	b.w	da338 <__cxa_atexit>

000d92b6 <_ZdlPvj>:
   d92b6:	f7fa bef2 	b.w	d409e <_ZdlPv>

000d92ba <_ZnwjRKSt9nothrow_t>:
   d92ba:	f7fa beec 	b.w	d4096 <_Znwj>

000d92be <_ZnajRKSt9nothrow_t>:
   d92be:	f7fa beec 	b.w	d409a <_Znaj>

000d92c2 <_ZStL25local_Rb_tree_rotate_leftPSt18_Rb_tree_node_baseRS0_>:
   d92c2:	68c3      	ldr	r3, [r0, #12]
   d92c4:	689a      	ldr	r2, [r3, #8]
   d92c6:	60c2      	str	r2, [r0, #12]
   d92c8:	b510      	push	{r4, lr}
   d92ca:	b102      	cbz	r2, d92ce <_ZStL25local_Rb_tree_rotate_leftPSt18_Rb_tree_node_baseRS0_+0xc>
   d92cc:	6050      	str	r0, [r2, #4]
   d92ce:	6842      	ldr	r2, [r0, #4]
   d92d0:	605a      	str	r2, [r3, #4]
   d92d2:	680c      	ldr	r4, [r1, #0]
   d92d4:	4284      	cmp	r4, r0
   d92d6:	d103      	bne.n	d92e0 <_ZStL25local_Rb_tree_rotate_leftPSt18_Rb_tree_node_baseRS0_+0x1e>
   d92d8:	600b      	str	r3, [r1, #0]
   d92da:	6098      	str	r0, [r3, #8]
   d92dc:	6043      	str	r3, [r0, #4]
   d92de:	bd10      	pop	{r4, pc}
   d92e0:	6891      	ldr	r1, [r2, #8]
   d92e2:	4281      	cmp	r1, r0
   d92e4:	bf0c      	ite	eq
   d92e6:	6093      	streq	r3, [r2, #8]
   d92e8:	60d3      	strne	r3, [r2, #12]
   d92ea:	e7f6      	b.n	d92da <_ZStL25local_Rb_tree_rotate_leftPSt18_Rb_tree_node_baseRS0_+0x18>

000d92ec <_ZStL26local_Rb_tree_rotate_rightPSt18_Rb_tree_node_baseRS0_>:
   d92ec:	6883      	ldr	r3, [r0, #8]
   d92ee:	68da      	ldr	r2, [r3, #12]
   d92f0:	6082      	str	r2, [r0, #8]
   d92f2:	b510      	push	{r4, lr}
   d92f4:	b102      	cbz	r2, d92f8 <_ZStL26local_Rb_tree_rotate_rightPSt18_Rb_tree_node_baseRS0_+0xc>
   d92f6:	6050      	str	r0, [r2, #4]
   d92f8:	6842      	ldr	r2, [r0, #4]
   d92fa:	605a      	str	r2, [r3, #4]
   d92fc:	680c      	ldr	r4, [r1, #0]
   d92fe:	4284      	cmp	r4, r0
   d9300:	d103      	bne.n	d930a <_ZStL26local_Rb_tree_rotate_rightPSt18_Rb_tree_node_baseRS0_+0x1e>
   d9302:	600b      	str	r3, [r1, #0]
   d9304:	60d8      	str	r0, [r3, #12]
   d9306:	6043      	str	r3, [r0, #4]
   d9308:	bd10      	pop	{r4, pc}
   d930a:	68d1      	ldr	r1, [r2, #12]
   d930c:	4281      	cmp	r1, r0
   d930e:	bf0c      	ite	eq
   d9310:	60d3      	streq	r3, [r2, #12]
   d9312:	6093      	strne	r3, [r2, #8]
   d9314:	e7f6      	b.n	d9304 <_ZStL26local_Rb_tree_rotate_rightPSt18_Rb_tree_node_baseRS0_+0x18>

000d9316 <_ZStL23local_Rb_tree_decrementPSt18_Rb_tree_node_base>:
   d9316:	7803      	ldrb	r3, [r0, #0]
   d9318:	b933      	cbnz	r3, d9328 <_ZStL23local_Rb_tree_decrementPSt18_Rb_tree_node_base+0x12>
   d931a:	6843      	ldr	r3, [r0, #4]
   d931c:	685b      	ldr	r3, [r3, #4]
   d931e:	4283      	cmp	r3, r0
   d9320:	d102      	bne.n	d9328 <_ZStL23local_Rb_tree_decrementPSt18_Rb_tree_node_base+0x12>
   d9322:	68db      	ldr	r3, [r3, #12]
   d9324:	4618      	mov	r0, r3
   d9326:	4770      	bx	lr
   d9328:	6882      	ldr	r2, [r0, #8]
   d932a:	b122      	cbz	r2, d9336 <_ZStL23local_Rb_tree_decrementPSt18_Rb_tree_node_base+0x20>
   d932c:	4613      	mov	r3, r2
   d932e:	68d2      	ldr	r2, [r2, #12]
   d9330:	2a00      	cmp	r2, #0
   d9332:	d1fb      	bne.n	d932c <_ZStL23local_Rb_tree_decrementPSt18_Rb_tree_node_base+0x16>
   d9334:	e7f6      	b.n	d9324 <_ZStL23local_Rb_tree_decrementPSt18_Rb_tree_node_base+0xe>
   d9336:	6843      	ldr	r3, [r0, #4]
   d9338:	689a      	ldr	r2, [r3, #8]
   d933a:	4282      	cmp	r2, r0
   d933c:	d1f2      	bne.n	d9324 <_ZStL23local_Rb_tree_decrementPSt18_Rb_tree_node_base+0xe>
   d933e:	4618      	mov	r0, r3
   d9340:	685b      	ldr	r3, [r3, #4]
   d9342:	e7f9      	b.n	d9338 <_ZStL23local_Rb_tree_decrementPSt18_Rb_tree_node_base+0x22>

000d9344 <_ZSt18_Rb_tree_incrementPSt18_Rb_tree_node_base>:
   d9344:	68c3      	ldr	r3, [r0, #12]
   d9346:	b123      	cbz	r3, d9352 <_ZSt18_Rb_tree_incrementPSt18_Rb_tree_node_base+0xe>
   d9348:	4618      	mov	r0, r3
   d934a:	689b      	ldr	r3, [r3, #8]
   d934c:	2b00      	cmp	r3, #0
   d934e:	d1fb      	bne.n	d9348 <_ZSt18_Rb_tree_incrementPSt18_Rb_tree_node_base+0x4>
   d9350:	4770      	bx	lr
   d9352:	6843      	ldr	r3, [r0, #4]
   d9354:	68da      	ldr	r2, [r3, #12]
   d9356:	4282      	cmp	r2, r0
   d9358:	d102      	bne.n	d9360 <_ZSt18_Rb_tree_incrementPSt18_Rb_tree_node_base+0x1c>
   d935a:	4618      	mov	r0, r3
   d935c:	685b      	ldr	r3, [r3, #4]
   d935e:	e7f9      	b.n	d9354 <_ZSt18_Rb_tree_incrementPSt18_Rb_tree_node_base+0x10>
   d9360:	68c2      	ldr	r2, [r0, #12]
   d9362:	4293      	cmp	r3, r2
   d9364:	bf18      	it	ne
   d9366:	4618      	movne	r0, r3
   d9368:	4770      	bx	lr

000d936a <_ZSt18_Rb_tree_decrementPSt18_Rb_tree_node_base>:
   d936a:	f7ff bfd4 	b.w	d9316 <_ZStL23local_Rb_tree_decrementPSt18_Rb_tree_node_base>

000d936e <_ZSt29_Rb_tree_insert_and_rebalancebPSt18_Rb_tree_node_baseS0_RS_>:
   d936e:	e92d 43f8 	stmdb	sp!, {r3, r4, r5, r6, r7, r8, r9, lr}
   d9372:	461e      	mov	r6, r3
   d9374:	f103 0804 	add.w	r8, r3, #4
   d9378:	2300      	movs	r3, #0
   d937a:	e9c1 3302 	strd	r3, r3, [r1, #8]
   d937e:	460c      	mov	r4, r1
   d9380:	604a      	str	r2, [r1, #4]
   d9382:	700b      	strb	r3, [r1, #0]
   d9384:	b300      	cbz	r0, d93c8 <_ZSt29_Rb_tree_insert_and_rebalancebPSt18_Rb_tree_node_baseS0_RS_+0x5a>
   d9386:	4296      	cmp	r6, r2
   d9388:	6091      	str	r1, [r2, #8]
   d938a:	d118      	bne.n	d93be <_ZSt29_Rb_tree_insert_and_rebalancebPSt18_Rb_tree_node_baseS0_RS_+0x50>
   d938c:	6071      	str	r1, [r6, #4]
   d938e:	60f4      	str	r4, [r6, #12]
   d9390:	2701      	movs	r7, #1
   d9392:	f04f 0900 	mov.w	r9, #0
   d9396:	6873      	ldr	r3, [r6, #4]
   d9398:	42a3      	cmp	r3, r4
   d939a:	d03f      	beq.n	d941c <_ZSt29_Rb_tree_insert_and_rebalancebPSt18_Rb_tree_node_baseS0_RS_+0xae>
   d939c:	6860      	ldr	r0, [r4, #4]
   d939e:	7802      	ldrb	r2, [r0, #0]
   d93a0:	2a00      	cmp	r2, #0
   d93a2:	d13c      	bne.n	d941e <_ZSt29_Rb_tree_insert_and_rebalancebPSt18_Rb_tree_node_baseS0_RS_+0xb0>
   d93a4:	6845      	ldr	r5, [r0, #4]
   d93a6:	68ab      	ldr	r3, [r5, #8]
   d93a8:	4298      	cmp	r0, r3
   d93aa:	d123      	bne.n	d93f4 <_ZSt29_Rb_tree_insert_and_rebalancebPSt18_Rb_tree_node_baseS0_RS_+0x86>
   d93ac:	68eb      	ldr	r3, [r5, #12]
   d93ae:	b183      	cbz	r3, d93d2 <_ZSt29_Rb_tree_insert_and_rebalancebPSt18_Rb_tree_node_baseS0_RS_+0x64>
   d93b0:	781a      	ldrb	r2, [r3, #0]
   d93b2:	b972      	cbnz	r2, d93d2 <_ZSt29_Rb_tree_insert_and_rebalancebPSt18_Rb_tree_node_baseS0_RS_+0x64>
   d93b4:	7007      	strb	r7, [r0, #0]
   d93b6:	701f      	strb	r7, [r3, #0]
   d93b8:	702a      	strb	r2, [r5, #0]
   d93ba:	462c      	mov	r4, r5
   d93bc:	e7eb      	b.n	d9396 <_ZSt29_Rb_tree_insert_and_rebalancebPSt18_Rb_tree_node_baseS0_RS_+0x28>
   d93be:	68b3      	ldr	r3, [r6, #8]
   d93c0:	4293      	cmp	r3, r2
   d93c2:	d1e5      	bne.n	d9390 <_ZSt29_Rb_tree_insert_and_rebalancebPSt18_Rb_tree_node_baseS0_RS_+0x22>
   d93c4:	60b1      	str	r1, [r6, #8]
   d93c6:	e7e3      	b.n	d9390 <_ZSt29_Rb_tree_insert_and_rebalancebPSt18_Rb_tree_node_baseS0_RS_+0x22>
   d93c8:	60d1      	str	r1, [r2, #12]
   d93ca:	68f3      	ldr	r3, [r6, #12]
   d93cc:	4293      	cmp	r3, r2
   d93ce:	d1df      	bne.n	d9390 <_ZSt29_Rb_tree_insert_and_rebalancebPSt18_Rb_tree_node_baseS0_RS_+0x22>
   d93d0:	e7dd      	b.n	d938e <_ZSt29_Rb_tree_insert_and_rebalancebPSt18_Rb_tree_node_baseS0_RS_+0x20>
   d93d2:	68c3      	ldr	r3, [r0, #12]
   d93d4:	42a3      	cmp	r3, r4
   d93d6:	d103      	bne.n	d93e0 <_ZSt29_Rb_tree_insert_and_rebalancebPSt18_Rb_tree_node_baseS0_RS_+0x72>
   d93d8:	4641      	mov	r1, r8
   d93da:	f7ff ff72 	bl	d92c2 <_ZStL25local_Rb_tree_rotate_leftPSt18_Rb_tree_node_baseRS0_>
   d93de:	4604      	mov	r4, r0
   d93e0:	6863      	ldr	r3, [r4, #4]
   d93e2:	4641      	mov	r1, r8
   d93e4:	701f      	strb	r7, [r3, #0]
   d93e6:	4628      	mov	r0, r5
   d93e8:	f885 9000 	strb.w	r9, [r5]
   d93ec:	f7ff ff7e 	bl	d92ec <_ZStL26local_Rb_tree_rotate_rightPSt18_Rb_tree_node_baseRS0_>
   d93f0:	4625      	mov	r5, r4
   d93f2:	e7e2      	b.n	d93ba <_ZSt29_Rb_tree_insert_and_rebalancebPSt18_Rb_tree_node_baseS0_RS_+0x4c>
   d93f4:	b113      	cbz	r3, d93fc <_ZSt29_Rb_tree_insert_and_rebalancebPSt18_Rb_tree_node_baseS0_RS_+0x8e>
   d93f6:	781a      	ldrb	r2, [r3, #0]
   d93f8:	2a00      	cmp	r2, #0
   d93fa:	d0db      	beq.n	d93b4 <_ZSt29_Rb_tree_insert_and_rebalancebPSt18_Rb_tree_node_baseS0_RS_+0x46>
   d93fc:	6883      	ldr	r3, [r0, #8]
   d93fe:	42a3      	cmp	r3, r4
   d9400:	d103      	bne.n	d940a <_ZSt29_Rb_tree_insert_and_rebalancebPSt18_Rb_tree_node_baseS0_RS_+0x9c>
   d9402:	4641      	mov	r1, r8
   d9404:	f7ff ff72 	bl	d92ec <_ZStL26local_Rb_tree_rotate_rightPSt18_Rb_tree_node_baseRS0_>
   d9408:	4604      	mov	r4, r0
   d940a:	6863      	ldr	r3, [r4, #4]
   d940c:	4641      	mov	r1, r8
   d940e:	701f      	strb	r7, [r3, #0]
   d9410:	4628      	mov	r0, r5
   d9412:	f885 9000 	strb.w	r9, [r5]
   d9416:	f7ff ff54 	bl	d92c2 <_ZStL25local_Rb_tree_rotate_leftPSt18_Rb_tree_node_baseRS0_>
   d941a:	e7e9      	b.n	d93f0 <_ZSt29_Rb_tree_insert_and_rebalancebPSt18_Rb_tree_node_baseS0_RS_+0x82>
   d941c:	4623      	mov	r3, r4
   d941e:	2201      	movs	r2, #1
   d9420:	701a      	strb	r2, [r3, #0]
   d9422:	e8bd 83f8 	ldmia.w	sp!, {r3, r4, r5, r6, r7, r8, r9, pc}

000d9426 <_ZSt25__throw_bad_function_callv>:
   d9426:	b508      	push	{r3, lr}
   d9428:	f7fd fdc0 	bl	d6fac <abort>

000d942c <_ZNSt19_Sp_make_shared_tag5_S_eqERKSt9type_info>:
   d942c:	4901      	ldr	r1, [pc, #4]	; (d9434 <_ZNSt19_Sp_make_shared_tag5_S_eqERKSt9type_info+0x8>)
   d942e:	f000 b8f9 	b.w	d9624 <_ZNKSt9type_infoeqERKS_>
   d9432:	bf00      	nop
   d9434:	000dcd8c 	.word	0x000dcd8c

000d9438 <_ZNK10__cxxabiv117__class_type_info11__do_upcastEPKS0_PPv>:
   d9438:	b57f      	push	{r0, r1, r2, r3, r4, r5, r6, lr}
   d943a:	2400      	movs	r4, #0
   d943c:	2310      	movs	r3, #16
   d943e:	e9cd 3402 	strd	r3, r4, [sp, #8]
   d9442:	6803      	ldr	r3, [r0, #0]
   d9444:	9400      	str	r4, [sp, #0]
   d9446:	699e      	ldr	r6, [r3, #24]
   d9448:	f88d 4004 	strb.w	r4, [sp, #4]
   d944c:	4615      	mov	r5, r2
   d944e:	466b      	mov	r3, sp
   d9450:	6812      	ldr	r2, [r2, #0]
   d9452:	47b0      	blx	r6
   d9454:	f89d 3004 	ldrb.w	r3, [sp, #4]
   d9458:	f003 0306 	and.w	r3, r3, #6
   d945c:	2b06      	cmp	r3, #6
   d945e:	bf03      	ittte	eq
   d9460:	9b00      	ldreq	r3, [sp, #0]
   d9462:	602b      	streq	r3, [r5, #0]
   d9464:	2001      	moveq	r0, #1
   d9466:	4620      	movne	r0, r4
   d9468:	b004      	add	sp, #16
   d946a:	bd70      	pop	{r4, r5, r6, pc}

000d946c <_ZNK10__cxxabiv117__class_type_info20__do_find_public_srcEiPKvPKS0_S2_>:
   d946c:	9800      	ldr	r0, [sp, #0]
   d946e:	4290      	cmp	r0, r2
   d9470:	bf14      	ite	ne
   d9472:	2001      	movne	r0, #1
   d9474:	2006      	moveq	r0, #6
   d9476:	4770      	bx	lr

000d9478 <_ZN10__cxxabiv117__class_type_infoD1Ev>:
   d9478:	b510      	push	{r4, lr}
   d947a:	4b03      	ldr	r3, [pc, #12]	; (d9488 <_ZN10__cxxabiv117__class_type_infoD1Ev+0x10>)
   d947c:	6003      	str	r3, [r0, #0]
   d947e:	4604      	mov	r4, r0
   d9480:	f000 f8cd 	bl	d961e <_ZNSt9type_infoD1Ev>
   d9484:	4620      	mov	r0, r4
   d9486:	bd10      	pop	{r4, pc}
   d9488:	000dcdcc 	.word	0x000dcdcc

000d948c <_ZN10__cxxabiv117__class_type_infoD0Ev>:
   d948c:	b510      	push	{r4, lr}
   d948e:	4604      	mov	r4, r0
   d9490:	f7ff fff2 	bl	d9478 <_ZN10__cxxabiv117__class_type_infoD1Ev>
   d9494:	4620      	mov	r0, r4
   d9496:	2108      	movs	r1, #8
   d9498:	f7ff ff0d 	bl	d92b6 <_ZdlPvj>
   d949c:	4620      	mov	r0, r4
   d949e:	bd10      	pop	{r4, pc}

000d94a0 <_ZNK10__cxxabiv117__class_type_info12__do_dyncastEiNS0_10__sub_kindEPKS0_PKvS3_S5_RNS0_16__dyncast_resultE>:
   d94a0:	e92d 41f0 	stmdb	sp!, {r4, r5, r6, r7, r8, lr}
   d94a4:	461f      	mov	r7, r3
   d94a6:	e9dd 3408 	ldrd	r3, r4, [sp, #32]
   d94aa:	f8dd 8018 	ldr.w	r8, [sp, #24]
   d94ae:	4598      	cmp	r8, r3
   d94b0:	4606      	mov	r6, r0
   d94b2:	4615      	mov	r5, r2
   d94b4:	d107      	bne.n	d94c6 <_ZNK10__cxxabiv117__class_type_info12__do_dyncastEiNS0_10__sub_kindEPKS0_PKvS3_S5_RNS0_16__dyncast_resultE+0x26>
   d94b6:	9907      	ldr	r1, [sp, #28]
   d94b8:	f000 f8b4 	bl	d9624 <_ZNKSt9type_infoeqERKS_>
   d94bc:	b118      	cbz	r0, d94c6 <_ZNK10__cxxabiv117__class_type_info12__do_dyncastEiNS0_10__sub_kindEPKS0_PKvS3_S5_RNS0_16__dyncast_resultE+0x26>
   d94be:	7165      	strb	r5, [r4, #5]
   d94c0:	2000      	movs	r0, #0
   d94c2:	e8bd 81f0 	ldmia.w	sp!, {r4, r5, r6, r7, r8, pc}
   d94c6:	4639      	mov	r1, r7
   d94c8:	4630      	mov	r0, r6
   d94ca:	f000 f8ab 	bl	d9624 <_ZNKSt9type_infoeqERKS_>
   d94ce:	2800      	cmp	r0, #0
   d94d0:	d0f6      	beq.n	d94c0 <_ZNK10__cxxabiv117__class_type_info12__do_dyncastEiNS0_10__sub_kindEPKS0_PKvS3_S5_RNS0_16__dyncast_resultE+0x20>
   d94d2:	2301      	movs	r3, #1
   d94d4:	f8c4 8000 	str.w	r8, [r4]
   d94d8:	7125      	strb	r5, [r4, #4]
   d94da:	71a3      	strb	r3, [r4, #6]
   d94dc:	e7f0      	b.n	d94c0 <_ZNK10__cxxabiv117__class_type_info12__do_dyncastEiNS0_10__sub_kindEPKS0_PKvS3_S5_RNS0_16__dyncast_resultE+0x20>

000d94de <_ZNK10__cxxabiv117__class_type_info11__do_upcastEPKS0_PKvRNS0_15__upcast_resultE>:
   d94de:	b538      	push	{r3, r4, r5, lr}
   d94e0:	4615      	mov	r5, r2
   d94e2:	461c      	mov	r4, r3
   d94e4:	f000 f89e 	bl	d9624 <_ZNKSt9type_infoeqERKS_>
   d94e8:	b120      	cbz	r0, d94f4 <_ZNK10__cxxabiv117__class_type_info11__do_upcastEPKS0_PKvRNS0_15__upcast_resultE+0x16>
   d94ea:	2308      	movs	r3, #8
   d94ec:	60e3      	str	r3, [r4, #12]
   d94ee:	2306      	movs	r3, #6
   d94f0:	6025      	str	r5, [r4, #0]
   d94f2:	7123      	strb	r3, [r4, #4]
   d94f4:	bd38      	pop	{r3, r4, r5, pc}

000d94f6 <_ZNK10__cxxabiv117__class_type_info10__do_catchEPKSt9type_infoPPvj>:
   d94f6:	b573      	push	{r0, r1, r4, r5, r6, lr}
   d94f8:	4605      	mov	r5, r0
   d94fa:	460c      	mov	r4, r1
   d94fc:	9201      	str	r2, [sp, #4]
   d94fe:	461e      	mov	r6, r3
   d9500:	f000 f890 	bl	d9624 <_ZNKSt9type_infoeqERKS_>
   d9504:	b950      	cbnz	r0, d951c <_ZNK10__cxxabiv117__class_type_info10__do_catchEPKSt9type_infoPPvj+0x26>
   d9506:	2e03      	cmp	r6, #3
   d9508:	d808      	bhi.n	d951c <_ZNK10__cxxabiv117__class_type_info10__do_catchEPKSt9type_infoPPvj+0x26>
   d950a:	6823      	ldr	r3, [r4, #0]
   d950c:	9a01      	ldr	r2, [sp, #4]
   d950e:	695b      	ldr	r3, [r3, #20]
   d9510:	4629      	mov	r1, r5
   d9512:	4620      	mov	r0, r4
   d9514:	b002      	add	sp, #8
   d9516:	e8bd 4070 	ldmia.w	sp!, {r4, r5, r6, lr}
   d951a:	4718      	bx	r3
   d951c:	b002      	add	sp, #8
   d951e:	bd70      	pop	{r4, r5, r6, pc}

000d9520 <_ZN10__cxxabiv120__si_class_type_infoD1Ev>:
   d9520:	b510      	push	{r4, lr}
   d9522:	4b03      	ldr	r3, [pc, #12]	; (d9530 <_ZN10__cxxabiv120__si_class_type_infoD1Ev+0x10>)
   d9524:	6003      	str	r3, [r0, #0]
   d9526:	4604      	mov	r4, r0
   d9528:	f7ff ffa6 	bl	d9478 <_ZN10__cxxabiv117__class_type_infoD1Ev>
   d952c:	4620      	mov	r0, r4
   d952e:	bd10      	pop	{r4, pc}
   d9530:	000dce2c 	.word	0x000dce2c

000d9534 <_ZN10__cxxabiv120__si_class_type_infoD0Ev>:
   d9534:	b510      	push	{r4, lr}
   d9536:	4604      	mov	r4, r0
   d9538:	f7ff fff2 	bl	d9520 <_ZN10__cxxabiv120__si_class_type_infoD1Ev>
   d953c:	4620      	mov	r0, r4
   d953e:	210c      	movs	r1, #12
   d9540:	f7ff feb9 	bl	d92b6 <_ZdlPvj>
   d9544:	4620      	mov	r0, r4
   d9546:	bd10      	pop	{r4, pc}

000d9548 <_ZNK10__cxxabiv120__si_class_type_info20__do_find_public_srcEiPKvPKNS_17__class_type_infoES2_>:
   d9548:	b5f7      	push	{r0, r1, r2, r4, r5, r6, r7, lr}
   d954a:	9f08      	ldr	r7, [sp, #32]
   d954c:	4297      	cmp	r7, r2
   d954e:	4605      	mov	r5, r0
   d9550:	460e      	mov	r6, r1
   d9552:	4614      	mov	r4, r2
   d9554:	d00a      	beq.n	d956c <_ZNK10__cxxabiv120__si_class_type_info20__do_find_public_srcEiPKvPKNS_17__class_type_infoES2_+0x24>
   d9556:	68a8      	ldr	r0, [r5, #8]
   d9558:	6802      	ldr	r2, [r0, #0]
   d955a:	9708      	str	r7, [sp, #32]
   d955c:	6a15      	ldr	r5, [r2, #32]
   d955e:	4631      	mov	r1, r6
   d9560:	4622      	mov	r2, r4
   d9562:	46ac      	mov	ip, r5
   d9564:	b003      	add	sp, #12
   d9566:	e8bd 40f0 	ldmia.w	sp!, {r4, r5, r6, r7, lr}
   d956a:	4760      	bx	ip
   d956c:	4619      	mov	r1, r3
   d956e:	9301      	str	r3, [sp, #4]
   d9570:	f000 f858 	bl	d9624 <_ZNKSt9type_infoeqERKS_>
   d9574:	9b01      	ldr	r3, [sp, #4]
   d9576:	2800      	cmp	r0, #0
   d9578:	d0ed      	beq.n	d9556 <_ZNK10__cxxabiv120__si_class_type_info20__do_find_public_srcEiPKvPKNS_17__class_type_infoES2_+0xe>
   d957a:	2006      	movs	r0, #6
   d957c:	b003      	add	sp, #12
   d957e:	bdf0      	pop	{r4, r5, r6, r7, pc}

000d9580 <_ZNK10__cxxabiv120__si_class_type_info12__do_dyncastEiNS_17__class_type_info10__sub_kindEPKS1_PKvS4_S6_RNS1_16__dyncast_resultE>:
   d9580:	e92d 4ff1 	stmdb	sp!, {r0, r4, r5, r6, r7, r8, r9, sl, fp, lr}
   d9584:	460d      	mov	r5, r1
   d9586:	4619      	mov	r1, r3
   d9588:	e9dd 4b0a 	ldrd	r4, fp, [sp, #40]	; 0x28
   d958c:	e9dd a60c 	ldrd	sl, r6, [sp, #48]	; 0x30
   d9590:	4681      	mov	r9, r0
   d9592:	4617      	mov	r7, r2
   d9594:	4698      	mov	r8, r3
   d9596:	f000 f845 	bl	d9624 <_ZNKSt9type_infoeqERKS_>
   d959a:	b190      	cbz	r0, d95c2 <_ZNK10__cxxabiv120__si_class_type_info12__do_dyncastEiNS_17__class_type_info10__sub_kindEPKS1_PKvS4_S6_RNS1_16__dyncast_resultE+0x42>
   d959c:	2d00      	cmp	r5, #0
   d959e:	6034      	str	r4, [r6, #0]
   d95a0:	7137      	strb	r7, [r6, #4]
   d95a2:	db09      	blt.n	d95b8 <_ZNK10__cxxabiv120__si_class_type_info12__do_dyncastEiNS_17__class_type_info10__sub_kindEPKS1_PKvS4_S6_RNS1_16__dyncast_resultE+0x38>
   d95a4:	1961      	adds	r1, r4, r5
   d95a6:	458a      	cmp	sl, r1
   d95a8:	bf0c      	ite	eq
   d95aa:	2106      	moveq	r1, #6
   d95ac:	2101      	movne	r1, #1
   d95ae:	71b1      	strb	r1, [r6, #6]
   d95b0:	2000      	movs	r0, #0
   d95b2:	b001      	add	sp, #4
   d95b4:	e8bd 8ff0 	ldmia.w	sp!, {r4, r5, r6, r7, r8, r9, sl, fp, pc}
   d95b8:	3502      	adds	r5, #2
   d95ba:	d1f9      	bne.n	d95b0 <_ZNK10__cxxabiv120__si_class_type_info12__do_dyncastEiNS_17__class_type_info10__sub_kindEPKS1_PKvS4_S6_RNS1_16__dyncast_resultE+0x30>
   d95bc:	2301      	movs	r3, #1
   d95be:	71b3      	strb	r3, [r6, #6]
   d95c0:	e7f6      	b.n	d95b0 <_ZNK10__cxxabiv120__si_class_type_info12__do_dyncastEiNS_17__class_type_info10__sub_kindEPKS1_PKvS4_S6_RNS1_16__dyncast_resultE+0x30>
   d95c2:	4554      	cmp	r4, sl
   d95c4:	d106      	bne.n	d95d4 <_ZNK10__cxxabiv120__si_class_type_info12__do_dyncastEiNS_17__class_type_info10__sub_kindEPKS1_PKvS4_S6_RNS1_16__dyncast_resultE+0x54>
   d95c6:	4659      	mov	r1, fp
   d95c8:	4648      	mov	r0, r9
   d95ca:	f000 f82b 	bl	d9624 <_ZNKSt9type_infoeqERKS_>
   d95ce:	b108      	cbz	r0, d95d4 <_ZNK10__cxxabiv120__si_class_type_info12__do_dyncastEiNS_17__class_type_info10__sub_kindEPKS1_PKvS4_S6_RNS1_16__dyncast_resultE+0x54>
   d95d0:	7177      	strb	r7, [r6, #5]
   d95d2:	e7ed      	b.n	d95b0 <_ZNK10__cxxabiv120__si_class_type_info12__do_dyncastEiNS_17__class_type_info10__sub_kindEPKS1_PKvS4_S6_RNS1_16__dyncast_resultE+0x30>
   d95d4:	f8d9 0008 	ldr.w	r0, [r9, #8]
   d95d8:	6803      	ldr	r3, [r0, #0]
   d95da:	e9cd a60c 	strd	sl, r6, [sp, #48]	; 0x30
   d95de:	e9cd 4b0a 	strd	r4, fp, [sp, #40]	; 0x28
   d95e2:	69dc      	ldr	r4, [r3, #28]
   d95e4:	463a      	mov	r2, r7
   d95e6:	4643      	mov	r3, r8
   d95e8:	4629      	mov	r1, r5
   d95ea:	46a4      	mov	ip, r4
   d95ec:	b001      	add	sp, #4
   d95ee:	e8bd 4ff0 	ldmia.w	sp!, {r4, r5, r6, r7, r8, r9, sl, fp, lr}
   d95f2:	4760      	bx	ip

000d95f4 <_ZNK10__cxxabiv120__si_class_type_info11__do_upcastEPKNS_17__class_type_infoEPKvRNS1_15__upcast_resultE>:
   d95f4:	e92d 41f0 	stmdb	sp!, {r4, r5, r6, r7, r8, lr}
   d95f8:	4607      	mov	r7, r0
   d95fa:	460c      	mov	r4, r1
   d95fc:	4615      	mov	r5, r2
   d95fe:	461e      	mov	r6, r3
   d9600:	f7ff ff6d 	bl	d94de <_ZNK10__cxxabiv117__class_type_info11__do_upcastEPKS0_PKvRNS0_15__upcast_resultE>
   d9604:	b948      	cbnz	r0, d961a <_ZNK10__cxxabiv120__si_class_type_info11__do_upcastEPKNS_17__class_type_infoEPKvRNS1_15__upcast_resultE+0x26>
   d9606:	68b8      	ldr	r0, [r7, #8]
   d9608:	6803      	ldr	r3, [r0, #0]
   d960a:	699f      	ldr	r7, [r3, #24]
   d960c:	462a      	mov	r2, r5
   d960e:	4633      	mov	r3, r6
   d9610:	4621      	mov	r1, r4
   d9612:	46bc      	mov	ip, r7
   d9614:	e8bd 41f0 	ldmia.w	sp!, {r4, r5, r6, r7, r8, lr}
   d9618:	4760      	bx	ip
   d961a:	e8bd 81f0 	ldmia.w	sp!, {r4, r5, r6, r7, r8, pc}

000d961e <_ZNSt9type_infoD1Ev>:
   d961e:	4770      	bx	lr

000d9620 <_ZNKSt9type_info14__is_pointer_pEv>:
   d9620:	2000      	movs	r0, #0
   d9622:	4770      	bx	lr

000d9624 <_ZNKSt9type_infoeqERKS_>:
   d9624:	4281      	cmp	r1, r0
   d9626:	b508      	push	{r3, lr}
   d9628:	d00e      	beq.n	d9648 <_ZNKSt9type_infoeqERKS_+0x24>
   d962a:	6840      	ldr	r0, [r0, #4]
   d962c:	7803      	ldrb	r3, [r0, #0]
   d962e:	2b2a      	cmp	r3, #42	; 0x2a
   d9630:	d00c      	beq.n	d964c <_ZNKSt9type_infoeqERKS_+0x28>
   d9632:	6849      	ldr	r1, [r1, #4]
   d9634:	780b      	ldrb	r3, [r1, #0]
   d9636:	2b2a      	cmp	r3, #42	; 0x2a
   d9638:	bf08      	it	eq
   d963a:	3101      	addeq	r1, #1
   d963c:	f000 fefb 	bl	da436 <strcmp>
   d9640:	fab0 f080 	clz	r0, r0
   d9644:	0940      	lsrs	r0, r0, #5
   d9646:	bd08      	pop	{r3, pc}
   d9648:	2001      	movs	r0, #1
   d964a:	e7fc      	b.n	d9646 <_ZNKSt9type_infoeqERKS_+0x22>
   d964c:	2000      	movs	r0, #0
   d964e:	e7fa      	b.n	d9646 <_ZNKSt9type_infoeqERKS_+0x22>

000d9650 <nan>:
   d9650:	ed9f 0b01 	vldr	d0, [pc, #4]	; d9658 <nan+0x8>
   d9654:	4770      	bx	lr
   d9656:	bf00      	nop
   d9658:	00000000 	.word	0x00000000
   d965c:	7ff80000 	.word	0x7ff80000

000d9660 <__aeabi_drsub>:
   d9660:	f081 4100 	eor.w	r1, r1, #2147483648	; 0x80000000
   d9664:	e002      	b.n	d966c <__adddf3>
   d9666:	bf00      	nop

000d9668 <__aeabi_dsub>:
   d9668:	f083 4300 	eor.w	r3, r3, #2147483648	; 0x80000000

000d966c <__adddf3>:
   d966c:	b530      	push	{r4, r5, lr}
   d966e:	ea4f 0441 	mov.w	r4, r1, lsl #1
   d9672:	ea4f 0543 	mov.w	r5, r3, lsl #1
   d9676:	ea94 0f05 	teq	r4, r5
   d967a:	bf08      	it	eq
   d967c:	ea90 0f02 	teqeq	r0, r2
   d9680:	bf1f      	itttt	ne
   d9682:	ea54 0c00 	orrsne.w	ip, r4, r0
   d9686:	ea55 0c02 	orrsne.w	ip, r5, r2
   d968a:	ea7f 5c64 	mvnsne.w	ip, r4, asr #21
   d968e:	ea7f 5c65 	mvnsne.w	ip, r5, asr #21
   d9692:	f000 80e2 	beq.w	d985a <__adddf3+0x1ee>
   d9696:	ea4f 5454 	mov.w	r4, r4, lsr #21
   d969a:	ebd4 5555 	rsbs	r5, r4, r5, lsr #21
   d969e:	bfb8      	it	lt
   d96a0:	426d      	neglt	r5, r5
   d96a2:	dd0c      	ble.n	d96be <__adddf3+0x52>
   d96a4:	442c      	add	r4, r5
   d96a6:	ea80 0202 	eor.w	r2, r0, r2
   d96aa:	ea81 0303 	eor.w	r3, r1, r3
   d96ae:	ea82 0000 	eor.w	r0, r2, r0
   d96b2:	ea83 0101 	eor.w	r1, r3, r1
   d96b6:	ea80 0202 	eor.w	r2, r0, r2
   d96ba:	ea81 0303 	eor.w	r3, r1, r3
   d96be:	2d36      	cmp	r5, #54	; 0x36
   d96c0:	bf88      	it	hi
   d96c2:	bd30      	pophi	{r4, r5, pc}
   d96c4:	f011 4f00 	tst.w	r1, #2147483648	; 0x80000000
   d96c8:	ea4f 3101 	mov.w	r1, r1, lsl #12
   d96cc:	f44f 1c80 	mov.w	ip, #1048576	; 0x100000
   d96d0:	ea4c 3111 	orr.w	r1, ip, r1, lsr #12
   d96d4:	d002      	beq.n	d96dc <__adddf3+0x70>
   d96d6:	4240      	negs	r0, r0
   d96d8:	eb61 0141 	sbc.w	r1, r1, r1, lsl #1
   d96dc:	f013 4f00 	tst.w	r3, #2147483648	; 0x80000000
   d96e0:	ea4f 3303 	mov.w	r3, r3, lsl #12
   d96e4:	ea4c 3313 	orr.w	r3, ip, r3, lsr #12
   d96e8:	d002      	beq.n	d96f0 <__adddf3+0x84>
   d96ea:	4252      	negs	r2, r2
   d96ec:	eb63 0343 	sbc.w	r3, r3, r3, lsl #1
   d96f0:	ea94 0f05 	teq	r4, r5
   d96f4:	f000 80a7 	beq.w	d9846 <__adddf3+0x1da>
   d96f8:	f1a4 0401 	sub.w	r4, r4, #1
   d96fc:	f1d5 0e20 	rsbs	lr, r5, #32
   d9700:	db0d      	blt.n	d971e <__adddf3+0xb2>
   d9702:	fa02 fc0e 	lsl.w	ip, r2, lr
   d9706:	fa22 f205 	lsr.w	r2, r2, r5
   d970a:	1880      	adds	r0, r0, r2
   d970c:	f141 0100 	adc.w	r1, r1, #0
   d9710:	fa03 f20e 	lsl.w	r2, r3, lr
   d9714:	1880      	adds	r0, r0, r2
   d9716:	fa43 f305 	asr.w	r3, r3, r5
   d971a:	4159      	adcs	r1, r3
   d971c:	e00e      	b.n	d973c <__adddf3+0xd0>
   d971e:	f1a5 0520 	sub.w	r5, r5, #32
   d9722:	f10e 0e20 	add.w	lr, lr, #32
   d9726:	2a01      	cmp	r2, #1
   d9728:	fa03 fc0e 	lsl.w	ip, r3, lr
   d972c:	bf28      	it	cs
   d972e:	f04c 0c02 	orrcs.w	ip, ip, #2
   d9732:	fa43 f305 	asr.w	r3, r3, r5
   d9736:	18c0      	adds	r0, r0, r3
   d9738:	eb51 71e3 	adcs.w	r1, r1, r3, asr #31
   d973c:	f001 4500 	and.w	r5, r1, #2147483648	; 0x80000000
   d9740:	d507      	bpl.n	d9752 <__adddf3+0xe6>
   d9742:	f04f 0e00 	mov.w	lr, #0
   d9746:	f1dc 0c00 	rsbs	ip, ip, #0
   d974a:	eb7e 0000 	sbcs.w	r0, lr, r0
   d974e:	eb6e 0101 	sbc.w	r1, lr, r1
   d9752:	f5b1 1f80 	cmp.w	r1, #1048576	; 0x100000
   d9756:	d31b      	bcc.n	d9790 <__adddf3+0x124>
   d9758:	f5b1 1f00 	cmp.w	r1, #2097152	; 0x200000
   d975c:	d30c      	bcc.n	d9778 <__adddf3+0x10c>
   d975e:	0849      	lsrs	r1, r1, #1
   d9760:	ea5f 0030 	movs.w	r0, r0, rrx
   d9764:	ea4f 0c3c 	mov.w	ip, ip, rrx
   d9768:	f104 0401 	add.w	r4, r4, #1
   d976c:	ea4f 5244 	mov.w	r2, r4, lsl #21
   d9770:	f512 0f80 	cmn.w	r2, #4194304	; 0x400000
   d9774:	f080 809a 	bcs.w	d98ac <__adddf3+0x240>
   d9778:	f1bc 4f00 	cmp.w	ip, #2147483648	; 0x80000000
   d977c:	bf08      	it	eq
   d977e:	ea5f 0c50 	movseq.w	ip, r0, lsr #1
   d9782:	f150 0000 	adcs.w	r0, r0, #0
   d9786:	eb41 5104 	adc.w	r1, r1, r4, lsl #20
   d978a:	ea41 0105 	orr.w	r1, r1, r5
   d978e:	bd30      	pop	{r4, r5, pc}
   d9790:	ea5f 0c4c 	movs.w	ip, ip, lsl #1
   d9794:	4140      	adcs	r0, r0
   d9796:	eb41 0101 	adc.w	r1, r1, r1
   d979a:	3c01      	subs	r4, #1
   d979c:	bf28      	it	cs
   d979e:	f5b1 1f80 	cmpcs.w	r1, #1048576	; 0x100000
   d97a2:	d2e9      	bcs.n	d9778 <__adddf3+0x10c>
   d97a4:	f091 0f00 	teq	r1, #0
   d97a8:	bf04      	itt	eq
   d97aa:	4601      	moveq	r1, r0
   d97ac:	2000      	moveq	r0, #0
   d97ae:	fab1 f381 	clz	r3, r1
   d97b2:	bf08      	it	eq
   d97b4:	3320      	addeq	r3, #32
   d97b6:	f1a3 030b 	sub.w	r3, r3, #11
   d97ba:	f1b3 0220 	subs.w	r2, r3, #32
   d97be:	da0c      	bge.n	d97da <__adddf3+0x16e>
   d97c0:	320c      	adds	r2, #12
   d97c2:	dd08      	ble.n	d97d6 <__adddf3+0x16a>
   d97c4:	f102 0c14 	add.w	ip, r2, #20
   d97c8:	f1c2 020c 	rsb	r2, r2, #12
   d97cc:	fa01 f00c 	lsl.w	r0, r1, ip
   d97d0:	fa21 f102 	lsr.w	r1, r1, r2
   d97d4:	e00c      	b.n	d97f0 <__adddf3+0x184>
   d97d6:	f102 0214 	add.w	r2, r2, #20
   d97da:	bfd8      	it	le
   d97dc:	f1c2 0c20 	rsble	ip, r2, #32
   d97e0:	fa01 f102 	lsl.w	r1, r1, r2
   d97e4:	fa20 fc0c 	lsr.w	ip, r0, ip
   d97e8:	bfdc      	itt	le
   d97ea:	ea41 010c 	orrle.w	r1, r1, ip
   d97ee:	4090      	lslle	r0, r2
   d97f0:	1ae4      	subs	r4, r4, r3
   d97f2:	bfa2      	ittt	ge
   d97f4:	eb01 5104 	addge.w	r1, r1, r4, lsl #20
   d97f8:	4329      	orrge	r1, r5
   d97fa:	bd30      	popge	{r4, r5, pc}
   d97fc:	ea6f 0404 	mvn.w	r4, r4
   d9800:	3c1f      	subs	r4, #31
   d9802:	da1c      	bge.n	d983e <__adddf3+0x1d2>
   d9804:	340c      	adds	r4, #12
   d9806:	dc0e      	bgt.n	d9826 <__adddf3+0x1ba>
   d9808:	f104 0414 	add.w	r4, r4, #20
   d980c:	f1c4 0220 	rsb	r2, r4, #32
   d9810:	fa20 f004 	lsr.w	r0, r0, r4
   d9814:	fa01 f302 	lsl.w	r3, r1, r2
   d9818:	ea40 0003 	orr.w	r0, r0, r3
   d981c:	fa21 f304 	lsr.w	r3, r1, r4
   d9820:	ea45 0103 	orr.w	r1, r5, r3
   d9824:	bd30      	pop	{r4, r5, pc}
   d9826:	f1c4 040c 	rsb	r4, r4, #12
   d982a:	f1c4 0220 	rsb	r2, r4, #32
   d982e:	fa20 f002 	lsr.w	r0, r0, r2
   d9832:	fa01 f304 	lsl.w	r3, r1, r4
   d9836:	ea40 0003 	orr.w	r0, r0, r3
   d983a:	4629      	mov	r1, r5
   d983c:	bd30      	pop	{r4, r5, pc}
   d983e:	fa21 f004 	lsr.w	r0, r1, r4
   d9842:	4629      	mov	r1, r5
   d9844:	bd30      	pop	{r4, r5, pc}
   d9846:	f094 0f00 	teq	r4, #0
   d984a:	f483 1380 	eor.w	r3, r3, #1048576	; 0x100000
   d984e:	bf06      	itte	eq
   d9850:	f481 1180 	eoreq.w	r1, r1, #1048576	; 0x100000
   d9854:	3401      	addeq	r4, #1
   d9856:	3d01      	subne	r5, #1
   d9858:	e74e      	b.n	d96f8 <__adddf3+0x8c>
   d985a:	ea7f 5c64 	mvns.w	ip, r4, asr #21
   d985e:	bf18      	it	ne
   d9860:	ea7f 5c65 	mvnsne.w	ip, r5, asr #21
   d9864:	d029      	beq.n	d98ba <__adddf3+0x24e>
   d9866:	ea94 0f05 	teq	r4, r5
   d986a:	bf08      	it	eq
   d986c:	ea90 0f02 	teqeq	r0, r2
   d9870:	d005      	beq.n	d987e <__adddf3+0x212>
   d9872:	ea54 0c00 	orrs.w	ip, r4, r0
   d9876:	bf04      	itt	eq
   d9878:	4619      	moveq	r1, r3
   d987a:	4610      	moveq	r0, r2
   d987c:	bd30      	pop	{r4, r5, pc}
   d987e:	ea91 0f03 	teq	r1, r3
   d9882:	bf1e      	ittt	ne
   d9884:	2100      	movne	r1, #0
   d9886:	2000      	movne	r0, #0
   d9888:	bd30      	popne	{r4, r5, pc}
   d988a:	ea5f 5c54 	movs.w	ip, r4, lsr #21
   d988e:	d105      	bne.n	d989c <__adddf3+0x230>
   d9890:	0040      	lsls	r0, r0, #1
   d9892:	4149      	adcs	r1, r1
   d9894:	bf28      	it	cs
   d9896:	f041 4100 	orrcs.w	r1, r1, #2147483648	; 0x80000000
   d989a:	bd30      	pop	{r4, r5, pc}
   d989c:	f514 0480 	adds.w	r4, r4, #4194304	; 0x400000
   d98a0:	bf3c      	itt	cc
   d98a2:	f501 1180 	addcc.w	r1, r1, #1048576	; 0x100000
   d98a6:	bd30      	popcc	{r4, r5, pc}
   d98a8:	f001 4500 	and.w	r5, r1, #2147483648	; 0x80000000
   d98ac:	f045 41fe 	orr.w	r1, r5, #2130706432	; 0x7f000000
   d98b0:	f441 0170 	orr.w	r1, r1, #15728640	; 0xf00000
   d98b4:	f04f 0000 	mov.w	r0, #0
   d98b8:	bd30      	pop	{r4, r5, pc}
   d98ba:	ea7f 5c64 	mvns.w	ip, r4, asr #21
   d98be:	bf1a      	itte	ne
   d98c0:	4619      	movne	r1, r3
   d98c2:	4610      	movne	r0, r2
   d98c4:	ea7f 5c65 	mvnseq.w	ip, r5, asr #21
   d98c8:	bf1c      	itt	ne
   d98ca:	460b      	movne	r3, r1
   d98cc:	4602      	movne	r2, r0
   d98ce:	ea50 3401 	orrs.w	r4, r0, r1, lsl #12
   d98d2:	bf06      	itte	eq
   d98d4:	ea52 3503 	orrseq.w	r5, r2, r3, lsl #12
   d98d8:	ea91 0f03 	teqeq	r1, r3
   d98dc:	f441 2100 	orrne.w	r1, r1, #524288	; 0x80000
   d98e0:	bd30      	pop	{r4, r5, pc}
   d98e2:	bf00      	nop

000d98e4 <__aeabi_ui2d>:
   d98e4:	f090 0f00 	teq	r0, #0
   d98e8:	bf04      	itt	eq
   d98ea:	2100      	moveq	r1, #0
   d98ec:	4770      	bxeq	lr
   d98ee:	b530      	push	{r4, r5, lr}
   d98f0:	f44f 6480 	mov.w	r4, #1024	; 0x400
   d98f4:	f104 0432 	add.w	r4, r4, #50	; 0x32
   d98f8:	f04f 0500 	mov.w	r5, #0
   d98fc:	f04f 0100 	mov.w	r1, #0
   d9900:	e750      	b.n	d97a4 <__adddf3+0x138>
   d9902:	bf00      	nop

000d9904 <__aeabi_i2d>:
   d9904:	f090 0f00 	teq	r0, #0
   d9908:	bf04      	itt	eq
   d990a:	2100      	moveq	r1, #0
   d990c:	4770      	bxeq	lr
   d990e:	b530      	push	{r4, r5, lr}
   d9910:	f44f 6480 	mov.w	r4, #1024	; 0x400
   d9914:	f104 0432 	add.w	r4, r4, #50	; 0x32
   d9918:	f010 4500 	ands.w	r5, r0, #2147483648	; 0x80000000
   d991c:	bf48      	it	mi
   d991e:	4240      	negmi	r0, r0
   d9920:	f04f 0100 	mov.w	r1, #0
   d9924:	e73e      	b.n	d97a4 <__adddf3+0x138>
   d9926:	bf00      	nop

000d9928 <__aeabi_f2d>:
   d9928:	0042      	lsls	r2, r0, #1
   d992a:	ea4f 01e2 	mov.w	r1, r2, asr #3
   d992e:	ea4f 0131 	mov.w	r1, r1, rrx
   d9932:	ea4f 7002 	mov.w	r0, r2, lsl #28
   d9936:	bf1f      	itttt	ne
   d9938:	f012 437f 	andsne.w	r3, r2, #4278190080	; 0xff000000
   d993c:	f093 4f7f 	teqne	r3, #4278190080	; 0xff000000
   d9940:	f081 5160 	eorne.w	r1, r1, #939524096	; 0x38000000
   d9944:	4770      	bxne	lr
   d9946:	f032 427f 	bics.w	r2, r2, #4278190080	; 0xff000000
   d994a:	bf08      	it	eq
   d994c:	4770      	bxeq	lr
   d994e:	f093 4f7f 	teq	r3, #4278190080	; 0xff000000
   d9952:	bf04      	itt	eq
   d9954:	f441 2100 	orreq.w	r1, r1, #524288	; 0x80000
   d9958:	4770      	bxeq	lr
   d995a:	b530      	push	{r4, r5, lr}
   d995c:	f44f 7460 	mov.w	r4, #896	; 0x380
   d9960:	f001 4500 	and.w	r5, r1, #2147483648	; 0x80000000
   d9964:	f021 4100 	bic.w	r1, r1, #2147483648	; 0x80000000
   d9968:	e71c      	b.n	d97a4 <__adddf3+0x138>
   d996a:	bf00      	nop

000d996c <__aeabi_ul2d>:
   d996c:	ea50 0201 	orrs.w	r2, r0, r1
   d9970:	bf08      	it	eq
   d9972:	4770      	bxeq	lr
   d9974:	b530      	push	{r4, r5, lr}
   d9976:	f04f 0500 	mov.w	r5, #0
   d997a:	e00a      	b.n	d9992 <__aeabi_l2d+0x16>

000d997c <__aeabi_l2d>:
   d997c:	ea50 0201 	orrs.w	r2, r0, r1
   d9980:	bf08      	it	eq
   d9982:	4770      	bxeq	lr
   d9984:	b530      	push	{r4, r5, lr}
   d9986:	f011 4500 	ands.w	r5, r1, #2147483648	; 0x80000000
   d998a:	d502      	bpl.n	d9992 <__aeabi_l2d+0x16>
   d998c:	4240      	negs	r0, r0
   d998e:	eb61 0141 	sbc.w	r1, r1, r1, lsl #1
   d9992:	f44f 6480 	mov.w	r4, #1024	; 0x400
   d9996:	f104 0432 	add.w	r4, r4, #50	; 0x32
   d999a:	ea5f 5c91 	movs.w	ip, r1, lsr #22
   d999e:	f43f aed8 	beq.w	d9752 <__adddf3+0xe6>
   d99a2:	f04f 0203 	mov.w	r2, #3
   d99a6:	ea5f 0cdc 	movs.w	ip, ip, lsr #3
   d99aa:	bf18      	it	ne
   d99ac:	3203      	addne	r2, #3
   d99ae:	ea5f 0cdc 	movs.w	ip, ip, lsr #3
   d99b2:	bf18      	it	ne
   d99b4:	3203      	addne	r2, #3
   d99b6:	eb02 02dc 	add.w	r2, r2, ip, lsr #3
   d99ba:	f1c2 0320 	rsb	r3, r2, #32
   d99be:	fa00 fc03 	lsl.w	ip, r0, r3
   d99c2:	fa20 f002 	lsr.w	r0, r0, r2
   d99c6:	fa01 fe03 	lsl.w	lr, r1, r3
   d99ca:	ea40 000e 	orr.w	r0, r0, lr
   d99ce:	fa21 f102 	lsr.w	r1, r1, r2
   d99d2:	4414      	add	r4, r2
   d99d4:	e6bd      	b.n	d9752 <__adddf3+0xe6>
   d99d6:	bf00      	nop

000d99d8 <__aeabi_dmul>:
   d99d8:	b570      	push	{r4, r5, r6, lr}
   d99da:	f04f 0cff 	mov.w	ip, #255	; 0xff
   d99de:	f44c 6ce0 	orr.w	ip, ip, #1792	; 0x700
   d99e2:	ea1c 5411 	ands.w	r4, ip, r1, lsr #20
   d99e6:	bf1d      	ittte	ne
   d99e8:	ea1c 5513 	andsne.w	r5, ip, r3, lsr #20
   d99ec:	ea94 0f0c 	teqne	r4, ip
   d99f0:	ea95 0f0c 	teqne	r5, ip
   d99f4:	f000 f8de 	bleq	d9bb4 <__aeabi_dmul+0x1dc>
   d99f8:	442c      	add	r4, r5
   d99fa:	ea81 0603 	eor.w	r6, r1, r3
   d99fe:	ea21 514c 	bic.w	r1, r1, ip, lsl #21
   d9a02:	ea23 534c 	bic.w	r3, r3, ip, lsl #21
   d9a06:	ea50 3501 	orrs.w	r5, r0, r1, lsl #12
   d9a0a:	bf18      	it	ne
   d9a0c:	ea52 3503 	orrsne.w	r5, r2, r3, lsl #12
   d9a10:	f441 1180 	orr.w	r1, r1, #1048576	; 0x100000
   d9a14:	f443 1380 	orr.w	r3, r3, #1048576	; 0x100000
   d9a18:	d038      	beq.n	d9a8c <__aeabi_dmul+0xb4>
   d9a1a:	fba0 ce02 	umull	ip, lr, r0, r2
   d9a1e:	f04f 0500 	mov.w	r5, #0
   d9a22:	fbe1 e502 	umlal	lr, r5, r1, r2
   d9a26:	f006 4200 	and.w	r2, r6, #2147483648	; 0x80000000
   d9a2a:	fbe0 e503 	umlal	lr, r5, r0, r3
   d9a2e:	f04f 0600 	mov.w	r6, #0
   d9a32:	fbe1 5603 	umlal	r5, r6, r1, r3
   d9a36:	f09c 0f00 	teq	ip, #0
   d9a3a:	bf18      	it	ne
   d9a3c:	f04e 0e01 	orrne.w	lr, lr, #1
   d9a40:	f1a4 04ff 	sub.w	r4, r4, #255	; 0xff
   d9a44:	f5b6 7f00 	cmp.w	r6, #512	; 0x200
   d9a48:	f564 7440 	sbc.w	r4, r4, #768	; 0x300
   d9a4c:	d204      	bcs.n	d9a58 <__aeabi_dmul+0x80>
   d9a4e:	ea5f 0e4e 	movs.w	lr, lr, lsl #1
   d9a52:	416d      	adcs	r5, r5
   d9a54:	eb46 0606 	adc.w	r6, r6, r6
   d9a58:	ea42 21c6 	orr.w	r1, r2, r6, lsl #11
   d9a5c:	ea41 5155 	orr.w	r1, r1, r5, lsr #21
   d9a60:	ea4f 20c5 	mov.w	r0, r5, lsl #11
   d9a64:	ea40 505e 	orr.w	r0, r0, lr, lsr #21
   d9a68:	ea4f 2ece 	mov.w	lr, lr, lsl #11
   d9a6c:	f1b4 0cfd 	subs.w	ip, r4, #253	; 0xfd
   d9a70:	bf88      	it	hi
   d9a72:	f5bc 6fe0 	cmphi.w	ip, #1792	; 0x700
   d9a76:	d81e      	bhi.n	d9ab6 <__aeabi_dmul+0xde>
   d9a78:	f1be 4f00 	cmp.w	lr, #2147483648	; 0x80000000
   d9a7c:	bf08      	it	eq
   d9a7e:	ea5f 0e50 	movseq.w	lr, r0, lsr #1
   d9a82:	f150 0000 	adcs.w	r0, r0, #0
   d9a86:	eb41 5104 	adc.w	r1, r1, r4, lsl #20
   d9a8a:	bd70      	pop	{r4, r5, r6, pc}
   d9a8c:	f006 4600 	and.w	r6, r6, #2147483648	; 0x80000000
   d9a90:	ea46 0101 	orr.w	r1, r6, r1
   d9a94:	ea40 0002 	orr.w	r0, r0, r2
   d9a98:	ea81 0103 	eor.w	r1, r1, r3
   d9a9c:	ebb4 045c 	subs.w	r4, r4, ip, lsr #1
   d9aa0:	bfc2      	ittt	gt
   d9aa2:	ebd4 050c 	rsbsgt	r5, r4, ip
   d9aa6:	ea41 5104 	orrgt.w	r1, r1, r4, lsl #20
   d9aaa:	bd70      	popgt	{r4, r5, r6, pc}
   d9aac:	f441 1180 	orr.w	r1, r1, #1048576	; 0x100000
   d9ab0:	f04f 0e00 	mov.w	lr, #0
   d9ab4:	3c01      	subs	r4, #1
   d9ab6:	f300 80ab 	bgt.w	d9c10 <__aeabi_dmul+0x238>
   d9aba:	f114 0f36 	cmn.w	r4, #54	; 0x36
   d9abe:	bfde      	ittt	le
   d9ac0:	2000      	movle	r0, #0
   d9ac2:	f001 4100 	andle.w	r1, r1, #2147483648	; 0x80000000
   d9ac6:	bd70      	pople	{r4, r5, r6, pc}
   d9ac8:	f1c4 0400 	rsb	r4, r4, #0
   d9acc:	3c20      	subs	r4, #32
   d9ace:	da35      	bge.n	d9b3c <__aeabi_dmul+0x164>
   d9ad0:	340c      	adds	r4, #12
   d9ad2:	dc1b      	bgt.n	d9b0c <__aeabi_dmul+0x134>
   d9ad4:	f104 0414 	add.w	r4, r4, #20
   d9ad8:	f1c4 0520 	rsb	r5, r4, #32
   d9adc:	fa00 f305 	lsl.w	r3, r0, r5
   d9ae0:	fa20 f004 	lsr.w	r0, r0, r4
   d9ae4:	fa01 f205 	lsl.w	r2, r1, r5
   d9ae8:	ea40 0002 	orr.w	r0, r0, r2
   d9aec:	f001 4200 	and.w	r2, r1, #2147483648	; 0x80000000
   d9af0:	f021 4100 	bic.w	r1, r1, #2147483648	; 0x80000000
   d9af4:	eb10 70d3 	adds.w	r0, r0, r3, lsr #31
   d9af8:	fa21 f604 	lsr.w	r6, r1, r4
   d9afc:	eb42 0106 	adc.w	r1, r2, r6
   d9b00:	ea5e 0e43 	orrs.w	lr, lr, r3, lsl #1
   d9b04:	bf08      	it	eq
   d9b06:	ea20 70d3 	biceq.w	r0, r0, r3, lsr #31
   d9b0a:	bd70      	pop	{r4, r5, r6, pc}
   d9b0c:	f1c4 040c 	rsb	r4, r4, #12
   d9b10:	f1c4 0520 	rsb	r5, r4, #32
   d9b14:	fa00 f304 	lsl.w	r3, r0, r4
   d9b18:	fa20 f005 	lsr.w	r0, r0, r5
   d9b1c:	fa01 f204 	lsl.w	r2, r1, r4
   d9b20:	ea40 0002 	orr.w	r0, r0, r2
   d9b24:	f001 4100 	and.w	r1, r1, #2147483648	; 0x80000000
   d9b28:	eb10 70d3 	adds.w	r0, r0, r3, lsr #31
   d9b2c:	f141 0100 	adc.w	r1, r1, #0
   d9b30:	ea5e 0e43 	orrs.w	lr, lr, r3, lsl #1
   d9b34:	bf08      	it	eq
   d9b36:	ea20 70d3 	biceq.w	r0, r0, r3, lsr #31
   d9b3a:	bd70      	pop	{r4, r5, r6, pc}
   d9b3c:	f1c4 0520 	rsb	r5, r4, #32
   d9b40:	fa00 f205 	lsl.w	r2, r0, r5
   d9b44:	ea4e 0e02 	orr.w	lr, lr, r2
   d9b48:	fa20 f304 	lsr.w	r3, r0, r4
   d9b4c:	fa01 f205 	lsl.w	r2, r1, r5
   d9b50:	ea43 0302 	orr.w	r3, r3, r2
   d9b54:	fa21 f004 	lsr.w	r0, r1, r4
   d9b58:	f001 4100 	and.w	r1, r1, #2147483648	; 0x80000000
   d9b5c:	fa21 f204 	lsr.w	r2, r1, r4
   d9b60:	ea20 0002 	bic.w	r0, r0, r2
   d9b64:	eb00 70d3 	add.w	r0, r0, r3, lsr #31
   d9b68:	ea5e 0e43 	orrs.w	lr, lr, r3, lsl #1
   d9b6c:	bf08      	it	eq
   d9b6e:	ea20 70d3 	biceq.w	r0, r0, r3, lsr #31
   d9b72:	bd70      	pop	{r4, r5, r6, pc}
   d9b74:	f094 0f00 	teq	r4, #0
   d9b78:	d10f      	bne.n	d9b9a <__aeabi_dmul+0x1c2>
   d9b7a:	f001 4600 	and.w	r6, r1, #2147483648	; 0x80000000
   d9b7e:	0040      	lsls	r0, r0, #1
   d9b80:	eb41 0101 	adc.w	r1, r1, r1
   d9b84:	f411 1f80 	tst.w	r1, #1048576	; 0x100000
   d9b88:	bf08      	it	eq
   d9b8a:	3c01      	subeq	r4, #1
   d9b8c:	d0f7      	beq.n	d9b7e <__aeabi_dmul+0x1a6>
   d9b8e:	ea41 0106 	orr.w	r1, r1, r6
   d9b92:	f095 0f00 	teq	r5, #0
   d9b96:	bf18      	it	ne
   d9b98:	4770      	bxne	lr
   d9b9a:	f003 4600 	and.w	r6, r3, #2147483648	; 0x80000000
   d9b9e:	0052      	lsls	r2, r2, #1
   d9ba0:	eb43 0303 	adc.w	r3, r3, r3
   d9ba4:	f413 1f80 	tst.w	r3, #1048576	; 0x100000
   d9ba8:	bf08      	it	eq
   d9baa:	3d01      	subeq	r5, #1
   d9bac:	d0f7      	beq.n	d9b9e <__aeabi_dmul+0x1c6>
   d9bae:	ea43 0306 	orr.w	r3, r3, r6
   d9bb2:	4770      	bx	lr
   d9bb4:	ea94 0f0c 	teq	r4, ip
   d9bb8:	ea0c 5513 	and.w	r5, ip, r3, lsr #20
   d9bbc:	bf18      	it	ne
   d9bbe:	ea95 0f0c 	teqne	r5, ip
   d9bc2:	d00c      	beq.n	d9bde <__aeabi_dmul+0x206>
   d9bc4:	ea50 0641 	orrs.w	r6, r0, r1, lsl #1
   d9bc8:	bf18      	it	ne
   d9bca:	ea52 0643 	orrsne.w	r6, r2, r3, lsl #1
   d9bce:	d1d1      	bne.n	d9b74 <__aeabi_dmul+0x19c>
   d9bd0:	ea81 0103 	eor.w	r1, r1, r3
   d9bd4:	f001 4100 	and.w	r1, r1, #2147483648	; 0x80000000
   d9bd8:	f04f 0000 	mov.w	r0, #0
   d9bdc:	bd70      	pop	{r4, r5, r6, pc}
   d9bde:	ea50 0641 	orrs.w	r6, r0, r1, lsl #1
   d9be2:	bf06      	itte	eq
   d9be4:	4610      	moveq	r0, r2
   d9be6:	4619      	moveq	r1, r3
   d9be8:	ea52 0643 	orrsne.w	r6, r2, r3, lsl #1
   d9bec:	d019      	beq.n	d9c22 <__aeabi_dmul+0x24a>
   d9bee:	ea94 0f0c 	teq	r4, ip
   d9bf2:	d102      	bne.n	d9bfa <__aeabi_dmul+0x222>
   d9bf4:	ea50 3601 	orrs.w	r6, r0, r1, lsl #12
   d9bf8:	d113      	bne.n	d9c22 <__aeabi_dmul+0x24a>
   d9bfa:	ea95 0f0c 	teq	r5, ip
   d9bfe:	d105      	bne.n	d9c0c <__aeabi_dmul+0x234>
   d9c00:	ea52 3603 	orrs.w	r6, r2, r3, lsl #12
   d9c04:	bf1c      	itt	ne
   d9c06:	4610      	movne	r0, r2
   d9c08:	4619      	movne	r1, r3
   d9c0a:	d10a      	bne.n	d9c22 <__aeabi_dmul+0x24a>
   d9c0c:	ea81 0103 	eor.w	r1, r1, r3
   d9c10:	f001 4100 	and.w	r1, r1, #2147483648	; 0x80000000
   d9c14:	f041 41fe 	orr.w	r1, r1, #2130706432	; 0x7f000000
   d9c18:	f441 0170 	orr.w	r1, r1, #15728640	; 0xf00000
   d9c1c:	f04f 0000 	mov.w	r0, #0
   d9c20:	bd70      	pop	{r4, r5, r6, pc}
   d9c22:	f041 41fe 	orr.w	r1, r1, #2130706432	; 0x7f000000
   d9c26:	f441 0178 	orr.w	r1, r1, #16252928	; 0xf80000
   d9c2a:	bd70      	pop	{r4, r5, r6, pc}

000d9c2c <__aeabi_ddiv>:
   d9c2c:	b570      	push	{r4, r5, r6, lr}
   d9c2e:	f04f 0cff 	mov.w	ip, #255	; 0xff
   d9c32:	f44c 6ce0 	orr.w	ip, ip, #1792	; 0x700
   d9c36:	ea1c 5411 	ands.w	r4, ip, r1, lsr #20
   d9c3a:	bf1d      	ittte	ne
   d9c3c:	ea1c 5513 	andsne.w	r5, ip, r3, lsr #20
   d9c40:	ea94 0f0c 	teqne	r4, ip
   d9c44:	ea95 0f0c 	teqne	r5, ip
   d9c48:	f000 f8a7 	bleq	d9d9a <__aeabi_ddiv+0x16e>
   d9c4c:	eba4 0405 	sub.w	r4, r4, r5
   d9c50:	ea81 0e03 	eor.w	lr, r1, r3
   d9c54:	ea52 3503 	orrs.w	r5, r2, r3, lsl #12
   d9c58:	ea4f 3101 	mov.w	r1, r1, lsl #12
   d9c5c:	f000 8088 	beq.w	d9d70 <__aeabi_ddiv+0x144>
   d9c60:	ea4f 3303 	mov.w	r3, r3, lsl #12
   d9c64:	f04f 5580 	mov.w	r5, #268435456	; 0x10000000
   d9c68:	ea45 1313 	orr.w	r3, r5, r3, lsr #4
   d9c6c:	ea43 6312 	orr.w	r3, r3, r2, lsr #24
   d9c70:	ea4f 2202 	mov.w	r2, r2, lsl #8
   d9c74:	ea45 1511 	orr.w	r5, r5, r1, lsr #4
   d9c78:	ea45 6510 	orr.w	r5, r5, r0, lsr #24
   d9c7c:	ea4f 2600 	mov.w	r6, r0, lsl #8
   d9c80:	f00e 4100 	and.w	r1, lr, #2147483648	; 0x80000000
   d9c84:	429d      	cmp	r5, r3
   d9c86:	bf08      	it	eq
   d9c88:	4296      	cmpeq	r6, r2
   d9c8a:	f144 04fd 	adc.w	r4, r4, #253	; 0xfd
   d9c8e:	f504 7440 	add.w	r4, r4, #768	; 0x300
   d9c92:	d202      	bcs.n	d9c9a <__aeabi_ddiv+0x6e>
   d9c94:	085b      	lsrs	r3, r3, #1
   d9c96:	ea4f 0232 	mov.w	r2, r2, rrx
   d9c9a:	1ab6      	subs	r6, r6, r2
   d9c9c:	eb65 0503 	sbc.w	r5, r5, r3
   d9ca0:	085b      	lsrs	r3, r3, #1
   d9ca2:	ea4f 0232 	mov.w	r2, r2, rrx
   d9ca6:	f44f 1080 	mov.w	r0, #1048576	; 0x100000
   d9caa:	f44f 2c00 	mov.w	ip, #524288	; 0x80000
   d9cae:	ebb6 0e02 	subs.w	lr, r6, r2
   d9cb2:	eb75 0e03 	sbcs.w	lr, r5, r3
   d9cb6:	bf22      	ittt	cs
   d9cb8:	1ab6      	subcs	r6, r6, r2
   d9cba:	4675      	movcs	r5, lr
   d9cbc:	ea40 000c 	orrcs.w	r0, r0, ip
   d9cc0:	085b      	lsrs	r3, r3, #1
   d9cc2:	ea4f 0232 	mov.w	r2, r2, rrx
   d9cc6:	ebb6 0e02 	subs.w	lr, r6, r2
   d9cca:	eb75 0e03 	sbcs.w	lr, r5, r3
   d9cce:	bf22      	ittt	cs
   d9cd0:	1ab6      	subcs	r6, r6, r2
   d9cd2:	4675      	movcs	r5, lr
   d9cd4:	ea40 005c 	orrcs.w	r0, r0, ip, lsr #1
   d9cd8:	085b      	lsrs	r3, r3, #1
   d9cda:	ea4f 0232 	mov.w	r2, r2, rrx
   d9cde:	ebb6 0e02 	subs.w	lr, r6, r2
   d9ce2:	eb75 0e03 	sbcs.w	lr, r5, r3
   d9ce6:	bf22      	ittt	cs
   d9ce8:	1ab6      	subcs	r6, r6, r2
   d9cea:	4675      	movcs	r5, lr
   d9cec:	ea40 009c 	orrcs.w	r0, r0, ip, lsr #2
   d9cf0:	085b      	lsrs	r3, r3, #1
   d9cf2:	ea4f 0232 	mov.w	r2, r2, rrx
   d9cf6:	ebb6 0e02 	subs.w	lr, r6, r2
   d9cfa:	eb75 0e03 	sbcs.w	lr, r5, r3
   d9cfe:	bf22      	ittt	cs
   d9d00:	1ab6      	subcs	r6, r6, r2
   d9d02:	4675      	movcs	r5, lr
   d9d04:	ea40 00dc 	orrcs.w	r0, r0, ip, lsr #3
   d9d08:	ea55 0e06 	orrs.w	lr, r5, r6
   d9d0c:	d018      	beq.n	d9d40 <__aeabi_ddiv+0x114>
   d9d0e:	ea4f 1505 	mov.w	r5, r5, lsl #4
   d9d12:	ea45 7516 	orr.w	r5, r5, r6, lsr #28
   d9d16:	ea4f 1606 	mov.w	r6, r6, lsl #4
   d9d1a:	ea4f 03c3 	mov.w	r3, r3, lsl #3
   d9d1e:	ea43 7352 	orr.w	r3, r3, r2, lsr #29
   d9d22:	ea4f 02c2 	mov.w	r2, r2, lsl #3
   d9d26:	ea5f 1c1c 	movs.w	ip, ip, lsr #4
   d9d2a:	d1c0      	bne.n	d9cae <__aeabi_ddiv+0x82>
   d9d2c:	f411 1f80 	tst.w	r1, #1048576	; 0x100000
   d9d30:	d10b      	bne.n	d9d4a <__aeabi_ddiv+0x11e>
   d9d32:	ea41 0100 	orr.w	r1, r1, r0
   d9d36:	f04f 0000 	mov.w	r0, #0
   d9d3a:	f04f 4c00 	mov.w	ip, #2147483648	; 0x80000000
   d9d3e:	e7b6      	b.n	d9cae <__aeabi_ddiv+0x82>
   d9d40:	f411 1f80 	tst.w	r1, #1048576	; 0x100000
   d9d44:	bf04      	itt	eq
   d9d46:	4301      	orreq	r1, r0
   d9d48:	2000      	moveq	r0, #0
   d9d4a:	f1b4 0cfd 	subs.w	ip, r4, #253	; 0xfd
   d9d4e:	bf88      	it	hi
   d9d50:	f5bc 6fe0 	cmphi.w	ip, #1792	; 0x700
   d9d54:	f63f aeaf 	bhi.w	d9ab6 <__aeabi_dmul+0xde>
   d9d58:	ebb5 0c03 	subs.w	ip, r5, r3
   d9d5c:	bf04      	itt	eq
   d9d5e:	ebb6 0c02 	subseq.w	ip, r6, r2
   d9d62:	ea5f 0c50 	movseq.w	ip, r0, lsr #1
   d9d66:	f150 0000 	adcs.w	r0, r0, #0
   d9d6a:	eb41 5104 	adc.w	r1, r1, r4, lsl #20
   d9d6e:	bd70      	pop	{r4, r5, r6, pc}
   d9d70:	f00e 4e00 	and.w	lr, lr, #2147483648	; 0x80000000
   d9d74:	ea4e 3111 	orr.w	r1, lr, r1, lsr #12
   d9d78:	eb14 045c 	adds.w	r4, r4, ip, lsr #1
   d9d7c:	bfc2      	ittt	gt
   d9d7e:	ebd4 050c 	rsbsgt	r5, r4, ip
   d9d82:	ea41 5104 	orrgt.w	r1, r1, r4, lsl #20
   d9d86:	bd70      	popgt	{r4, r5, r6, pc}
   d9d88:	f441 1180 	orr.w	r1, r1, #1048576	; 0x100000
   d9d8c:	f04f 0e00 	mov.w	lr, #0
   d9d90:	3c01      	subs	r4, #1
   d9d92:	e690      	b.n	d9ab6 <__aeabi_dmul+0xde>
   d9d94:	ea45 0e06 	orr.w	lr, r5, r6
   d9d98:	e68d      	b.n	d9ab6 <__aeabi_dmul+0xde>
   d9d9a:	ea0c 5513 	and.w	r5, ip, r3, lsr #20
   d9d9e:	ea94 0f0c 	teq	r4, ip
   d9da2:	bf08      	it	eq
   d9da4:	ea95 0f0c 	teqeq	r5, ip
   d9da8:	f43f af3b 	beq.w	d9c22 <__aeabi_dmul+0x24a>
   d9dac:	ea94 0f0c 	teq	r4, ip
   d9db0:	d10a      	bne.n	d9dc8 <__aeabi_ddiv+0x19c>
   d9db2:	ea50 3401 	orrs.w	r4, r0, r1, lsl #12
   d9db6:	f47f af34 	bne.w	d9c22 <__aeabi_dmul+0x24a>
   d9dba:	ea95 0f0c 	teq	r5, ip
   d9dbe:	f47f af25 	bne.w	d9c0c <__aeabi_dmul+0x234>
   d9dc2:	4610      	mov	r0, r2
   d9dc4:	4619      	mov	r1, r3
   d9dc6:	e72c      	b.n	d9c22 <__aeabi_dmul+0x24a>
   d9dc8:	ea95 0f0c 	teq	r5, ip
   d9dcc:	d106      	bne.n	d9ddc <__aeabi_ddiv+0x1b0>
   d9dce:	ea52 3503 	orrs.w	r5, r2, r3, lsl #12
   d9dd2:	f43f aefd 	beq.w	d9bd0 <__aeabi_dmul+0x1f8>
   d9dd6:	4610      	mov	r0, r2
   d9dd8:	4619      	mov	r1, r3
   d9dda:	e722      	b.n	d9c22 <__aeabi_dmul+0x24a>
   d9ddc:	ea50 0641 	orrs.w	r6, r0, r1, lsl #1
   d9de0:	bf18      	it	ne
   d9de2:	ea52 0643 	orrsne.w	r6, r2, r3, lsl #1
   d9de6:	f47f aec5 	bne.w	d9b74 <__aeabi_dmul+0x19c>
   d9dea:	ea50 0441 	orrs.w	r4, r0, r1, lsl #1
   d9dee:	f47f af0d 	bne.w	d9c0c <__aeabi_dmul+0x234>
   d9df2:	ea52 0543 	orrs.w	r5, r2, r3, lsl #1
   d9df6:	f47f aeeb 	bne.w	d9bd0 <__aeabi_dmul+0x1f8>
   d9dfa:	e712      	b.n	d9c22 <__aeabi_dmul+0x24a>

000d9dfc <__gedf2>:
   d9dfc:	f04f 3cff 	mov.w	ip, #4294967295	; 0xffffffff
   d9e00:	e006      	b.n	d9e10 <__cmpdf2+0x4>
   d9e02:	bf00      	nop

000d9e04 <__ledf2>:
   d9e04:	f04f 0c01 	mov.w	ip, #1
   d9e08:	e002      	b.n	d9e10 <__cmpdf2+0x4>
   d9e0a:	bf00      	nop

000d9e0c <__cmpdf2>:
   d9e0c:	f04f 0c01 	mov.w	ip, #1
   d9e10:	f84d cd04 	str.w	ip, [sp, #-4]!
   d9e14:	ea4f 0c41 	mov.w	ip, r1, lsl #1
   d9e18:	ea7f 5c6c 	mvns.w	ip, ip, asr #21
   d9e1c:	ea4f 0c43 	mov.w	ip, r3, lsl #1
   d9e20:	bf18      	it	ne
   d9e22:	ea7f 5c6c 	mvnsne.w	ip, ip, asr #21
   d9e26:	d01b      	beq.n	d9e60 <__cmpdf2+0x54>
   d9e28:	b001      	add	sp, #4
   d9e2a:	ea50 0c41 	orrs.w	ip, r0, r1, lsl #1
   d9e2e:	bf0c      	ite	eq
   d9e30:	ea52 0c43 	orrseq.w	ip, r2, r3, lsl #1
   d9e34:	ea91 0f03 	teqne	r1, r3
   d9e38:	bf02      	ittt	eq
   d9e3a:	ea90 0f02 	teqeq	r0, r2
   d9e3e:	2000      	moveq	r0, #0
   d9e40:	4770      	bxeq	lr
   d9e42:	f110 0f00 	cmn.w	r0, #0
   d9e46:	ea91 0f03 	teq	r1, r3
   d9e4a:	bf58      	it	pl
   d9e4c:	4299      	cmppl	r1, r3
   d9e4e:	bf08      	it	eq
   d9e50:	4290      	cmpeq	r0, r2
   d9e52:	bf2c      	ite	cs
   d9e54:	17d8      	asrcs	r0, r3, #31
   d9e56:	ea6f 70e3 	mvncc.w	r0, r3, asr #31
   d9e5a:	f040 0001 	orr.w	r0, r0, #1
   d9e5e:	4770      	bx	lr
   d9e60:	ea4f 0c41 	mov.w	ip, r1, lsl #1
   d9e64:	ea7f 5c6c 	mvns.w	ip, ip, asr #21
   d9e68:	d102      	bne.n	d9e70 <__cmpdf2+0x64>
   d9e6a:	ea50 3c01 	orrs.w	ip, r0, r1, lsl #12
   d9e6e:	d107      	bne.n	d9e80 <__cmpdf2+0x74>
   d9e70:	ea4f 0c43 	mov.w	ip, r3, lsl #1
   d9e74:	ea7f 5c6c 	mvns.w	ip, ip, asr #21
   d9e78:	d1d6      	bne.n	d9e28 <__cmpdf2+0x1c>
   d9e7a:	ea52 3c03 	orrs.w	ip, r2, r3, lsl #12
   d9e7e:	d0d3      	beq.n	d9e28 <__cmpdf2+0x1c>
   d9e80:	f85d 0b04 	ldr.w	r0, [sp], #4
   d9e84:	4770      	bx	lr
   d9e86:	bf00      	nop

000d9e88 <__aeabi_cdrcmple>:
   d9e88:	4684      	mov	ip, r0
   d9e8a:	4610      	mov	r0, r2
   d9e8c:	4662      	mov	r2, ip
   d9e8e:	468c      	mov	ip, r1
   d9e90:	4619      	mov	r1, r3
   d9e92:	4663      	mov	r3, ip
   d9e94:	e000      	b.n	d9e98 <__aeabi_cdcmpeq>
   d9e96:	bf00      	nop

000d9e98 <__aeabi_cdcmpeq>:
   d9e98:	b501      	push	{r0, lr}
   d9e9a:	f7ff ffb7 	bl	d9e0c <__cmpdf2>
   d9e9e:	2800      	cmp	r0, #0
   d9ea0:	bf48      	it	mi
   d9ea2:	f110 0f00 	cmnmi.w	r0, #0
   d9ea6:	bd01      	pop	{r0, pc}

000d9ea8 <__aeabi_dcmpeq>:
   d9ea8:	f84d ed08 	str.w	lr, [sp, #-8]!
   d9eac:	f7ff fff4 	bl	d9e98 <__aeabi_cdcmpeq>
   d9eb0:	bf0c      	ite	eq
   d9eb2:	2001      	moveq	r0, #1
   d9eb4:	2000      	movne	r0, #0
   d9eb6:	f85d fb08 	ldr.w	pc, [sp], #8
   d9eba:	bf00      	nop

000d9ebc <__aeabi_dcmplt>:
   d9ebc:	f84d ed08 	str.w	lr, [sp, #-8]!
   d9ec0:	f7ff ffea 	bl	d9e98 <__aeabi_cdcmpeq>
   d9ec4:	bf34      	ite	cc
   d9ec6:	2001      	movcc	r0, #1
   d9ec8:	2000      	movcs	r0, #0
   d9eca:	f85d fb08 	ldr.w	pc, [sp], #8
   d9ece:	bf00      	nop

000d9ed0 <__aeabi_dcmple>:
   d9ed0:	f84d ed08 	str.w	lr, [sp, #-8]!
   d9ed4:	f7ff ffe0 	bl	d9e98 <__aeabi_cdcmpeq>
   d9ed8:	bf94      	ite	ls
   d9eda:	2001      	movls	r0, #1
   d9edc:	2000      	movhi	r0, #0
   d9ede:	f85d fb08 	ldr.w	pc, [sp], #8
   d9ee2:	bf00      	nop

000d9ee4 <__aeabi_dcmpge>:
   d9ee4:	f84d ed08 	str.w	lr, [sp, #-8]!
   d9ee8:	f7ff ffce 	bl	d9e88 <__aeabi_cdrcmple>
   d9eec:	bf94      	ite	ls
   d9eee:	2001      	movls	r0, #1
   d9ef0:	2000      	movhi	r0, #0
   d9ef2:	f85d fb08 	ldr.w	pc, [sp], #8
   d9ef6:	bf00      	nop

000d9ef8 <__aeabi_dcmpgt>:
   d9ef8:	f84d ed08 	str.w	lr, [sp, #-8]!
   d9efc:	f7ff ffc4 	bl	d9e88 <__aeabi_cdrcmple>
   d9f00:	bf34      	ite	cc
   d9f02:	2001      	movcc	r0, #1
   d9f04:	2000      	movcs	r0, #0
   d9f06:	f85d fb08 	ldr.w	pc, [sp], #8
   d9f0a:	bf00      	nop

000d9f0c <__aeabi_d2uiz>:
   d9f0c:	004a      	lsls	r2, r1, #1
   d9f0e:	d211      	bcs.n	d9f34 <__aeabi_d2uiz+0x28>
   d9f10:	f512 1200 	adds.w	r2, r2, #2097152	; 0x200000
   d9f14:	d211      	bcs.n	d9f3a <__aeabi_d2uiz+0x2e>
   d9f16:	d50d      	bpl.n	d9f34 <__aeabi_d2uiz+0x28>
   d9f18:	f46f 7378 	mvn.w	r3, #992	; 0x3e0
   d9f1c:	ebb3 5262 	subs.w	r2, r3, r2, asr #21
   d9f20:	d40e      	bmi.n	d9f40 <__aeabi_d2uiz+0x34>
   d9f22:	ea4f 23c1 	mov.w	r3, r1, lsl #11
   d9f26:	f043 4300 	orr.w	r3, r3, #2147483648	; 0x80000000
   d9f2a:	ea43 5350 	orr.w	r3, r3, r0, lsr #21
   d9f2e:	fa23 f002 	lsr.w	r0, r3, r2
   d9f32:	4770      	bx	lr
   d9f34:	f04f 0000 	mov.w	r0, #0
   d9f38:	4770      	bx	lr
   d9f3a:	ea50 3001 	orrs.w	r0, r0, r1, lsl #12
   d9f3e:	d102      	bne.n	d9f46 <__aeabi_d2uiz+0x3a>
   d9f40:	f04f 30ff 	mov.w	r0, #4294967295	; 0xffffffff
   d9f44:	4770      	bx	lr
   d9f46:	f04f 0000 	mov.w	r0, #0
   d9f4a:	4770      	bx	lr

000d9f4c <__aeabi_d2f>:
   d9f4c:	ea4f 0241 	mov.w	r2, r1, lsl #1
   d9f50:	f1b2 43e0 	subs.w	r3, r2, #1879048192	; 0x70000000
   d9f54:	bf24      	itt	cs
   d9f56:	f5b3 1c00 	subscs.w	ip, r3, #2097152	; 0x200000
   d9f5a:	f1dc 5cfe 	rsbscs	ip, ip, #532676608	; 0x1fc00000
   d9f5e:	d90d      	bls.n	d9f7c <__aeabi_d2f+0x30>
   d9f60:	f001 4c00 	and.w	ip, r1, #2147483648	; 0x80000000
   d9f64:	ea4f 02c0 	mov.w	r2, r0, lsl #3
   d9f68:	ea4c 7050 	orr.w	r0, ip, r0, lsr #29
   d9f6c:	f1b2 4f00 	cmp.w	r2, #2147483648	; 0x80000000
   d9f70:	eb40 0083 	adc.w	r0, r0, r3, lsl #2
   d9f74:	bf08      	it	eq
   d9f76:	f020 0001 	biceq.w	r0, r0, #1
   d9f7a:	4770      	bx	lr
   d9f7c:	f011 4f80 	tst.w	r1, #1073741824	; 0x40000000
   d9f80:	d121      	bne.n	d9fc6 <__aeabi_d2f+0x7a>
   d9f82:	f113 7238 	adds.w	r2, r3, #48234496	; 0x2e00000
   d9f86:	bfbc      	itt	lt
   d9f88:	f001 4000 	andlt.w	r0, r1, #2147483648	; 0x80000000
   d9f8c:	4770      	bxlt	lr
   d9f8e:	f441 1180 	orr.w	r1, r1, #1048576	; 0x100000
   d9f92:	ea4f 5252 	mov.w	r2, r2, lsr #21
   d9f96:	f1c2 0218 	rsb	r2, r2, #24
   d9f9a:	f1c2 0c20 	rsb	ip, r2, #32
   d9f9e:	fa10 f30c 	lsls.w	r3, r0, ip
   d9fa2:	fa20 f002 	lsr.w	r0, r0, r2
   d9fa6:	bf18      	it	ne
   d9fa8:	f040 0001 	orrne.w	r0, r0, #1
   d9fac:	ea4f 23c1 	mov.w	r3, r1, lsl #11
   d9fb0:	ea4f 23d3 	mov.w	r3, r3, lsr #11
   d9fb4:	fa03 fc0c 	lsl.w	ip, r3, ip
   d9fb8:	ea40 000c 	orr.w	r0, r0, ip
   d9fbc:	fa23 f302 	lsr.w	r3, r3, r2
   d9fc0:	ea4f 0343 	mov.w	r3, r3, lsl #1
   d9fc4:	e7cc      	b.n	d9f60 <__aeabi_d2f+0x14>
   d9fc6:	ea7f 5362 	mvns.w	r3, r2, asr #21
   d9fca:	d107      	bne.n	d9fdc <__aeabi_d2f+0x90>
   d9fcc:	ea50 3301 	orrs.w	r3, r0, r1, lsl #12
   d9fd0:	bf1e      	ittt	ne
   d9fd2:	f04f 40fe 	movne.w	r0, #2130706432	; 0x7f000000
   d9fd6:	f440 0040 	orrne.w	r0, r0, #12582912	; 0xc00000
   d9fda:	4770      	bxne	lr
   d9fdc:	f001 4000 	and.w	r0, r1, #2147483648	; 0x80000000
   d9fe0:	f040 40fe 	orr.w	r0, r0, #2130706432	; 0x7f000000
   d9fe4:	f440 0000 	orr.w	r0, r0, #8388608	; 0x800000
   d9fe8:	4770      	bx	lr
   d9fea:	bf00      	nop

000d9fec <__aeabi_uldivmod>:
   d9fec:	b953      	cbnz	r3, da004 <__aeabi_uldivmod+0x18>
   d9fee:	b94a      	cbnz	r2, da004 <__aeabi_uldivmod+0x18>
   d9ff0:	2900      	cmp	r1, #0
   d9ff2:	bf08      	it	eq
   d9ff4:	2800      	cmpeq	r0, #0
   d9ff6:	bf1c      	itt	ne
   d9ff8:	f04f 31ff 	movne.w	r1, #4294967295	; 0xffffffff
   d9ffc:	f04f 30ff 	movne.w	r0, #4294967295	; 0xffffffff
   da000:	f000 b98c 	b.w	da31c <__aeabi_idiv0>
   da004:	f1ad 0c08 	sub.w	ip, sp, #8
   da008:	e96d ce04 	strd	ip, lr, [sp, #-16]!
   da00c:	f000 f824 	bl	da058 <__udivmoddi4>
   da010:	f8dd e004 	ldr.w	lr, [sp, #4]
   da014:	e9dd 2302 	ldrd	r2, r3, [sp, #8]
   da018:	b004      	add	sp, #16
   da01a:	4770      	bx	lr

000da01c <__aeabi_d2ulz>:
   da01c:	b5d0      	push	{r4, r6, r7, lr}
   da01e:	4b0c      	ldr	r3, [pc, #48]	; (da050 <__aeabi_d2ulz+0x34>)
   da020:	2200      	movs	r2, #0
   da022:	4606      	mov	r6, r0
   da024:	460f      	mov	r7, r1
   da026:	f7ff fcd7 	bl	d99d8 <__aeabi_dmul>
   da02a:	f7ff ff6f 	bl	d9f0c <__aeabi_d2uiz>
   da02e:	4604      	mov	r4, r0
   da030:	f7ff fc58 	bl	d98e4 <__aeabi_ui2d>
   da034:	4b07      	ldr	r3, [pc, #28]	; (da054 <__aeabi_d2ulz+0x38>)
   da036:	2200      	movs	r2, #0
   da038:	f7ff fcce 	bl	d99d8 <__aeabi_dmul>
   da03c:	4602      	mov	r2, r0
   da03e:	460b      	mov	r3, r1
   da040:	4630      	mov	r0, r6
   da042:	4639      	mov	r1, r7
   da044:	f7ff fb10 	bl	d9668 <__aeabi_dsub>
   da048:	f7ff ff60 	bl	d9f0c <__aeabi_d2uiz>
   da04c:	4621      	mov	r1, r4
   da04e:	bdd0      	pop	{r4, r6, r7, pc}
   da050:	3df00000 	.word	0x3df00000
   da054:	41f00000 	.word	0x41f00000

000da058 <__udivmoddi4>:
   da058:	e92d 47f0 	stmdb	sp!, {r4, r5, r6, r7, r8, r9, sl, lr}
   da05c:	9d08      	ldr	r5, [sp, #32]
   da05e:	4604      	mov	r4, r0
   da060:	468c      	mov	ip, r1
   da062:	2b00      	cmp	r3, #0
   da064:	f040 8083 	bne.w	da16e <__udivmoddi4+0x116>
   da068:	428a      	cmp	r2, r1
   da06a:	4617      	mov	r7, r2
   da06c:	d947      	bls.n	da0fe <__udivmoddi4+0xa6>
   da06e:	fab2 f282 	clz	r2, r2
   da072:	b142      	cbz	r2, da086 <__udivmoddi4+0x2e>
   da074:	f1c2 0020 	rsb	r0, r2, #32
   da078:	fa24 f000 	lsr.w	r0, r4, r0
   da07c:	4091      	lsls	r1, r2
   da07e:	4097      	lsls	r7, r2
   da080:	ea40 0c01 	orr.w	ip, r0, r1
   da084:	4094      	lsls	r4, r2
   da086:	ea4f 4817 	mov.w	r8, r7, lsr #16
   da08a:	0c23      	lsrs	r3, r4, #16
   da08c:	fbbc f6f8 	udiv	r6, ip, r8
   da090:	fa1f fe87 	uxth.w	lr, r7
   da094:	fb08 c116 	mls	r1, r8, r6, ip
   da098:	ea43 4301 	orr.w	r3, r3, r1, lsl #16
   da09c:	fb06 f10e 	mul.w	r1, r6, lr
   da0a0:	4299      	cmp	r1, r3
   da0a2:	d909      	bls.n	da0b8 <__udivmoddi4+0x60>
   da0a4:	18fb      	adds	r3, r7, r3
   da0a6:	f106 30ff 	add.w	r0, r6, #4294967295	; 0xffffffff
   da0aa:	f080 8119 	bcs.w	da2e0 <__udivmoddi4+0x288>
   da0ae:	4299      	cmp	r1, r3
   da0b0:	f240 8116 	bls.w	da2e0 <__udivmoddi4+0x288>
   da0b4:	3e02      	subs	r6, #2
   da0b6:	443b      	add	r3, r7
   da0b8:	1a5b      	subs	r3, r3, r1
   da0ba:	b2a4      	uxth	r4, r4
   da0bc:	fbb3 f0f8 	udiv	r0, r3, r8
   da0c0:	fb08 3310 	mls	r3, r8, r0, r3
   da0c4:	ea44 4403 	orr.w	r4, r4, r3, lsl #16
   da0c8:	fb00 fe0e 	mul.w	lr, r0, lr
   da0cc:	45a6      	cmp	lr, r4
   da0ce:	d909      	bls.n	da0e4 <__udivmoddi4+0x8c>
   da0d0:	193c      	adds	r4, r7, r4
   da0d2:	f100 33ff 	add.w	r3, r0, #4294967295	; 0xffffffff
   da0d6:	f080 8105 	bcs.w	da2e4 <__udivmoddi4+0x28c>
   da0da:	45a6      	cmp	lr, r4
   da0dc:	f240 8102 	bls.w	da2e4 <__udivmoddi4+0x28c>
   da0e0:	3802      	subs	r0, #2
   da0e2:	443c      	add	r4, r7
   da0e4:	ea40 4006 	orr.w	r0, r0, r6, lsl #16
   da0e8:	eba4 040e 	sub.w	r4, r4, lr
   da0ec:	2600      	movs	r6, #0
   da0ee:	b11d      	cbz	r5, da0f8 <__udivmoddi4+0xa0>
   da0f0:	40d4      	lsrs	r4, r2
   da0f2:	2300      	movs	r3, #0
   da0f4:	e9c5 4300 	strd	r4, r3, [r5]
   da0f8:	4631      	mov	r1, r6
   da0fa:	e8bd 87f0 	ldmia.w	sp!, {r4, r5, r6, r7, r8, r9, sl, pc}
   da0fe:	b902      	cbnz	r2, da102 <__udivmoddi4+0xaa>
   da100:	deff      	udf	#255	; 0xff
   da102:	fab2 f282 	clz	r2, r2
   da106:	2a00      	cmp	r2, #0
   da108:	d150      	bne.n	da1ac <__udivmoddi4+0x154>
   da10a:	1bcb      	subs	r3, r1, r7
   da10c:	ea4f 4e17 	mov.w	lr, r7, lsr #16
   da110:	fa1f f887 	uxth.w	r8, r7
   da114:	2601      	movs	r6, #1
   da116:	fbb3 fcfe 	udiv	ip, r3, lr
   da11a:	0c21      	lsrs	r1, r4, #16
   da11c:	fb0e 331c 	mls	r3, lr, ip, r3
   da120:	ea41 4103 	orr.w	r1, r1, r3, lsl #16
   da124:	fb08 f30c 	mul.w	r3, r8, ip
   da128:	428b      	cmp	r3, r1
   da12a:	d907      	bls.n	da13c <__udivmoddi4+0xe4>
   da12c:	1879      	adds	r1, r7, r1
   da12e:	f10c 30ff 	add.w	r0, ip, #4294967295	; 0xffffffff
   da132:	d202      	bcs.n	da13a <__udivmoddi4+0xe2>
   da134:	428b      	cmp	r3, r1
   da136:	f200 80e9 	bhi.w	da30c <__udivmoddi4+0x2b4>
   da13a:	4684      	mov	ip, r0
   da13c:	1ac9      	subs	r1, r1, r3
   da13e:	b2a3      	uxth	r3, r4
   da140:	fbb1 f0fe 	udiv	r0, r1, lr
   da144:	fb0e 1110 	mls	r1, lr, r0, r1
   da148:	ea43 4401 	orr.w	r4, r3, r1, lsl #16
   da14c:	fb08 f800 	mul.w	r8, r8, r0
   da150:	45a0      	cmp	r8, r4
   da152:	d907      	bls.n	da164 <__udivmoddi4+0x10c>
   da154:	193c      	adds	r4, r7, r4
   da156:	f100 33ff 	add.w	r3, r0, #4294967295	; 0xffffffff
   da15a:	d202      	bcs.n	da162 <__udivmoddi4+0x10a>
   da15c:	45a0      	cmp	r8, r4
   da15e:	f200 80d9 	bhi.w	da314 <__udivmoddi4+0x2bc>
   da162:	4618      	mov	r0, r3
   da164:	eba4 0408 	sub.w	r4, r4, r8
   da168:	ea40 400c 	orr.w	r0, r0, ip, lsl #16
   da16c:	e7bf      	b.n	da0ee <__udivmoddi4+0x96>
   da16e:	428b      	cmp	r3, r1
   da170:	d909      	bls.n	da186 <__udivmoddi4+0x12e>
   da172:	2d00      	cmp	r5, #0
   da174:	f000 80b1 	beq.w	da2da <__udivmoddi4+0x282>
   da178:	2600      	movs	r6, #0
   da17a:	e9c5 0100 	strd	r0, r1, [r5]
   da17e:	4630      	mov	r0, r6
   da180:	4631      	mov	r1, r6
   da182:	e8bd 87f0 	ldmia.w	sp!, {r4, r5, r6, r7, r8, r9, sl, pc}
   da186:	fab3 f683 	clz	r6, r3
   da18a:	2e00      	cmp	r6, #0
   da18c:	d14a      	bne.n	da224 <__udivmoddi4+0x1cc>
   da18e:	428b      	cmp	r3, r1
   da190:	d302      	bcc.n	da198 <__udivmoddi4+0x140>
   da192:	4282      	cmp	r2, r0
   da194:	f200 80b8 	bhi.w	da308 <__udivmoddi4+0x2b0>
   da198:	1a84      	subs	r4, r0, r2
   da19a:	eb61 0103 	sbc.w	r1, r1, r3
   da19e:	2001      	movs	r0, #1
   da1a0:	468c      	mov	ip, r1
   da1a2:	2d00      	cmp	r5, #0
   da1a4:	d0a8      	beq.n	da0f8 <__udivmoddi4+0xa0>
   da1a6:	e9c5 4c00 	strd	r4, ip, [r5]
   da1aa:	e7a5      	b.n	da0f8 <__udivmoddi4+0xa0>
   da1ac:	f1c2 0320 	rsb	r3, r2, #32
   da1b0:	fa20 f603 	lsr.w	r6, r0, r3
   da1b4:	4097      	lsls	r7, r2
   da1b6:	fa01 f002 	lsl.w	r0, r1, r2
   da1ba:	ea4f 4e17 	mov.w	lr, r7, lsr #16
   da1be:	40d9      	lsrs	r1, r3
   da1c0:	4330      	orrs	r0, r6
   da1c2:	0c03      	lsrs	r3, r0, #16
   da1c4:	fbb1 f6fe 	udiv	r6, r1, lr
   da1c8:	fa1f f887 	uxth.w	r8, r7
   da1cc:	fb0e 1116 	mls	r1, lr, r6, r1
   da1d0:	ea43 4301 	orr.w	r3, r3, r1, lsl #16
   da1d4:	fb06 f108 	mul.w	r1, r6, r8
   da1d8:	4299      	cmp	r1, r3
   da1da:	fa04 f402 	lsl.w	r4, r4, r2
   da1de:	d909      	bls.n	da1f4 <__udivmoddi4+0x19c>
   da1e0:	18fb      	adds	r3, r7, r3
   da1e2:	f106 3cff 	add.w	ip, r6, #4294967295	; 0xffffffff
   da1e6:	f080 808d 	bcs.w	da304 <__udivmoddi4+0x2ac>
   da1ea:	4299      	cmp	r1, r3
   da1ec:	f240 808a 	bls.w	da304 <__udivmoddi4+0x2ac>
   da1f0:	3e02      	subs	r6, #2
   da1f2:	443b      	add	r3, r7
   da1f4:	1a5b      	subs	r3, r3, r1
   da1f6:	b281      	uxth	r1, r0
   da1f8:	fbb3 f0fe 	udiv	r0, r3, lr
   da1fc:	fb0e 3310 	mls	r3, lr, r0, r3
   da200:	ea41 4103 	orr.w	r1, r1, r3, lsl #16
   da204:	fb00 f308 	mul.w	r3, r0, r8
   da208:	428b      	cmp	r3, r1
   da20a:	d907      	bls.n	da21c <__udivmoddi4+0x1c4>
   da20c:	1879      	adds	r1, r7, r1
   da20e:	f100 3cff 	add.w	ip, r0, #4294967295	; 0xffffffff
   da212:	d273      	bcs.n	da2fc <__udivmoddi4+0x2a4>
   da214:	428b      	cmp	r3, r1
   da216:	d971      	bls.n	da2fc <__udivmoddi4+0x2a4>
   da218:	3802      	subs	r0, #2
   da21a:	4439      	add	r1, r7
   da21c:	1acb      	subs	r3, r1, r3
   da21e:	ea40 4606 	orr.w	r6, r0, r6, lsl #16
   da222:	e778      	b.n	da116 <__udivmoddi4+0xbe>
   da224:	f1c6 0c20 	rsb	ip, r6, #32
   da228:	fa03 f406 	lsl.w	r4, r3, r6
   da22c:	fa22 f30c 	lsr.w	r3, r2, ip
   da230:	431c      	orrs	r4, r3
   da232:	fa20 f70c 	lsr.w	r7, r0, ip
   da236:	fa01 f306 	lsl.w	r3, r1, r6
   da23a:	ea4f 4e14 	mov.w	lr, r4, lsr #16
   da23e:	fa21 f10c 	lsr.w	r1, r1, ip
   da242:	431f      	orrs	r7, r3
   da244:	0c3b      	lsrs	r3, r7, #16
   da246:	fbb1 f9fe 	udiv	r9, r1, lr
   da24a:	fa1f f884 	uxth.w	r8, r4
   da24e:	fb0e 1119 	mls	r1, lr, r9, r1
   da252:	ea43 4101 	orr.w	r1, r3, r1, lsl #16
   da256:	fb09 fa08 	mul.w	sl, r9, r8
   da25a:	458a      	cmp	sl, r1
   da25c:	fa02 f206 	lsl.w	r2, r2, r6
   da260:	fa00 f306 	lsl.w	r3, r0, r6
   da264:	d908      	bls.n	da278 <__udivmoddi4+0x220>
   da266:	1861      	adds	r1, r4, r1
   da268:	f109 30ff 	add.w	r0, r9, #4294967295	; 0xffffffff
   da26c:	d248      	bcs.n	da300 <__udivmoddi4+0x2a8>
   da26e:	458a      	cmp	sl, r1
   da270:	d946      	bls.n	da300 <__udivmoddi4+0x2a8>
   da272:	f1a9 0902 	sub.w	r9, r9, #2
   da276:	4421      	add	r1, r4
   da278:	eba1 010a 	sub.w	r1, r1, sl
   da27c:	b2bf      	uxth	r7, r7
   da27e:	fbb1 f0fe 	udiv	r0, r1, lr
   da282:	fb0e 1110 	mls	r1, lr, r0, r1
   da286:	ea47 4701 	orr.w	r7, r7, r1, lsl #16
   da28a:	fb00 f808 	mul.w	r8, r0, r8
   da28e:	45b8      	cmp	r8, r7
   da290:	d907      	bls.n	da2a2 <__udivmoddi4+0x24a>
   da292:	19e7      	adds	r7, r4, r7
   da294:	f100 31ff 	add.w	r1, r0, #4294967295	; 0xffffffff
   da298:	d22e      	bcs.n	da2f8 <__udivmoddi4+0x2a0>
   da29a:	45b8      	cmp	r8, r7
   da29c:	d92c      	bls.n	da2f8 <__udivmoddi4+0x2a0>
   da29e:	3802      	subs	r0, #2
   da2a0:	4427      	add	r7, r4
   da2a2:	ea40 4009 	orr.w	r0, r0, r9, lsl #16
   da2a6:	eba7 0708 	sub.w	r7, r7, r8
   da2aa:	fba0 8902 	umull	r8, r9, r0, r2
   da2ae:	454f      	cmp	r7, r9
   da2b0:	46c6      	mov	lr, r8
   da2b2:	4649      	mov	r1, r9
   da2b4:	d31a      	bcc.n	da2ec <__udivmoddi4+0x294>
   da2b6:	d017      	beq.n	da2e8 <__udivmoddi4+0x290>
   da2b8:	b15d      	cbz	r5, da2d2 <__udivmoddi4+0x27a>
   da2ba:	ebb3 020e 	subs.w	r2, r3, lr
   da2be:	eb67 0701 	sbc.w	r7, r7, r1
   da2c2:	fa07 fc0c 	lsl.w	ip, r7, ip
   da2c6:	40f2      	lsrs	r2, r6
   da2c8:	ea4c 0202 	orr.w	r2, ip, r2
   da2cc:	40f7      	lsrs	r7, r6
   da2ce:	e9c5 2700 	strd	r2, r7, [r5]
   da2d2:	2600      	movs	r6, #0
   da2d4:	4631      	mov	r1, r6
   da2d6:	e8bd 87f0 	ldmia.w	sp!, {r4, r5, r6, r7, r8, r9, sl, pc}
   da2da:	462e      	mov	r6, r5
   da2dc:	4628      	mov	r0, r5
   da2de:	e70b      	b.n	da0f8 <__udivmoddi4+0xa0>
   da2e0:	4606      	mov	r6, r0
   da2e2:	e6e9      	b.n	da0b8 <__udivmoddi4+0x60>
   da2e4:	4618      	mov	r0, r3
   da2e6:	e6fd      	b.n	da0e4 <__udivmoddi4+0x8c>
   da2e8:	4543      	cmp	r3, r8
   da2ea:	d2e5      	bcs.n	da2b8 <__udivmoddi4+0x260>
   da2ec:	ebb8 0e02 	subs.w	lr, r8, r2
   da2f0:	eb69 0104 	sbc.w	r1, r9, r4
   da2f4:	3801      	subs	r0, #1
   da2f6:	e7df      	b.n	da2b8 <__udivmoddi4+0x260>
   da2f8:	4608      	mov	r0, r1
   da2fa:	e7d2      	b.n	da2a2 <__udivmoddi4+0x24a>
   da2fc:	4660      	mov	r0, ip
   da2fe:	e78d      	b.n	da21c <__udivmoddi4+0x1c4>
   da300:	4681      	mov	r9, r0
   da302:	e7b9      	b.n	da278 <__udivmoddi4+0x220>
   da304:	4666      	mov	r6, ip
   da306:	e775      	b.n	da1f4 <__udivmoddi4+0x19c>
   da308:	4630      	mov	r0, r6
   da30a:	e74a      	b.n	da1a2 <__udivmoddi4+0x14a>
   da30c:	f1ac 0c02 	sub.w	ip, ip, #2
   da310:	4439      	add	r1, r7
   da312:	e713      	b.n	da13c <__udivmoddi4+0xe4>
   da314:	3802      	subs	r0, #2
   da316:	443c      	add	r4, r7
   da318:	e724      	b.n	da164 <__udivmoddi4+0x10c>
   da31a:	bf00      	nop

000da31c <__aeabi_idiv0>:
   da31c:	4770      	bx	lr
   da31e:	bf00      	nop

000da320 <atof>:
   da320:	2100      	movs	r1, #0
   da322:	f000 bf23 	b.w	db16c <strtod>
	...

000da328 <calloc>:
   da328:	4b02      	ldr	r3, [pc, #8]	; (da334 <calloc+0xc>)
   da32a:	460a      	mov	r2, r1
   da32c:	4601      	mov	r1, r0
   da32e:	6818      	ldr	r0, [r3, #0]
   da330:	f000 b840 	b.w	da3b4 <_calloc_r>
   da334:	2003e29c 	.word	0x2003e29c

000da338 <__cxa_atexit>:
   da338:	b510      	push	{r4, lr}
   da33a:	4c05      	ldr	r4, [pc, #20]	; (da350 <__cxa_atexit+0x18>)
   da33c:	4613      	mov	r3, r2
   da33e:	b12c      	cbz	r4, da34c <__cxa_atexit+0x14>
   da340:	460a      	mov	r2, r1
   da342:	4601      	mov	r1, r0
   da344:	2002      	movs	r0, #2
   da346:	f3af 8000 	nop.w
   da34a:	bd10      	pop	{r4, pc}
   da34c:	4620      	mov	r0, r4
   da34e:	e7fc      	b.n	da34a <__cxa_atexit+0x12>
   da350:	00000000 	.word	0x00000000

000da354 <memcpy>:
   da354:	440a      	add	r2, r1
   da356:	4291      	cmp	r1, r2
   da358:	f100 33ff 	add.w	r3, r0, #4294967295	; 0xffffffff
   da35c:	d100      	bne.n	da360 <memcpy+0xc>
   da35e:	4770      	bx	lr
   da360:	b510      	push	{r4, lr}
   da362:	f811 4b01 	ldrb.w	r4, [r1], #1
   da366:	f803 4f01 	strb.w	r4, [r3, #1]!
   da36a:	4291      	cmp	r1, r2
   da36c:	d1f9      	bne.n	da362 <memcpy+0xe>
   da36e:	bd10      	pop	{r4, pc}

000da370 <memmove>:
   da370:	4288      	cmp	r0, r1
   da372:	b510      	push	{r4, lr}
   da374:	eb01 0402 	add.w	r4, r1, r2
   da378:	d902      	bls.n	da380 <memmove+0x10>
   da37a:	4284      	cmp	r4, r0
   da37c:	4623      	mov	r3, r4
   da37e:	d807      	bhi.n	da390 <memmove+0x20>
   da380:	1e43      	subs	r3, r0, #1
   da382:	42a1      	cmp	r1, r4
   da384:	d008      	beq.n	da398 <memmove+0x28>
   da386:	f811 2b01 	ldrb.w	r2, [r1], #1
   da38a:	f803 2f01 	strb.w	r2, [r3, #1]!
   da38e:	e7f8      	b.n	da382 <memmove+0x12>
   da390:	4402      	add	r2, r0
   da392:	4601      	mov	r1, r0
   da394:	428a      	cmp	r2, r1
   da396:	d100      	bne.n	da39a <memmove+0x2a>
   da398:	bd10      	pop	{r4, pc}
   da39a:	f813 4d01 	ldrb.w	r4, [r3, #-1]!
   da39e:	f802 4d01 	strb.w	r4, [r2, #-1]!
   da3a2:	e7f7      	b.n	da394 <memmove+0x24>

000da3a4 <memset>:
   da3a4:	4402      	add	r2, r0
   da3a6:	4603      	mov	r3, r0
   da3a8:	4293      	cmp	r3, r2
   da3aa:	d100      	bne.n	da3ae <memset+0xa>
   da3ac:	4770      	bx	lr
   da3ae:	f803 1b01 	strb.w	r1, [r3], #1
   da3b2:	e7f9      	b.n	da3a8 <memset+0x4>

000da3b4 <_calloc_r>:
   da3b4:	b513      	push	{r0, r1, r4, lr}
   da3b6:	434a      	muls	r2, r1
   da3b8:	4611      	mov	r1, r2
   da3ba:	9201      	str	r2, [sp, #4]
   da3bc:	f7fc fdfe 	bl	d6fbc <_malloc_r>
   da3c0:	4604      	mov	r4, r0
   da3c2:	b118      	cbz	r0, da3cc <_calloc_r+0x18>
   da3c4:	9a01      	ldr	r2, [sp, #4]
   da3c6:	2100      	movs	r1, #0
   da3c8:	f7ff ffec 	bl	da3a4 <memset>
   da3cc:	4620      	mov	r0, r4
   da3ce:	b002      	add	sp, #8
   da3d0:	bd10      	pop	{r4, pc}
	...

000da3d4 <srand>:
   da3d4:	b538      	push	{r3, r4, r5, lr}
   da3d6:	4b0d      	ldr	r3, [pc, #52]	; (da40c <srand+0x38>)
   da3d8:	681d      	ldr	r5, [r3, #0]
   da3da:	6bab      	ldr	r3, [r5, #56]	; 0x38
   da3dc:	4604      	mov	r4, r0
   da3de:	b97b      	cbnz	r3, da400 <srand+0x2c>
   da3e0:	2018      	movs	r0, #24
   da3e2:	f7fc fdc3 	bl	d6f6c <malloc>
   da3e6:	4a0a      	ldr	r2, [pc, #40]	; (da410 <srand+0x3c>)
   da3e8:	4b0a      	ldr	r3, [pc, #40]	; (da414 <srand+0x40>)
   da3ea:	63a8      	str	r0, [r5, #56]	; 0x38
   da3ec:	e9c0 2300 	strd	r2, r3, [r0]
   da3f0:	4b09      	ldr	r3, [pc, #36]	; (da418 <srand+0x44>)
   da3f2:	6083      	str	r3, [r0, #8]
   da3f4:	230b      	movs	r3, #11
   da3f6:	8183      	strh	r3, [r0, #12]
   da3f8:	2201      	movs	r2, #1
   da3fa:	2300      	movs	r3, #0
   da3fc:	e9c0 2304 	strd	r2, r3, [r0, #16]
   da400:	6bab      	ldr	r3, [r5, #56]	; 0x38
   da402:	2200      	movs	r2, #0
   da404:	611c      	str	r4, [r3, #16]
   da406:	615a      	str	r2, [r3, #20]
   da408:	bd38      	pop	{r3, r4, r5, pc}
   da40a:	bf00      	nop
   da40c:	2003e29c 	.word	0x2003e29c
   da410:	abcd330e 	.word	0xabcd330e
   da414:	e66d1234 	.word	0xe66d1234
   da418:	0005deec 	.word	0x0005deec

000da41c <strchr>:
   da41c:	b2c9      	uxtb	r1, r1
   da41e:	4603      	mov	r3, r0
   da420:	f810 2b01 	ldrb.w	r2, [r0], #1
   da424:	b11a      	cbz	r2, da42e <strchr+0x12>
   da426:	428a      	cmp	r2, r1
   da428:	d1f9      	bne.n	da41e <strchr+0x2>
   da42a:	4618      	mov	r0, r3
   da42c:	4770      	bx	lr
   da42e:	2900      	cmp	r1, #0
   da430:	bf18      	it	ne
   da432:	2300      	movne	r3, #0
   da434:	e7f9      	b.n	da42a <strchr+0xe>

000da436 <strcmp>:
   da436:	f810 2b01 	ldrb.w	r2, [r0], #1
   da43a:	f811 3b01 	ldrb.w	r3, [r1], #1
   da43e:	2a01      	cmp	r2, #1
   da440:	bf28      	it	cs
   da442:	429a      	cmpcs	r2, r3
   da444:	d0f7      	beq.n	da436 <strcmp>
   da446:	1ad0      	subs	r0, r2, r3
   da448:	4770      	bx	lr

000da44a <strcpy>:
   da44a:	4603      	mov	r3, r0
   da44c:	f811 2b01 	ldrb.w	r2, [r1], #1
   da450:	f803 2b01 	strb.w	r2, [r3], #1
   da454:	2a00      	cmp	r2, #0
   da456:	d1f9      	bne.n	da44c <strcpy+0x2>
   da458:	4770      	bx	lr
	...

000da45c <strdup>:
   da45c:	4b02      	ldr	r3, [pc, #8]	; (da468 <strdup+0xc>)
   da45e:	4601      	mov	r1, r0
   da460:	6818      	ldr	r0, [r3, #0]
   da462:	f000 b803 	b.w	da46c <_strdup_r>
   da466:	bf00      	nop
   da468:	2003e29c 	.word	0x2003e29c

000da46c <_strdup_r>:
   da46c:	b537      	push	{r0, r1, r2, r4, r5, lr}
   da46e:	4604      	mov	r4, r0
   da470:	4608      	mov	r0, r1
   da472:	460d      	mov	r5, r1
   da474:	f000 f80f 	bl	da496 <strlen>
   da478:	1c42      	adds	r2, r0, #1
   da47a:	4611      	mov	r1, r2
   da47c:	4620      	mov	r0, r4
   da47e:	9201      	str	r2, [sp, #4]
   da480:	f7fc fd9c 	bl	d6fbc <_malloc_r>
   da484:	4604      	mov	r4, r0
   da486:	b118      	cbz	r0, da490 <_strdup_r+0x24>
   da488:	9a01      	ldr	r2, [sp, #4]
   da48a:	4629      	mov	r1, r5
   da48c:	f7ff ff62 	bl	da354 <memcpy>
   da490:	4620      	mov	r0, r4
   da492:	b003      	add	sp, #12
   da494:	bd30      	pop	{r4, r5, pc}

000da496 <strlen>:
   da496:	4603      	mov	r3, r0
   da498:	f813 2b01 	ldrb.w	r2, [r3], #1
   da49c:	2a00      	cmp	r2, #0
   da49e:	d1fb      	bne.n	da498 <strlen+0x2>
   da4a0:	1a18      	subs	r0, r3, r0
   da4a2:	3801      	subs	r0, #1
   da4a4:	4770      	bx	lr

000da4a6 <strncmp>:
   da4a6:	b510      	push	{r4, lr}
   da4a8:	b16a      	cbz	r2, da4c6 <strncmp+0x20>
   da4aa:	3901      	subs	r1, #1
   da4ac:	1884      	adds	r4, r0, r2
   da4ae:	f810 3b01 	ldrb.w	r3, [r0], #1
   da4b2:	f811 2f01 	ldrb.w	r2, [r1, #1]!
   da4b6:	4293      	cmp	r3, r2
   da4b8:	d103      	bne.n	da4c2 <strncmp+0x1c>
   da4ba:	42a0      	cmp	r0, r4
   da4bc:	d001      	beq.n	da4c2 <strncmp+0x1c>
   da4be:	2b00      	cmp	r3, #0
   da4c0:	d1f5      	bne.n	da4ae <strncmp+0x8>
   da4c2:	1a98      	subs	r0, r3, r2
   da4c4:	bd10      	pop	{r4, pc}
   da4c6:	4610      	mov	r0, r2
   da4c8:	e7fc      	b.n	da4c4 <strncmp+0x1e>

000da4ca <strncpy>:
   da4ca:	b510      	push	{r4, lr}
   da4cc:	3901      	subs	r1, #1
   da4ce:	4603      	mov	r3, r0
   da4d0:	b132      	cbz	r2, da4e0 <strncpy+0x16>
   da4d2:	f811 4f01 	ldrb.w	r4, [r1, #1]!
   da4d6:	f803 4b01 	strb.w	r4, [r3], #1
   da4da:	3a01      	subs	r2, #1
   da4dc:	2c00      	cmp	r4, #0
   da4de:	d1f7      	bne.n	da4d0 <strncpy+0x6>
   da4e0:	441a      	add	r2, r3
   da4e2:	2100      	movs	r1, #0
   da4e4:	4293      	cmp	r3, r2
   da4e6:	d100      	bne.n	da4ea <strncpy+0x20>
   da4e8:	bd10      	pop	{r4, pc}
   da4ea:	f803 1b01 	strb.w	r1, [r3], #1
   da4ee:	e7f9      	b.n	da4e4 <strncpy+0x1a>

000da4f0 <strstr>:
   da4f0:	b5f0      	push	{r4, r5, r6, r7, lr}
   da4f2:	780c      	ldrb	r4, [r1, #0]
   da4f4:	b164      	cbz	r4, da510 <strstr+0x20>
   da4f6:	4603      	mov	r3, r0
   da4f8:	781a      	ldrb	r2, [r3, #0]
   da4fa:	4618      	mov	r0, r3
   da4fc:	1c5e      	adds	r6, r3, #1
   da4fe:	b90a      	cbnz	r2, da504 <strstr+0x14>
   da500:	4610      	mov	r0, r2
   da502:	e005      	b.n	da510 <strstr+0x20>
   da504:	4294      	cmp	r4, r2
   da506:	d108      	bne.n	da51a <strstr+0x2a>
   da508:	460d      	mov	r5, r1
   da50a:	f815 2f01 	ldrb.w	r2, [r5, #1]!
   da50e:	b902      	cbnz	r2, da512 <strstr+0x22>
   da510:	bdf0      	pop	{r4, r5, r6, r7, pc}
   da512:	f813 7f01 	ldrb.w	r7, [r3, #1]!
   da516:	4297      	cmp	r7, r2
   da518:	d0f7      	beq.n	da50a <strstr+0x1a>
   da51a:	4633      	mov	r3, r6
   da51c:	e7ec      	b.n	da4f8 <strstr+0x8>

000da51e <sulp>:
   da51e:	b570      	push	{r4, r5, r6, lr}
   da520:	4604      	mov	r4, r0
   da522:	460d      	mov	r5, r1
   da524:	ec45 4b10 	vmov	d0, r4, r5
   da528:	4616      	mov	r6, r2
   da52a:	f001 fce9 	bl	dbf00 <__ulp>
   da52e:	ec51 0b10 	vmov	r0, r1, d0
   da532:	b17e      	cbz	r6, da554 <sulp+0x36>
   da534:	f3c5 530a 	ubfx	r3, r5, #20, #11
   da538:	f1c3 036b 	rsb	r3, r3, #107	; 0x6b
   da53c:	2b00      	cmp	r3, #0
   da53e:	dd09      	ble.n	da554 <sulp+0x36>
   da540:	051b      	lsls	r3, r3, #20
   da542:	f103 557f 	add.w	r5, r3, #1069547520	; 0x3fc00000
   da546:	2400      	movs	r4, #0
   da548:	f505 1540 	add.w	r5, r5, #3145728	; 0x300000
   da54c:	4622      	mov	r2, r4
   da54e:	462b      	mov	r3, r5
   da550:	f7ff fa42 	bl	d99d8 <__aeabi_dmul>
   da554:	bd70      	pop	{r4, r5, r6, pc}
	...

000da558 <_strtod_l>:
   da558:	e92d 4ff0 	stmdb	sp!, {r4, r5, r6, r7, r8, r9, sl, fp, lr}
   da55c:	b0a3      	sub	sp, #140	; 0x8c
   da55e:	461f      	mov	r7, r3
   da560:	2300      	movs	r3, #0
   da562:	931e      	str	r3, [sp, #120]	; 0x78
   da564:	4ba4      	ldr	r3, [pc, #656]	; (da7f8 <_strtod_l+0x2a0>)
   da566:	9219      	str	r2, [sp, #100]	; 0x64
   da568:	681b      	ldr	r3, [r3, #0]
   da56a:	9307      	str	r3, [sp, #28]
   da56c:	4604      	mov	r4, r0
   da56e:	4618      	mov	r0, r3
   da570:	4688      	mov	r8, r1
   da572:	f7ff ff90 	bl	da496 <strlen>
   da576:	f04f 0a00 	mov.w	sl, #0
   da57a:	4605      	mov	r5, r0
   da57c:	f04f 0b00 	mov.w	fp, #0
   da580:	f8cd 8074 	str.w	r8, [sp, #116]	; 0x74
   da584:	9b1d      	ldr	r3, [sp, #116]	; 0x74
   da586:	781a      	ldrb	r2, [r3, #0]
   da588:	2a2b      	cmp	r2, #43	; 0x2b
   da58a:	d04c      	beq.n	da626 <_strtod_l+0xce>
   da58c:	d839      	bhi.n	da602 <_strtod_l+0xaa>
   da58e:	2a0d      	cmp	r2, #13
   da590:	d832      	bhi.n	da5f8 <_strtod_l+0xa0>
   da592:	2a08      	cmp	r2, #8
   da594:	d832      	bhi.n	da5fc <_strtod_l+0xa4>
   da596:	2a00      	cmp	r2, #0
   da598:	d03c      	beq.n	da614 <_strtod_l+0xbc>
   da59a:	2300      	movs	r3, #0
   da59c:	930e      	str	r3, [sp, #56]	; 0x38
   da59e:	9e1d      	ldr	r6, [sp, #116]	; 0x74
   da5a0:	7833      	ldrb	r3, [r6, #0]
   da5a2:	2b30      	cmp	r3, #48	; 0x30
   da5a4:	f040 80b4 	bne.w	da710 <_strtod_l+0x1b8>
   da5a8:	7873      	ldrb	r3, [r6, #1]
   da5aa:	f003 03df 	and.w	r3, r3, #223	; 0xdf
   da5ae:	2b58      	cmp	r3, #88	; 0x58
   da5b0:	d16c      	bne.n	da68c <_strtod_l+0x134>
   da5b2:	9b0e      	ldr	r3, [sp, #56]	; 0x38
   da5b4:	9301      	str	r3, [sp, #4]
   da5b6:	ab1e      	add	r3, sp, #120	; 0x78
   da5b8:	9702      	str	r7, [sp, #8]
   da5ba:	9300      	str	r3, [sp, #0]
   da5bc:	4a8f      	ldr	r2, [pc, #572]	; (da7fc <_strtod_l+0x2a4>)
   da5be:	ab1f      	add	r3, sp, #124	; 0x7c
   da5c0:	a91d      	add	r1, sp, #116	; 0x74
   da5c2:	4620      	mov	r0, r4
   da5c4:	f000 fe98 	bl	db2f8 <__gethex>
   da5c8:	f010 0707 	ands.w	r7, r0, #7
   da5cc:	4605      	mov	r5, r0
   da5ce:	d005      	beq.n	da5dc <_strtod_l+0x84>
   da5d0:	2f06      	cmp	r7, #6
   da5d2:	d12a      	bne.n	da62a <_strtod_l+0xd2>
   da5d4:	3601      	adds	r6, #1
   da5d6:	2300      	movs	r3, #0
   da5d8:	961d      	str	r6, [sp, #116]	; 0x74
   da5da:	930e      	str	r3, [sp, #56]	; 0x38
   da5dc:	9b19      	ldr	r3, [sp, #100]	; 0x64
   da5de:	2b00      	cmp	r3, #0
   da5e0:	f040 8596 	bne.w	db110 <_strtod_l+0xbb8>
   da5e4:	9b0e      	ldr	r3, [sp, #56]	; 0x38
   da5e6:	b1db      	cbz	r3, da620 <_strtod_l+0xc8>
   da5e8:	4652      	mov	r2, sl
   da5ea:	f10b 4300 	add.w	r3, fp, #2147483648	; 0x80000000
   da5ee:	ec43 2b10 	vmov	d0, r2, r3
   da5f2:	b023      	add	sp, #140	; 0x8c
   da5f4:	e8bd 8ff0 	ldmia.w	sp!, {r4, r5, r6, r7, r8, r9, sl, fp, pc}
   da5f8:	2a20      	cmp	r2, #32
   da5fa:	d1ce      	bne.n	da59a <_strtod_l+0x42>
   da5fc:	3301      	adds	r3, #1
   da5fe:	931d      	str	r3, [sp, #116]	; 0x74
   da600:	e7c0      	b.n	da584 <_strtod_l+0x2c>
   da602:	2a2d      	cmp	r2, #45	; 0x2d
   da604:	d1c9      	bne.n	da59a <_strtod_l+0x42>
   da606:	2201      	movs	r2, #1
   da608:	920e      	str	r2, [sp, #56]	; 0x38
   da60a:	1c5a      	adds	r2, r3, #1
   da60c:	921d      	str	r2, [sp, #116]	; 0x74
   da60e:	785b      	ldrb	r3, [r3, #1]
   da610:	2b00      	cmp	r3, #0
   da612:	d1c4      	bne.n	da59e <_strtod_l+0x46>
   da614:	9b19      	ldr	r3, [sp, #100]	; 0x64
   da616:	f8cd 8074 	str.w	r8, [sp, #116]	; 0x74
   da61a:	2b00      	cmp	r3, #0
   da61c:	f040 8576 	bne.w	db10c <_strtod_l+0xbb4>
   da620:	4652      	mov	r2, sl
   da622:	465b      	mov	r3, fp
   da624:	e7e3      	b.n	da5ee <_strtod_l+0x96>
   da626:	2200      	movs	r2, #0
   da628:	e7ee      	b.n	da608 <_strtod_l+0xb0>
   da62a:	9a1e      	ldr	r2, [sp, #120]	; 0x78
   da62c:	b13a      	cbz	r2, da63e <_strtod_l+0xe6>
   da62e:	2135      	movs	r1, #53	; 0x35
   da630:	a820      	add	r0, sp, #128	; 0x80
   da632:	f001 fd64 	bl	dc0fe <__copybits>
   da636:	991e      	ldr	r1, [sp, #120]	; 0x78
   da638:	4620      	mov	r0, r4
   da63a:	f001 f999 	bl	db970 <_Bfree>
   da63e:	3f01      	subs	r7, #1
   da640:	2f05      	cmp	r7, #5
   da642:	d807      	bhi.n	da654 <_strtod_l+0xfc>
   da644:	e8df f007 	tbb	[pc, r7]
   da648:	1d180b0e 	.word	0x1d180b0e
   da64c:	030e      	.short	0x030e
   da64e:	f04f 0b00 	mov.w	fp, #0
   da652:	46da      	mov	sl, fp
   da654:	0728      	lsls	r0, r5, #28
   da656:	d5c1      	bpl.n	da5dc <_strtod_l+0x84>
   da658:	f04b 4b00 	orr.w	fp, fp, #2147483648	; 0x80000000
   da65c:	e7be      	b.n	da5dc <_strtod_l+0x84>
   da65e:	e9dd ab20 	ldrd	sl, fp, [sp, #128]	; 0x80
   da662:	e7f7      	b.n	da654 <_strtod_l+0xfc>
   da664:	e9dd a320 	ldrd	sl, r3, [sp, #128]	; 0x80
   da668:	9a1f      	ldr	r2, [sp, #124]	; 0x7c
   da66a:	f423 1380 	bic.w	r3, r3, #1048576	; 0x100000
   da66e:	f202 4233 	addw	r2, r2, #1075	; 0x433
   da672:	ea43 5b02 	orr.w	fp, r3, r2, lsl #20
   da676:	e7ed      	b.n	da654 <_strtod_l+0xfc>
   da678:	f8df b184 	ldr.w	fp, [pc, #388]	; da800 <_strtod_l+0x2a8>
   da67c:	f04f 0a00 	mov.w	sl, #0
   da680:	e7e8      	b.n	da654 <_strtod_l+0xfc>
   da682:	f06f 4b00 	mvn.w	fp, #2147483648	; 0x80000000
   da686:	f04f 3aff 	mov.w	sl, #4294967295	; 0xffffffff
   da68a:	e7e3      	b.n	da654 <_strtod_l+0xfc>
   da68c:	9b1d      	ldr	r3, [sp, #116]	; 0x74
   da68e:	1c5a      	adds	r2, r3, #1
   da690:	921d      	str	r2, [sp, #116]	; 0x74
   da692:	785b      	ldrb	r3, [r3, #1]
   da694:	2b30      	cmp	r3, #48	; 0x30
   da696:	d0f9      	beq.n	da68c <_strtod_l+0x134>
   da698:	2b00      	cmp	r3, #0
   da69a:	d09f      	beq.n	da5dc <_strtod_l+0x84>
   da69c:	2301      	movs	r3, #1
   da69e:	f04f 0900 	mov.w	r9, #0
   da6a2:	9304      	str	r3, [sp, #16]
   da6a4:	9b1d      	ldr	r3, [sp, #116]	; 0x74
   da6a6:	930a      	str	r3, [sp, #40]	; 0x28
   da6a8:	f8cd 9024 	str.w	r9, [sp, #36]	; 0x24
   da6ac:	464f      	mov	r7, r9
   da6ae:	220a      	movs	r2, #10
   da6b0:	981d      	ldr	r0, [sp, #116]	; 0x74
   da6b2:	7806      	ldrb	r6, [r0, #0]
   da6b4:	f1a6 0330 	sub.w	r3, r6, #48	; 0x30
   da6b8:	b2d9      	uxtb	r1, r3
   da6ba:	2909      	cmp	r1, #9
   da6bc:	d92a      	bls.n	da714 <_strtod_l+0x1bc>
   da6be:	9907      	ldr	r1, [sp, #28]
   da6c0:	462a      	mov	r2, r5
   da6c2:	f7ff fef0 	bl	da4a6 <strncmp>
   da6c6:	b398      	cbz	r0, da730 <_strtod_l+0x1d8>
   da6c8:	2000      	movs	r0, #0
   da6ca:	4633      	mov	r3, r6
   da6cc:	463d      	mov	r5, r7
   da6ce:	9007      	str	r0, [sp, #28]
   da6d0:	4602      	mov	r2, r0
   da6d2:	2b65      	cmp	r3, #101	; 0x65
   da6d4:	d001      	beq.n	da6da <_strtod_l+0x182>
   da6d6:	2b45      	cmp	r3, #69	; 0x45
   da6d8:	d118      	bne.n	da70c <_strtod_l+0x1b4>
   da6da:	b91d      	cbnz	r5, da6e4 <_strtod_l+0x18c>
   da6dc:	9b04      	ldr	r3, [sp, #16]
   da6de:	4303      	orrs	r3, r0
   da6e0:	d098      	beq.n	da614 <_strtod_l+0xbc>
   da6e2:	2500      	movs	r5, #0
   da6e4:	f8dd 8074 	ldr.w	r8, [sp, #116]	; 0x74
   da6e8:	f108 0301 	add.w	r3, r8, #1
   da6ec:	931d      	str	r3, [sp, #116]	; 0x74
   da6ee:	f898 3001 	ldrb.w	r3, [r8, #1]
   da6f2:	2b2b      	cmp	r3, #43	; 0x2b
   da6f4:	d075      	beq.n	da7e2 <_strtod_l+0x28a>
   da6f6:	2b2d      	cmp	r3, #45	; 0x2d
   da6f8:	d07b      	beq.n	da7f2 <_strtod_l+0x29a>
   da6fa:	f04f 0c00 	mov.w	ip, #0
   da6fe:	f1a3 0130 	sub.w	r1, r3, #48	; 0x30
   da702:	2909      	cmp	r1, #9
   da704:	f240 8082 	bls.w	da80c <_strtod_l+0x2b4>
   da708:	f8cd 8074 	str.w	r8, [sp, #116]	; 0x74
   da70c:	2600      	movs	r6, #0
   da70e:	e09d      	b.n	da84c <_strtod_l+0x2f4>
   da710:	2300      	movs	r3, #0
   da712:	e7c4      	b.n	da69e <_strtod_l+0x146>
   da714:	2f08      	cmp	r7, #8
   da716:	bfd8      	it	le
   da718:	9909      	ldrle	r1, [sp, #36]	; 0x24
   da71a:	f100 0001 	add.w	r0, r0, #1
   da71e:	bfda      	itte	le
   da720:	fb02 3301 	mlale	r3, r2, r1, r3
   da724:	9309      	strle	r3, [sp, #36]	; 0x24
   da726:	fb02 3909 	mlagt	r9, r2, r9, r3
   da72a:	3701      	adds	r7, #1
   da72c:	901d      	str	r0, [sp, #116]	; 0x74
   da72e:	e7bf      	b.n	da6b0 <_strtod_l+0x158>
   da730:	9b1d      	ldr	r3, [sp, #116]	; 0x74
   da732:	195a      	adds	r2, r3, r5
   da734:	921d      	str	r2, [sp, #116]	; 0x74
   da736:	5d5b      	ldrb	r3, [r3, r5]
   da738:	2f00      	cmp	r7, #0
   da73a:	d037      	beq.n	da7ac <_strtod_l+0x254>
   da73c:	9007      	str	r0, [sp, #28]
   da73e:	463d      	mov	r5, r7
   da740:	f1a3 0230 	sub.w	r2, r3, #48	; 0x30
   da744:	2a09      	cmp	r2, #9
   da746:	d912      	bls.n	da76e <_strtod_l+0x216>
   da748:	2201      	movs	r2, #1
   da74a:	e7c2      	b.n	da6d2 <_strtod_l+0x17a>
   da74c:	9b1d      	ldr	r3, [sp, #116]	; 0x74
   da74e:	1c5a      	adds	r2, r3, #1
   da750:	921d      	str	r2, [sp, #116]	; 0x74
   da752:	785b      	ldrb	r3, [r3, #1]
   da754:	3001      	adds	r0, #1
   da756:	2b30      	cmp	r3, #48	; 0x30
   da758:	d0f8      	beq.n	da74c <_strtod_l+0x1f4>
   da75a:	f1a3 0231 	sub.w	r2, r3, #49	; 0x31
   da75e:	2a08      	cmp	r2, #8
   da760:	f200 84db 	bhi.w	db11a <_strtod_l+0xbc2>
   da764:	9a1d      	ldr	r2, [sp, #116]	; 0x74
   da766:	9007      	str	r0, [sp, #28]
   da768:	2000      	movs	r0, #0
   da76a:	920a      	str	r2, [sp, #40]	; 0x28
   da76c:	4605      	mov	r5, r0
   da76e:	3b30      	subs	r3, #48	; 0x30
   da770:	f100 0201 	add.w	r2, r0, #1
   da774:	d014      	beq.n	da7a0 <_strtod_l+0x248>
   da776:	9907      	ldr	r1, [sp, #28]
   da778:	4411      	add	r1, r2
   da77a:	9107      	str	r1, [sp, #28]
   da77c:	462a      	mov	r2, r5
   da77e:	eb00 0e05 	add.w	lr, r0, r5
   da782:	210a      	movs	r1, #10
   da784:	4572      	cmp	r2, lr
   da786:	d113      	bne.n	da7b0 <_strtod_l+0x258>
   da788:	182a      	adds	r2, r5, r0
   da78a:	2a08      	cmp	r2, #8
   da78c:	f105 0501 	add.w	r5, r5, #1
   da790:	4405      	add	r5, r0
   da792:	dc1c      	bgt.n	da7ce <_strtod_l+0x276>
   da794:	9909      	ldr	r1, [sp, #36]	; 0x24
   da796:	220a      	movs	r2, #10
   da798:	fb02 3301 	mla	r3, r2, r1, r3
   da79c:	9309      	str	r3, [sp, #36]	; 0x24
   da79e:	2200      	movs	r2, #0
   da7a0:	9b1d      	ldr	r3, [sp, #116]	; 0x74
   da7a2:	1c59      	adds	r1, r3, #1
   da7a4:	911d      	str	r1, [sp, #116]	; 0x74
   da7a6:	785b      	ldrb	r3, [r3, #1]
   da7a8:	4610      	mov	r0, r2
   da7aa:	e7c9      	b.n	da740 <_strtod_l+0x1e8>
   da7ac:	4638      	mov	r0, r7
   da7ae:	e7d2      	b.n	da756 <_strtod_l+0x1fe>
   da7b0:	2a08      	cmp	r2, #8
   da7b2:	dc04      	bgt.n	da7be <_strtod_l+0x266>
   da7b4:	9e09      	ldr	r6, [sp, #36]	; 0x24
   da7b6:	434e      	muls	r6, r1
   da7b8:	9609      	str	r6, [sp, #36]	; 0x24
   da7ba:	3201      	adds	r2, #1
   da7bc:	e7e2      	b.n	da784 <_strtod_l+0x22c>
   da7be:	f102 0c01 	add.w	ip, r2, #1
   da7c2:	f1bc 0f10 	cmp.w	ip, #16
   da7c6:	bfd8      	it	le
   da7c8:	fb01 f909 	mulle.w	r9, r1, r9
   da7cc:	e7f5      	b.n	da7ba <_strtod_l+0x262>
   da7ce:	2d10      	cmp	r5, #16
   da7d0:	bfdc      	itt	le
   da7d2:	220a      	movle	r2, #10
   da7d4:	fb02 3909 	mlale	r9, r2, r9, r3
   da7d8:	e7e1      	b.n	da79e <_strtod_l+0x246>
   da7da:	2300      	movs	r3, #0
   da7dc:	9307      	str	r3, [sp, #28]
   da7de:	2201      	movs	r2, #1
   da7e0:	e77c      	b.n	da6dc <_strtod_l+0x184>
   da7e2:	f04f 0c00 	mov.w	ip, #0
   da7e6:	f108 0302 	add.w	r3, r8, #2
   da7ea:	931d      	str	r3, [sp, #116]	; 0x74
   da7ec:	f898 3002 	ldrb.w	r3, [r8, #2]
   da7f0:	e785      	b.n	da6fe <_strtod_l+0x1a6>
   da7f2:	f04f 0c01 	mov.w	ip, #1
   da7f6:	e7f6      	b.n	da7e6 <_strtod_l+0x28e>
   da7f8:	000dcfcc 	.word	0x000dcfcc
   da7fc:	000dce74 	.word	0x000dce74
   da800:	7ff00000 	.word	0x7ff00000
   da804:	9b1d      	ldr	r3, [sp, #116]	; 0x74
   da806:	1c59      	adds	r1, r3, #1
   da808:	911d      	str	r1, [sp, #116]	; 0x74
   da80a:	785b      	ldrb	r3, [r3, #1]
   da80c:	2b30      	cmp	r3, #48	; 0x30
   da80e:	d0f9      	beq.n	da804 <_strtod_l+0x2ac>
   da810:	f1a3 0131 	sub.w	r1, r3, #49	; 0x31
   da814:	2908      	cmp	r1, #8
   da816:	f63f af79 	bhi.w	da70c <_strtod_l+0x1b4>
   da81a:	f1a3 0e30 	sub.w	lr, r3, #48	; 0x30
   da81e:	9b1d      	ldr	r3, [sp, #116]	; 0x74
   da820:	9308      	str	r3, [sp, #32]
   da822:	9b1d      	ldr	r3, [sp, #116]	; 0x74
   da824:	1c59      	adds	r1, r3, #1
   da826:	911d      	str	r1, [sp, #116]	; 0x74
   da828:	785b      	ldrb	r3, [r3, #1]
   da82a:	f1a3 0630 	sub.w	r6, r3, #48	; 0x30
   da82e:	2e09      	cmp	r6, #9
   da830:	d937      	bls.n	da8a2 <_strtod_l+0x34a>
   da832:	9e08      	ldr	r6, [sp, #32]
   da834:	1b89      	subs	r1, r1, r6
   da836:	2908      	cmp	r1, #8
   da838:	f644 661f 	movw	r6, #19999	; 0x4e1f
   da83c:	dc02      	bgt.n	da844 <_strtod_l+0x2ec>
   da83e:	4576      	cmp	r6, lr
   da840:	bfa8      	it	ge
   da842:	4676      	movge	r6, lr
   da844:	f1bc 0f00 	cmp.w	ip, #0
   da848:	d000      	beq.n	da84c <_strtod_l+0x2f4>
   da84a:	4276      	negs	r6, r6
   da84c:	2d00      	cmp	r5, #0
   da84e:	d14f      	bne.n	da8f0 <_strtod_l+0x398>
   da850:	9904      	ldr	r1, [sp, #16]
   da852:	4301      	orrs	r1, r0
   da854:	f47f aec2 	bne.w	da5dc <_strtod_l+0x84>
   da858:	2a00      	cmp	r2, #0
   da85a:	f47f aedb 	bne.w	da614 <_strtod_l+0xbc>
   da85e:	2b69      	cmp	r3, #105	; 0x69
   da860:	d027      	beq.n	da8b2 <_strtod_l+0x35a>
   da862:	dc24      	bgt.n	da8ae <_strtod_l+0x356>
   da864:	2b49      	cmp	r3, #73	; 0x49
   da866:	d024      	beq.n	da8b2 <_strtod_l+0x35a>
   da868:	2b4e      	cmp	r3, #78	; 0x4e
   da86a:	f47f aed3 	bne.w	da614 <_strtod_l+0xbc>
   da86e:	499e      	ldr	r1, [pc, #632]	; (daae8 <_strtod_l+0x590>)
   da870:	a81d      	add	r0, sp, #116	; 0x74
   da872:	f000 ff87 	bl	db784 <__match>
   da876:	2800      	cmp	r0, #0
   da878:	f43f aecc 	beq.w	da614 <_strtod_l+0xbc>
   da87c:	9b1d      	ldr	r3, [sp, #116]	; 0x74
   da87e:	781b      	ldrb	r3, [r3, #0]
   da880:	2b28      	cmp	r3, #40	; 0x28
   da882:	d12d      	bne.n	da8e0 <_strtod_l+0x388>
   da884:	4999      	ldr	r1, [pc, #612]	; (daaec <_strtod_l+0x594>)
   da886:	aa20      	add	r2, sp, #128	; 0x80
   da888:	a81d      	add	r0, sp, #116	; 0x74
   da88a:	f000 ff8f 	bl	db7ac <__hexnan>
   da88e:	2805      	cmp	r0, #5
   da890:	d126      	bne.n	da8e0 <_strtod_l+0x388>
   da892:	9b21      	ldr	r3, [sp, #132]	; 0x84
   da894:	f8dd a080 	ldr.w	sl, [sp, #128]	; 0x80
   da898:	f043 4bff 	orr.w	fp, r3, #2139095040	; 0x7f800000
   da89c:	f44b 0be0 	orr.w	fp, fp, #7340032	; 0x700000
   da8a0:	e69c      	b.n	da5dc <_strtod_l+0x84>
   da8a2:	210a      	movs	r1, #10
   da8a4:	fb01 3e0e 	mla	lr, r1, lr, r3
   da8a8:	f1ae 0e30 	sub.w	lr, lr, #48	; 0x30
   da8ac:	e7b9      	b.n	da822 <_strtod_l+0x2ca>
   da8ae:	2b6e      	cmp	r3, #110	; 0x6e
   da8b0:	e7db      	b.n	da86a <_strtod_l+0x312>
   da8b2:	498f      	ldr	r1, [pc, #572]	; (daaf0 <_strtod_l+0x598>)
   da8b4:	a81d      	add	r0, sp, #116	; 0x74
   da8b6:	f000 ff65 	bl	db784 <__match>
   da8ba:	2800      	cmp	r0, #0
   da8bc:	f43f aeaa 	beq.w	da614 <_strtod_l+0xbc>
   da8c0:	9b1d      	ldr	r3, [sp, #116]	; 0x74
   da8c2:	498c      	ldr	r1, [pc, #560]	; (daaf4 <_strtod_l+0x59c>)
   da8c4:	3b01      	subs	r3, #1
   da8c6:	a81d      	add	r0, sp, #116	; 0x74
   da8c8:	931d      	str	r3, [sp, #116]	; 0x74
   da8ca:	f000 ff5b 	bl	db784 <__match>
   da8ce:	b910      	cbnz	r0, da8d6 <_strtod_l+0x37e>
   da8d0:	9b1d      	ldr	r3, [sp, #116]	; 0x74
   da8d2:	3301      	adds	r3, #1
   da8d4:	931d      	str	r3, [sp, #116]	; 0x74
   da8d6:	f8df b22c 	ldr.w	fp, [pc, #556]	; dab04 <_strtod_l+0x5ac>
   da8da:	f04f 0a00 	mov.w	sl, #0
   da8de:	e67d      	b.n	da5dc <_strtod_l+0x84>
   da8e0:	4885      	ldr	r0, [pc, #532]	; (daaf8 <_strtod_l+0x5a0>)
   da8e2:	f7fe feb5 	bl	d9650 <nan>
   da8e6:	ed8d 0b04 	vstr	d0, [sp, #16]
   da8ea:	e9dd ab04 	ldrd	sl, fp, [sp, #16]
   da8ee:	e675      	b.n	da5dc <_strtod_l+0x84>
   da8f0:	9b07      	ldr	r3, [sp, #28]
   da8f2:	9809      	ldr	r0, [sp, #36]	; 0x24
   da8f4:	1af3      	subs	r3, r6, r3
   da8f6:	2f00      	cmp	r7, #0
   da8f8:	bf08      	it	eq
   da8fa:	462f      	moveq	r7, r5
   da8fc:	2d10      	cmp	r5, #16
   da8fe:	9308      	str	r3, [sp, #32]
   da900:	46a8      	mov	r8, r5
   da902:	bfa8      	it	ge
   da904:	f04f 0810 	movge.w	r8, #16
   da908:	f7fe ffec 	bl	d98e4 <__aeabi_ui2d>
   da90c:	2d09      	cmp	r5, #9
   da90e:	4682      	mov	sl, r0
   da910:	468b      	mov	fp, r1
   da912:	dd13      	ble.n	da93c <_strtod_l+0x3e4>
   da914:	4b79      	ldr	r3, [pc, #484]	; (daafc <_strtod_l+0x5a4>)
   da916:	eb03 03c8 	add.w	r3, r3, r8, lsl #3
   da91a:	e953 2312 	ldrd	r2, r3, [r3, #-72]	; 0x48
   da91e:	f7ff f85b 	bl	d99d8 <__aeabi_dmul>
   da922:	4682      	mov	sl, r0
   da924:	4648      	mov	r0, r9
   da926:	468b      	mov	fp, r1
   da928:	f7fe ffdc 	bl	d98e4 <__aeabi_ui2d>
   da92c:	4602      	mov	r2, r0
   da92e:	460b      	mov	r3, r1
   da930:	4650      	mov	r0, sl
   da932:	4659      	mov	r1, fp
   da934:	f7fe fe9a 	bl	d966c <__adddf3>
   da938:	4682      	mov	sl, r0
   da93a:	468b      	mov	fp, r1
   da93c:	2d0f      	cmp	r5, #15
   da93e:	dc38      	bgt.n	da9b2 <_strtod_l+0x45a>
   da940:	9b08      	ldr	r3, [sp, #32]
   da942:	2b00      	cmp	r3, #0
   da944:	f43f ae4a 	beq.w	da5dc <_strtod_l+0x84>
   da948:	dd24      	ble.n	da994 <_strtod_l+0x43c>
   da94a:	2b16      	cmp	r3, #22
   da94c:	dc0b      	bgt.n	da966 <_strtod_l+0x40e>
   da94e:	4d6b      	ldr	r5, [pc, #428]	; (daafc <_strtod_l+0x5a4>)
   da950:	eb05 05c3 	add.w	r5, r5, r3, lsl #3
   da954:	e9d5 0100 	ldrd	r0, r1, [r5]
   da958:	4652      	mov	r2, sl
   da95a:	465b      	mov	r3, fp
   da95c:	f7ff f83c 	bl	d99d8 <__aeabi_dmul>
   da960:	4682      	mov	sl, r0
   da962:	468b      	mov	fp, r1
   da964:	e63a      	b.n	da5dc <_strtod_l+0x84>
   da966:	9a08      	ldr	r2, [sp, #32]
   da968:	f1c5 0325 	rsb	r3, r5, #37	; 0x25
   da96c:	4293      	cmp	r3, r2
   da96e:	db20      	blt.n	da9b2 <_strtod_l+0x45a>
   da970:	4c62      	ldr	r4, [pc, #392]	; (daafc <_strtod_l+0x5a4>)
   da972:	f1c5 050f 	rsb	r5, r5, #15
   da976:	eb04 01c5 	add.w	r1, r4, r5, lsl #3
   da97a:	4652      	mov	r2, sl
   da97c:	465b      	mov	r3, fp
   da97e:	e9d1 0100 	ldrd	r0, r1, [r1]
   da982:	f7ff f829 	bl	d99d8 <__aeabi_dmul>
   da986:	9b08      	ldr	r3, [sp, #32]
   da988:	1b5d      	subs	r5, r3, r5
   da98a:	eb04 04c5 	add.w	r4, r4, r5, lsl #3
   da98e:	e9d4 2300 	ldrd	r2, r3, [r4]
   da992:	e7e3      	b.n	da95c <_strtod_l+0x404>
   da994:	9b08      	ldr	r3, [sp, #32]
   da996:	3316      	adds	r3, #22
   da998:	db0b      	blt.n	da9b2 <_strtod_l+0x45a>
   da99a:	9b07      	ldr	r3, [sp, #28]
   da99c:	4a57      	ldr	r2, [pc, #348]	; (daafc <_strtod_l+0x5a4>)
   da99e:	1b9e      	subs	r6, r3, r6
   da9a0:	eb02 06c6 	add.w	r6, r2, r6, lsl #3
   da9a4:	e9d6 2300 	ldrd	r2, r3, [r6]
   da9a8:	4650      	mov	r0, sl
   da9aa:	4659      	mov	r1, fp
   da9ac:	f7ff f93e 	bl	d9c2c <__aeabi_ddiv>
   da9b0:	e7d6      	b.n	da960 <_strtod_l+0x408>
   da9b2:	9b08      	ldr	r3, [sp, #32]
   da9b4:	eba5 0808 	sub.w	r8, r5, r8
   da9b8:	4498      	add	r8, r3
   da9ba:	f1b8 0f00 	cmp.w	r8, #0
   da9be:	dd71      	ble.n	daaa4 <_strtod_l+0x54c>
   da9c0:	f018 030f 	ands.w	r3, r8, #15
   da9c4:	d00a      	beq.n	da9dc <_strtod_l+0x484>
   da9c6:	494d      	ldr	r1, [pc, #308]	; (daafc <_strtod_l+0x5a4>)
   da9c8:	eb01 01c3 	add.w	r1, r1, r3, lsl #3
   da9cc:	4652      	mov	r2, sl
   da9ce:	465b      	mov	r3, fp
   da9d0:	e9d1 0100 	ldrd	r0, r1, [r1]
   da9d4:	f7ff f800 	bl	d99d8 <__aeabi_dmul>
   da9d8:	4682      	mov	sl, r0
   da9da:	468b      	mov	fp, r1
   da9dc:	f038 080f 	bics.w	r8, r8, #15
   da9e0:	d04d      	beq.n	daa7e <_strtod_l+0x526>
   da9e2:	f5b8 7f9a 	cmp.w	r8, #308	; 0x134
   da9e6:	dd22      	ble.n	daa2e <_strtod_l+0x4d6>
   da9e8:	2500      	movs	r5, #0
   da9ea:	462e      	mov	r6, r5
   da9ec:	9509      	str	r5, [sp, #36]	; 0x24
   da9ee:	9507      	str	r5, [sp, #28]
   da9f0:	2322      	movs	r3, #34	; 0x22
   da9f2:	f8df b110 	ldr.w	fp, [pc, #272]	; dab04 <_strtod_l+0x5ac>
   da9f6:	6023      	str	r3, [r4, #0]
   da9f8:	f04f 0a00 	mov.w	sl, #0
   da9fc:	9b09      	ldr	r3, [sp, #36]	; 0x24
   da9fe:	2b00      	cmp	r3, #0
   daa00:	f43f adec 	beq.w	da5dc <_strtod_l+0x84>
   daa04:	991e      	ldr	r1, [sp, #120]	; 0x78
   daa06:	4620      	mov	r0, r4
   daa08:	f000 ffb2 	bl	db970 <_Bfree>
   daa0c:	9907      	ldr	r1, [sp, #28]
   daa0e:	4620      	mov	r0, r4
   daa10:	f000 ffae 	bl	db970 <_Bfree>
   daa14:	4631      	mov	r1, r6
   daa16:	4620      	mov	r0, r4
   daa18:	f000 ffaa 	bl	db970 <_Bfree>
   daa1c:	9909      	ldr	r1, [sp, #36]	; 0x24
   daa1e:	4620      	mov	r0, r4
   daa20:	f000 ffa6 	bl	db970 <_Bfree>
   daa24:	4629      	mov	r1, r5
   daa26:	4620      	mov	r0, r4
   daa28:	f000 ffa2 	bl	db970 <_Bfree>
   daa2c:	e5d6      	b.n	da5dc <_strtod_l+0x84>
   daa2e:	2300      	movs	r3, #0
   daa30:	ea4f 1828 	mov.w	r8, r8, asr #4
   daa34:	4650      	mov	r0, sl
   daa36:	4659      	mov	r1, fp
   daa38:	4699      	mov	r9, r3
   daa3a:	f1b8 0f01 	cmp.w	r8, #1
   daa3e:	dc21      	bgt.n	daa84 <_strtod_l+0x52c>
   daa40:	b10b      	cbz	r3, daa46 <_strtod_l+0x4ee>
   daa42:	4682      	mov	sl, r0
   daa44:	468b      	mov	fp, r1
   daa46:	4b2e      	ldr	r3, [pc, #184]	; (dab00 <_strtod_l+0x5a8>)
   daa48:	f1ab 7b54 	sub.w	fp, fp, #55574528	; 0x3500000
   daa4c:	eb03 09c9 	add.w	r9, r3, r9, lsl #3
   daa50:	4652      	mov	r2, sl
   daa52:	465b      	mov	r3, fp
   daa54:	e9d9 0100 	ldrd	r0, r1, [r9]
   daa58:	f7fe ffbe 	bl	d99d8 <__aeabi_dmul>
   daa5c:	4b29      	ldr	r3, [pc, #164]	; (dab04 <_strtod_l+0x5ac>)
   daa5e:	460a      	mov	r2, r1
   daa60:	400b      	ands	r3, r1
   daa62:	4929      	ldr	r1, [pc, #164]	; (dab08 <_strtod_l+0x5b0>)
   daa64:	428b      	cmp	r3, r1
   daa66:	4682      	mov	sl, r0
   daa68:	d8be      	bhi.n	da9e8 <_strtod_l+0x490>
   daa6a:	f5a1 1180 	sub.w	r1, r1, #1048576	; 0x100000
   daa6e:	428b      	cmp	r3, r1
   daa70:	bf86      	itte	hi
   daa72:	f8df b098 	ldrhi.w	fp, [pc, #152]	; dab0c <_strtod_l+0x5b4>
   daa76:	f04f 3aff 	movhi.w	sl, #4294967295	; 0xffffffff
   daa7a:	f102 7b54 	addls.w	fp, r2, #55574528	; 0x3500000
   daa7e:	2300      	movs	r3, #0
   daa80:	9304      	str	r3, [sp, #16]
   daa82:	e081      	b.n	dab88 <_strtod_l+0x630>
   daa84:	f018 0f01 	tst.w	r8, #1
   daa88:	d007      	beq.n	daa9a <_strtod_l+0x542>
   daa8a:	4b1d      	ldr	r3, [pc, #116]	; (dab00 <_strtod_l+0x5a8>)
   daa8c:	eb03 03c9 	add.w	r3, r3, r9, lsl #3
   daa90:	e9d3 2300 	ldrd	r2, r3, [r3]
   daa94:	f7fe ffa0 	bl	d99d8 <__aeabi_dmul>
   daa98:	2301      	movs	r3, #1
   daa9a:	f109 0901 	add.w	r9, r9, #1
   daa9e:	ea4f 0868 	mov.w	r8, r8, asr #1
   daaa2:	e7ca      	b.n	daa3a <_strtod_l+0x4e2>
   daaa4:	d0eb      	beq.n	daa7e <_strtod_l+0x526>
   daaa6:	f1c8 0800 	rsb	r8, r8, #0
   daaaa:	f018 020f 	ands.w	r2, r8, #15
   daaae:	d00a      	beq.n	daac6 <_strtod_l+0x56e>
   daab0:	4b12      	ldr	r3, [pc, #72]	; (daafc <_strtod_l+0x5a4>)
   daab2:	eb03 03c2 	add.w	r3, r3, r2, lsl #3
   daab6:	4650      	mov	r0, sl
   daab8:	4659      	mov	r1, fp
   daaba:	e9d3 2300 	ldrd	r2, r3, [r3]
   daabe:	f7ff f8b5 	bl	d9c2c <__aeabi_ddiv>
   daac2:	4682      	mov	sl, r0
   daac4:	468b      	mov	fp, r1
   daac6:	ea5f 1828 	movs.w	r8, r8, asr #4
   daaca:	d0d8      	beq.n	daa7e <_strtod_l+0x526>
   daacc:	f1b8 0f1f 	cmp.w	r8, #31
   daad0:	dd1e      	ble.n	dab10 <_strtod_l+0x5b8>
   daad2:	2500      	movs	r5, #0
   daad4:	462e      	mov	r6, r5
   daad6:	9509      	str	r5, [sp, #36]	; 0x24
   daad8:	9507      	str	r5, [sp, #28]
   daada:	2322      	movs	r3, #34	; 0x22
   daadc:	f04f 0a00 	mov.w	sl, #0
   daae0:	f04f 0b00 	mov.w	fp, #0
   daae4:	6023      	str	r3, [r4, #0]
   daae6:	e789      	b.n	da9fc <_strtod_l+0x4a4>
   daae8:	000dce6e 	.word	0x000dce6e
   daaec:	000dce88 	.word	0x000dce88
   daaf0:	000dce65 	.word	0x000dce65
   daaf4:	000dce68 	.word	0x000dce68
   daaf8:	000dc80f 	.word	0x000dc80f
   daafc:	000dd008 	.word	0x000dd008
   dab00:	000dcfe0 	.word	0x000dcfe0
   dab04:	7ff00000 	.word	0x7ff00000
   dab08:	7ca00000 	.word	0x7ca00000
   dab0c:	7fefffff 	.word	0x7fefffff
   dab10:	f018 0310 	ands.w	r3, r8, #16
   dab14:	bf18      	it	ne
   dab16:	236a      	movne	r3, #106	; 0x6a
   dab18:	f8df 93b4 	ldr.w	r9, [pc, #948]	; daed0 <_strtod_l+0x978>
   dab1c:	9304      	str	r3, [sp, #16]
   dab1e:	4650      	mov	r0, sl
   dab20:	4659      	mov	r1, fp
   dab22:	2300      	movs	r3, #0
   dab24:	f018 0f01 	tst.w	r8, #1
   dab28:	d004      	beq.n	dab34 <_strtod_l+0x5dc>
   dab2a:	e9d9 2300 	ldrd	r2, r3, [r9]
   dab2e:	f7fe ff53 	bl	d99d8 <__aeabi_dmul>
   dab32:	2301      	movs	r3, #1
   dab34:	ea5f 0868 	movs.w	r8, r8, asr #1
   dab38:	f109 0908 	add.w	r9, r9, #8
   dab3c:	d1f2      	bne.n	dab24 <_strtod_l+0x5cc>
   dab3e:	b10b      	cbz	r3, dab44 <_strtod_l+0x5ec>
   dab40:	4682      	mov	sl, r0
   dab42:	468b      	mov	fp, r1
   dab44:	9b04      	ldr	r3, [sp, #16]
   dab46:	b1bb      	cbz	r3, dab78 <_strtod_l+0x620>
   dab48:	f3cb 530a 	ubfx	r3, fp, #20, #11
   dab4c:	f1c3 036b 	rsb	r3, r3, #107	; 0x6b
   dab50:	2b00      	cmp	r3, #0
   dab52:	4659      	mov	r1, fp
   dab54:	dd10      	ble.n	dab78 <_strtod_l+0x620>
   dab56:	2b1f      	cmp	r3, #31
   dab58:	f340 8128 	ble.w	dadac <_strtod_l+0x854>
   dab5c:	2b34      	cmp	r3, #52	; 0x34
   dab5e:	bfde      	ittt	le
   dab60:	3b20      	suble	r3, #32
   dab62:	f04f 32ff 	movle.w	r2, #4294967295	; 0xffffffff
   dab66:	fa02 f303 	lslle.w	r3, r2, r3
   dab6a:	f04f 0a00 	mov.w	sl, #0
   dab6e:	bfcc      	ite	gt
   dab70:	f04f 7b5c 	movgt.w	fp, #57671680	; 0x3700000
   dab74:	ea03 0b01 	andle.w	fp, r3, r1
   dab78:	2200      	movs	r2, #0
   dab7a:	2300      	movs	r3, #0
   dab7c:	4650      	mov	r0, sl
   dab7e:	4659      	mov	r1, fp
   dab80:	f7ff f992 	bl	d9ea8 <__aeabi_dcmpeq>
   dab84:	2800      	cmp	r0, #0
   dab86:	d1a4      	bne.n	daad2 <_strtod_l+0x57a>
   dab88:	9b09      	ldr	r3, [sp, #36]	; 0x24
   dab8a:	9300      	str	r3, [sp, #0]
   dab8c:	990a      	ldr	r1, [sp, #40]	; 0x28
   dab8e:	462b      	mov	r3, r5
   dab90:	463a      	mov	r2, r7
   dab92:	4620      	mov	r0, r4
   dab94:	f000 ff41 	bl	dba1a <__s2b>
   dab98:	9009      	str	r0, [sp, #36]	; 0x24
   dab9a:	2800      	cmp	r0, #0
   dab9c:	f43f af24 	beq.w	da9e8 <_strtod_l+0x490>
   daba0:	9b07      	ldr	r3, [sp, #28]
   daba2:	1b9e      	subs	r6, r3, r6
   daba4:	9b08      	ldr	r3, [sp, #32]
   daba6:	2b00      	cmp	r3, #0
   daba8:	bfb4      	ite	lt
   dabaa:	4633      	movlt	r3, r6
   dabac:	2300      	movge	r3, #0
   dabae:	9310      	str	r3, [sp, #64]	; 0x40
   dabb0:	9b08      	ldr	r3, [sp, #32]
   dabb2:	2500      	movs	r5, #0
   dabb4:	ea23 73e3 	bic.w	r3, r3, r3, asr #31
   dabb8:	9318      	str	r3, [sp, #96]	; 0x60
   dabba:	462e      	mov	r6, r5
   dabbc:	9b09      	ldr	r3, [sp, #36]	; 0x24
   dabbe:	4620      	mov	r0, r4
   dabc0:	6859      	ldr	r1, [r3, #4]
   dabc2:	f000 fea1 	bl	db908 <_Balloc>
   dabc6:	9007      	str	r0, [sp, #28]
   dabc8:	2800      	cmp	r0, #0
   dabca:	f43f af11 	beq.w	da9f0 <_strtod_l+0x498>
   dabce:	9b09      	ldr	r3, [sp, #36]	; 0x24
   dabd0:	691a      	ldr	r2, [r3, #16]
   dabd2:	3202      	adds	r2, #2
   dabd4:	f103 010c 	add.w	r1, r3, #12
   dabd8:	0092      	lsls	r2, r2, #2
   dabda:	300c      	adds	r0, #12
   dabdc:	f7ff fbba 	bl	da354 <memcpy>
   dabe0:	ec4b ab10 	vmov	d0, sl, fp
   dabe4:	aa20      	add	r2, sp, #128	; 0x80
   dabe6:	a91f      	add	r1, sp, #124	; 0x7c
   dabe8:	4620      	mov	r0, r4
   dabea:	e9cd ab0a 	strd	sl, fp, [sp, #40]	; 0x28
   dabee:	f001 fa03 	bl	dbff8 <__d2b>
   dabf2:	901e      	str	r0, [sp, #120]	; 0x78
   dabf4:	2800      	cmp	r0, #0
   dabf6:	f43f aefb 	beq.w	da9f0 <_strtod_l+0x498>
   dabfa:	2101      	movs	r1, #1
   dabfc:	4620      	mov	r0, r4
   dabfe:	f000 ff9a 	bl	dbb36 <__i2b>
   dac02:	4606      	mov	r6, r0
   dac04:	2800      	cmp	r0, #0
   dac06:	f43f aef3 	beq.w	da9f0 <_strtod_l+0x498>
   dac0a:	9b1f      	ldr	r3, [sp, #124]	; 0x7c
   dac0c:	9904      	ldr	r1, [sp, #16]
   dac0e:	2b00      	cmp	r3, #0
   dac10:	bfab      	itete	ge
   dac12:	9a10      	ldrge	r2, [sp, #64]	; 0x40
   dac14:	9a18      	ldrlt	r2, [sp, #96]	; 0x60
   dac16:	9f18      	ldrge	r7, [sp, #96]	; 0x60
   dac18:	f8dd 9040 	ldrlt.w	r9, [sp, #64]	; 0x40
   dac1c:	bfac      	ite	ge
   dac1e:	eb03 0902 	addge.w	r9, r3, r2
   dac22:	1ad7      	sublt	r7, r2, r3
   dac24:	9a20      	ldr	r2, [sp, #128]	; 0x80
   dac26:	eba3 0801 	sub.w	r8, r3, r1
   dac2a:	4490      	add	r8, r2
   dac2c:	4ba3      	ldr	r3, [pc, #652]	; (daebc <_strtod_l+0x964>)
   dac2e:	f108 38ff 	add.w	r8, r8, #4294967295	; 0xffffffff
   dac32:	4598      	cmp	r8, r3
   dac34:	f1c2 0236 	rsb	r2, r2, #54	; 0x36
   dac38:	f280 80cc 	bge.w	dadd4 <_strtod_l+0x87c>
   dac3c:	eba3 0308 	sub.w	r3, r3, r8
   dac40:	2b1f      	cmp	r3, #31
   dac42:	eba2 0203 	sub.w	r2, r2, r3
   dac46:	f04f 0101 	mov.w	r1, #1
   dac4a:	f300 80b6 	bgt.w	dadba <_strtod_l+0x862>
   dac4e:	fa01 f303 	lsl.w	r3, r1, r3
   dac52:	9311      	str	r3, [sp, #68]	; 0x44
   dac54:	2300      	movs	r3, #0
   dac56:	930c      	str	r3, [sp, #48]	; 0x30
   dac58:	eb09 0802 	add.w	r8, r9, r2
   dac5c:	9b04      	ldr	r3, [sp, #16]
   dac5e:	45c1      	cmp	r9, r8
   dac60:	4417      	add	r7, r2
   dac62:	441f      	add	r7, r3
   dac64:	464b      	mov	r3, r9
   dac66:	bfa8      	it	ge
   dac68:	4643      	movge	r3, r8
   dac6a:	42bb      	cmp	r3, r7
   dac6c:	bfa8      	it	ge
   dac6e:	463b      	movge	r3, r7
   dac70:	2b00      	cmp	r3, #0
   dac72:	bfc2      	ittt	gt
   dac74:	eba8 0803 	subgt.w	r8, r8, r3
   dac78:	1aff      	subgt	r7, r7, r3
   dac7a:	eba9 0903 	subgt.w	r9, r9, r3
   dac7e:	9b10      	ldr	r3, [sp, #64]	; 0x40
   dac80:	2b00      	cmp	r3, #0
   dac82:	dd17      	ble.n	dacb4 <_strtod_l+0x75c>
   dac84:	4631      	mov	r1, r6
   dac86:	461a      	mov	r2, r3
   dac88:	4620      	mov	r0, r4
   dac8a:	f000 fff9 	bl	dbc80 <__pow5mult>
   dac8e:	4606      	mov	r6, r0
   dac90:	2800      	cmp	r0, #0
   dac92:	f43f aead 	beq.w	da9f0 <_strtod_l+0x498>
   dac96:	4601      	mov	r1, r0
   dac98:	9a1e      	ldr	r2, [sp, #120]	; 0x78
   dac9a:	4620      	mov	r0, r4
   dac9c:	f000 ff54 	bl	dbb48 <__multiply>
   daca0:	900f      	str	r0, [sp, #60]	; 0x3c
   daca2:	2800      	cmp	r0, #0
   daca4:	f43f aea4 	beq.w	da9f0 <_strtod_l+0x498>
   daca8:	991e      	ldr	r1, [sp, #120]	; 0x78
   dacaa:	4620      	mov	r0, r4
   dacac:	f000 fe60 	bl	db970 <_Bfree>
   dacb0:	9b0f      	ldr	r3, [sp, #60]	; 0x3c
   dacb2:	931e      	str	r3, [sp, #120]	; 0x78
   dacb4:	f1b8 0f00 	cmp.w	r8, #0
   dacb8:	f300 8091 	bgt.w	dadde <_strtod_l+0x886>
   dacbc:	9b08      	ldr	r3, [sp, #32]
   dacbe:	2b00      	cmp	r3, #0
   dacc0:	dd08      	ble.n	dacd4 <_strtod_l+0x77c>
   dacc2:	9a18      	ldr	r2, [sp, #96]	; 0x60
   dacc4:	9907      	ldr	r1, [sp, #28]
   dacc6:	4620      	mov	r0, r4
   dacc8:	f000 ffda 	bl	dbc80 <__pow5mult>
   daccc:	9007      	str	r0, [sp, #28]
   dacce:	2800      	cmp	r0, #0
   dacd0:	f43f ae8e 	beq.w	da9f0 <_strtod_l+0x498>
   dacd4:	2f00      	cmp	r7, #0
   dacd6:	dd08      	ble.n	dacea <_strtod_l+0x792>
   dacd8:	9907      	ldr	r1, [sp, #28]
   dacda:	463a      	mov	r2, r7
   dacdc:	4620      	mov	r0, r4
   dacde:	f001 f81d 	bl	dbd1c <__lshift>
   dace2:	9007      	str	r0, [sp, #28]
   dace4:	2800      	cmp	r0, #0
   dace6:	f43f ae83 	beq.w	da9f0 <_strtod_l+0x498>
   dacea:	f1b9 0f00 	cmp.w	r9, #0
   dacee:	dd08      	ble.n	dad02 <_strtod_l+0x7aa>
   dacf0:	4631      	mov	r1, r6
   dacf2:	464a      	mov	r2, r9
   dacf4:	4620      	mov	r0, r4
   dacf6:	f001 f811 	bl	dbd1c <__lshift>
   dacfa:	4606      	mov	r6, r0
   dacfc:	2800      	cmp	r0, #0
   dacfe:	f43f ae77 	beq.w	da9f0 <_strtod_l+0x498>
   dad02:	9a07      	ldr	r2, [sp, #28]
   dad04:	991e      	ldr	r1, [sp, #120]	; 0x78
   dad06:	4620      	mov	r0, r4
   dad08:	f001 f883 	bl	dbe12 <__mdiff>
   dad0c:	4605      	mov	r5, r0
   dad0e:	2800      	cmp	r0, #0
   dad10:	f43f ae6e 	beq.w	da9f0 <_strtod_l+0x498>
   dad14:	68c3      	ldr	r3, [r0, #12]
   dad16:	930f      	str	r3, [sp, #60]	; 0x3c
   dad18:	2300      	movs	r3, #0
   dad1a:	60c3      	str	r3, [r0, #12]
   dad1c:	4631      	mov	r1, r6
   dad1e:	f001 f85c 	bl	dbdda <__mcmp>
   dad22:	2800      	cmp	r0, #0
   dad24:	da65      	bge.n	dadf2 <_strtod_l+0x89a>
   dad26:	9b0f      	ldr	r3, [sp, #60]	; 0x3c
   dad28:	ea53 030a 	orrs.w	r3, r3, sl
   dad2c:	f040 8087 	bne.w	dae3e <_strtod_l+0x8e6>
   dad30:	f3cb 0313 	ubfx	r3, fp, #0, #20
   dad34:	2b00      	cmp	r3, #0
   dad36:	f040 8082 	bne.w	dae3e <_strtod_l+0x8e6>
   dad3a:	f02b 4300 	bic.w	r3, fp, #2147483648	; 0x80000000
   dad3e:	0d1b      	lsrs	r3, r3, #20
   dad40:	051b      	lsls	r3, r3, #20
   dad42:	f1b3 6fd6 	cmp.w	r3, #112197632	; 0x6b00000
   dad46:	d97a      	bls.n	dae3e <_strtod_l+0x8e6>
   dad48:	696b      	ldr	r3, [r5, #20]
   dad4a:	b913      	cbnz	r3, dad52 <_strtod_l+0x7fa>
   dad4c:	692b      	ldr	r3, [r5, #16]
   dad4e:	2b01      	cmp	r3, #1
   dad50:	dd75      	ble.n	dae3e <_strtod_l+0x8e6>
   dad52:	4629      	mov	r1, r5
   dad54:	2201      	movs	r2, #1
   dad56:	4620      	mov	r0, r4
   dad58:	f000 ffe0 	bl	dbd1c <__lshift>
   dad5c:	4631      	mov	r1, r6
   dad5e:	4605      	mov	r5, r0
   dad60:	f001 f83b 	bl	dbdda <__mcmp>
   dad64:	2800      	cmp	r0, #0
   dad66:	dd6a      	ble.n	dae3e <_strtod_l+0x8e6>
   dad68:	9904      	ldr	r1, [sp, #16]
   dad6a:	4a55      	ldr	r2, [pc, #340]	; (daec0 <_strtod_l+0x968>)
   dad6c:	465b      	mov	r3, fp
   dad6e:	2900      	cmp	r1, #0
   dad70:	f000 8085 	beq.w	dae7e <_strtod_l+0x926>
   dad74:	ea02 010b 	and.w	r1, r2, fp
   dad78:	f1b1 6fd6 	cmp.w	r1, #112197632	; 0x6b00000
   dad7c:	dc7f      	bgt.n	dae7e <_strtod_l+0x926>
   dad7e:	f1b1 7f5c 	cmp.w	r1, #57671680	; 0x3700000
   dad82:	f77f aeaa 	ble.w	daada <_strtod_l+0x582>
   dad86:	4a4f      	ldr	r2, [pc, #316]	; (daec4 <_strtod_l+0x96c>)
   dad88:	2300      	movs	r3, #0
   dad8a:	e9cd 3216 	strd	r3, r2, [sp, #88]	; 0x58
   dad8e:	4650      	mov	r0, sl
   dad90:	e9dd 2316 	ldrd	r2, r3, [sp, #88]	; 0x58
   dad94:	4659      	mov	r1, fp
   dad96:	f7fe fe1f 	bl	d99d8 <__aeabi_dmul>
   dad9a:	460b      	mov	r3, r1
   dad9c:	4303      	orrs	r3, r0
   dad9e:	bf08      	it	eq
   dada0:	2322      	moveq	r3, #34	; 0x22
   dada2:	4682      	mov	sl, r0
   dada4:	468b      	mov	fp, r1
   dada6:	bf08      	it	eq
   dada8:	6023      	streq	r3, [r4, #0]
   dadaa:	e62b      	b.n	daa04 <_strtod_l+0x4ac>
   dadac:	f04f 32ff 	mov.w	r2, #4294967295	; 0xffffffff
   dadb0:	fa02 f303 	lsl.w	r3, r2, r3
   dadb4:	ea03 0a0a 	and.w	sl, r3, sl
   dadb8:	e6de      	b.n	dab78 <_strtod_l+0x620>
   dadba:	f1c8 487f 	rsb	r8, r8, #4278190080	; 0xff000000
   dadbe:	f508 087f 	add.w	r8, r8, #16711680	; 0xff0000
   dadc2:	f508 487b 	add.w	r8, r8, #64256	; 0xfb00
   dadc6:	f108 08e2 	add.w	r8, r8, #226	; 0xe2
   dadca:	fa01 f308 	lsl.w	r3, r1, r8
   dadce:	930c      	str	r3, [sp, #48]	; 0x30
   dadd0:	9111      	str	r1, [sp, #68]	; 0x44
   dadd2:	e741      	b.n	dac58 <_strtod_l+0x700>
   dadd4:	2300      	movs	r3, #0
   dadd6:	930c      	str	r3, [sp, #48]	; 0x30
   dadd8:	2301      	movs	r3, #1
   dadda:	9311      	str	r3, [sp, #68]	; 0x44
   daddc:	e73c      	b.n	dac58 <_strtod_l+0x700>
   dadde:	991e      	ldr	r1, [sp, #120]	; 0x78
   dade0:	4642      	mov	r2, r8
   dade2:	4620      	mov	r0, r4
   dade4:	f000 ff9a 	bl	dbd1c <__lshift>
   dade8:	901e      	str	r0, [sp, #120]	; 0x78
   dadea:	2800      	cmp	r0, #0
   dadec:	f47f af66 	bne.w	dacbc <_strtod_l+0x764>
   dadf0:	e5fe      	b.n	da9f0 <_strtod_l+0x498>
   dadf2:	465f      	mov	r7, fp
   dadf4:	d16e      	bne.n	daed4 <_strtod_l+0x97c>
   dadf6:	9a0f      	ldr	r2, [sp, #60]	; 0x3c
   dadf8:	f3cb 0313 	ubfx	r3, fp, #0, #20
   dadfc:	b342      	cbz	r2, dae50 <_strtod_l+0x8f8>
   dadfe:	4a32      	ldr	r2, [pc, #200]	; (daec8 <_strtod_l+0x970>)
   dae00:	4293      	cmp	r3, r2
   dae02:	d128      	bne.n	dae56 <_strtod_l+0x8fe>
   dae04:	9b04      	ldr	r3, [sp, #16]
   dae06:	4650      	mov	r0, sl
   dae08:	b1eb      	cbz	r3, dae46 <_strtod_l+0x8ee>
   dae0a:	4a2d      	ldr	r2, [pc, #180]	; (daec0 <_strtod_l+0x968>)
   dae0c:	403a      	ands	r2, r7
   dae0e:	f1b2 6fd4 	cmp.w	r2, #111149056	; 0x6a00000
   dae12:	f04f 31ff 	mov.w	r1, #4294967295	; 0xffffffff
   dae16:	d819      	bhi.n	dae4c <_strtod_l+0x8f4>
   dae18:	0d12      	lsrs	r2, r2, #20
   dae1a:	f1c2 036b 	rsb	r3, r2, #107	; 0x6b
   dae1e:	fa01 f303 	lsl.w	r3, r1, r3
   dae22:	4298      	cmp	r0, r3
   dae24:	d117      	bne.n	dae56 <_strtod_l+0x8fe>
   dae26:	4b29      	ldr	r3, [pc, #164]	; (daecc <_strtod_l+0x974>)
   dae28:	429f      	cmp	r7, r3
   dae2a:	d102      	bne.n	dae32 <_strtod_l+0x8da>
   dae2c:	3001      	adds	r0, #1
   dae2e:	f43f addf 	beq.w	da9f0 <_strtod_l+0x498>
   dae32:	4b23      	ldr	r3, [pc, #140]	; (daec0 <_strtod_l+0x968>)
   dae34:	403b      	ands	r3, r7
   dae36:	f503 1b80 	add.w	fp, r3, #1048576	; 0x100000
   dae3a:	f04f 0a00 	mov.w	sl, #0
   dae3e:	9b04      	ldr	r3, [sp, #16]
   dae40:	2b00      	cmp	r3, #0
   dae42:	d1a0      	bne.n	dad86 <_strtod_l+0x82e>
   dae44:	e5de      	b.n	daa04 <_strtod_l+0x4ac>
   dae46:	f04f 33ff 	mov.w	r3, #4294967295	; 0xffffffff
   dae4a:	e7ea      	b.n	dae22 <_strtod_l+0x8ca>
   dae4c:	460b      	mov	r3, r1
   dae4e:	e7e8      	b.n	dae22 <_strtod_l+0x8ca>
   dae50:	ea53 030a 	orrs.w	r3, r3, sl
   dae54:	d088      	beq.n	dad68 <_strtod_l+0x810>
   dae56:	9b0c      	ldr	r3, [sp, #48]	; 0x30
   dae58:	b1db      	cbz	r3, dae92 <_strtod_l+0x93a>
   dae5a:	423b      	tst	r3, r7
   dae5c:	d0ef      	beq.n	dae3e <_strtod_l+0x8e6>
   dae5e:	9b0f      	ldr	r3, [sp, #60]	; 0x3c
   dae60:	9a04      	ldr	r2, [sp, #16]
   dae62:	4650      	mov	r0, sl
   dae64:	4659      	mov	r1, fp
   dae66:	b1c3      	cbz	r3, dae9a <_strtod_l+0x942>
   dae68:	f7ff fb59 	bl	da51e <sulp>
   dae6c:	4602      	mov	r2, r0
   dae6e:	460b      	mov	r3, r1
   dae70:	e9dd 010a 	ldrd	r0, r1, [sp, #40]	; 0x28
   dae74:	f7fe fbfa 	bl	d966c <__adddf3>
   dae78:	4682      	mov	sl, r0
   dae7a:	468b      	mov	fp, r1
   dae7c:	e7df      	b.n	dae3e <_strtod_l+0x8e6>
   dae7e:	4013      	ands	r3, r2
   dae80:	f5a3 1380 	sub.w	r3, r3, #1048576	; 0x100000
   dae84:	ea6f 5b13 	mvn.w	fp, r3, lsr #20
   dae88:	ea6f 5b0b 	mvn.w	fp, fp, lsl #20
   dae8c:	f04f 3aff 	mov.w	sl, #4294967295	; 0xffffffff
   dae90:	e7d5      	b.n	dae3e <_strtod_l+0x8e6>
   dae92:	9b11      	ldr	r3, [sp, #68]	; 0x44
   dae94:	ea13 0f0a 	tst.w	r3, sl
   dae98:	e7e0      	b.n	dae5c <_strtod_l+0x904>
   dae9a:	f7ff fb40 	bl	da51e <sulp>
   dae9e:	4602      	mov	r2, r0
   daea0:	460b      	mov	r3, r1
   daea2:	e9dd 010a 	ldrd	r0, r1, [sp, #40]	; 0x28
   daea6:	f7fe fbdf 	bl	d9668 <__aeabi_dsub>
   daeaa:	2200      	movs	r2, #0
   daeac:	2300      	movs	r3, #0
   daeae:	4682      	mov	sl, r0
   daeb0:	468b      	mov	fp, r1
   daeb2:	f7fe fff9 	bl	d9ea8 <__aeabi_dcmpeq>
   daeb6:	2800      	cmp	r0, #0
   daeb8:	d0c1      	beq.n	dae3e <_strtod_l+0x8e6>
   daeba:	e60e      	b.n	daada <_strtod_l+0x582>
   daebc:	fffffc02 	.word	0xfffffc02
   daec0:	7ff00000 	.word	0x7ff00000
   daec4:	39500000 	.word	0x39500000
   daec8:	000fffff 	.word	0x000fffff
   daecc:	7fefffff 	.word	0x7fefffff
   daed0:	000dcea0 	.word	0x000dcea0
   daed4:	4631      	mov	r1, r6
   daed6:	4628      	mov	r0, r5
   daed8:	f001 f8de 	bl	dc098 <__ratio>
   daedc:	ec59 8b10 	vmov	r8, r9, d0
   daee0:	ee10 0a10 	vmov	r0, s0
   daee4:	2200      	movs	r2, #0
   daee6:	f04f 4380 	mov.w	r3, #1073741824	; 0x40000000
   daeea:	4649      	mov	r1, r9
   daeec:	f7fe fff0 	bl	d9ed0 <__aeabi_dcmple>
   daef0:	2800      	cmp	r0, #0
   daef2:	d07c      	beq.n	dafee <_strtod_l+0xa96>
   daef4:	9b0f      	ldr	r3, [sp, #60]	; 0x3c
   daef6:	2b00      	cmp	r3, #0
   daef8:	d04c      	beq.n	daf94 <_strtod_l+0xa3c>
   daefa:	4b95      	ldr	r3, [pc, #596]	; (db150 <_strtod_l+0xbf8>)
   daefc:	2200      	movs	r2, #0
   daefe:	e9cd 230c 	strd	r2, r3, [sp, #48]	; 0x30
   daf02:	f8df 924c 	ldr.w	r9, [pc, #588]	; db150 <_strtod_l+0xbf8>
   daf06:	f04f 0800 	mov.w	r8, #0
   daf0a:	4b92      	ldr	r3, [pc, #584]	; (db154 <_strtod_l+0xbfc>)
   daf0c:	403b      	ands	r3, r7
   daf0e:	9311      	str	r3, [sp, #68]	; 0x44
   daf10:	9a11      	ldr	r2, [sp, #68]	; 0x44
   daf12:	4b91      	ldr	r3, [pc, #580]	; (db158 <_strtod_l+0xc00>)
   daf14:	429a      	cmp	r2, r3
   daf16:	f040 80b2 	bne.w	db07e <_strtod_l+0xb26>
   daf1a:	e9dd 230a 	ldrd	r2, r3, [sp, #40]	; 0x28
   daf1e:	e9dd 010c 	ldrd	r0, r1, [sp, #48]	; 0x30
   daf22:	f1a7 7b54 	sub.w	fp, r7, #55574528	; 0x3500000
   daf26:	ec4b ab10 	vmov	d0, sl, fp
   daf2a:	e9cd 2316 	strd	r2, r3, [sp, #88]	; 0x58
   daf2e:	e9cd 010c 	strd	r0, r1, [sp, #48]	; 0x30
   daf32:	f000 ffe5 	bl	dbf00 <__ulp>
   daf36:	e9dd 010c 	ldrd	r0, r1, [sp, #48]	; 0x30
   daf3a:	ec53 2b10 	vmov	r2, r3, d0
   daf3e:	f7fe fd4b 	bl	d99d8 <__aeabi_dmul>
   daf42:	4652      	mov	r2, sl
   daf44:	465b      	mov	r3, fp
   daf46:	f7fe fb91 	bl	d966c <__adddf3>
   daf4a:	460b      	mov	r3, r1
   daf4c:	4981      	ldr	r1, [pc, #516]	; (db154 <_strtod_l+0xbfc>)
   daf4e:	4a83      	ldr	r2, [pc, #524]	; (db15c <_strtod_l+0xc04>)
   daf50:	4019      	ands	r1, r3
   daf52:	4291      	cmp	r1, r2
   daf54:	4682      	mov	sl, r0
   daf56:	d95e      	bls.n	db016 <_strtod_l+0xabe>
   daf58:	9b0b      	ldr	r3, [sp, #44]	; 0x2c
   daf5a:	f102 7254 	add.w	r2, r2, #55574528	; 0x3500000
   daf5e:	4293      	cmp	r3, r2
   daf60:	d103      	bne.n	daf6a <_strtod_l+0xa12>
   daf62:	9b0a      	ldr	r3, [sp, #40]	; 0x28
   daf64:	3301      	adds	r3, #1
   daf66:	f43f ad43 	beq.w	da9f0 <_strtod_l+0x498>
   daf6a:	f8df b1fc 	ldr.w	fp, [pc, #508]	; db168 <_strtod_l+0xc10>
   daf6e:	f04f 3aff 	mov.w	sl, #4294967295	; 0xffffffff
   daf72:	991e      	ldr	r1, [sp, #120]	; 0x78
   daf74:	4620      	mov	r0, r4
   daf76:	f000 fcfb 	bl	db970 <_Bfree>
   daf7a:	9907      	ldr	r1, [sp, #28]
   daf7c:	4620      	mov	r0, r4
   daf7e:	f000 fcf7 	bl	db970 <_Bfree>
   daf82:	4631      	mov	r1, r6
   daf84:	4620      	mov	r0, r4
   daf86:	f000 fcf3 	bl	db970 <_Bfree>
   daf8a:	4629      	mov	r1, r5
   daf8c:	4620      	mov	r0, r4
   daf8e:	f000 fcef 	bl	db970 <_Bfree>
   daf92:	e613      	b.n	dabbc <_strtod_l+0x664>
   daf94:	f1ba 0f00 	cmp.w	sl, #0
   daf98:	d11b      	bne.n	dafd2 <_strtod_l+0xa7a>
   daf9a:	f3cb 0313 	ubfx	r3, fp, #0, #20
   daf9e:	b9f3      	cbnz	r3, dafde <_strtod_l+0xa86>
   dafa0:	4b6b      	ldr	r3, [pc, #428]	; (db150 <_strtod_l+0xbf8>)
   dafa2:	2200      	movs	r2, #0
   dafa4:	4640      	mov	r0, r8
   dafa6:	4649      	mov	r1, r9
   dafa8:	f7fe ff88 	bl	d9ebc <__aeabi_dcmplt>
   dafac:	b9d0      	cbnz	r0, dafe4 <_strtod_l+0xa8c>
   dafae:	4640      	mov	r0, r8
   dafb0:	4649      	mov	r1, r9
   dafb2:	4b6b      	ldr	r3, [pc, #428]	; (db160 <_strtod_l+0xc08>)
   dafb4:	2200      	movs	r2, #0
   dafb6:	f7fe fd0f 	bl	d99d8 <__aeabi_dmul>
   dafba:	4680      	mov	r8, r0
   dafbc:	4689      	mov	r9, r1
   dafbe:	f109 4300 	add.w	r3, r9, #2147483648	; 0x80000000
   dafc2:	f8cd 8068 	str.w	r8, [sp, #104]	; 0x68
   dafc6:	931b      	str	r3, [sp, #108]	; 0x6c
   dafc8:	e9dd 231a 	ldrd	r2, r3, [sp, #104]	; 0x68
   dafcc:	e9cd 230c 	strd	r2, r3, [sp, #48]	; 0x30
   dafd0:	e79b      	b.n	daf0a <_strtod_l+0x9b2>
   dafd2:	f1ba 0f01 	cmp.w	sl, #1
   dafd6:	d102      	bne.n	dafde <_strtod_l+0xa86>
   dafd8:	2f00      	cmp	r7, #0
   dafda:	f43f ad7e 	beq.w	daada <_strtod_l+0x582>
   dafde:	4b61      	ldr	r3, [pc, #388]	; (db164 <_strtod_l+0xc0c>)
   dafe0:	2200      	movs	r2, #0
   dafe2:	e78c      	b.n	daefe <_strtod_l+0x9a6>
   dafe4:	f8df 9178 	ldr.w	r9, [pc, #376]	; db160 <_strtod_l+0xc08>
   dafe8:	f04f 0800 	mov.w	r8, #0
   dafec:	e7e7      	b.n	dafbe <_strtod_l+0xa66>
   dafee:	4b5c      	ldr	r3, [pc, #368]	; (db160 <_strtod_l+0xc08>)
   daff0:	4640      	mov	r0, r8
   daff2:	4649      	mov	r1, r9
   daff4:	2200      	movs	r2, #0
   daff6:	f7fe fcef 	bl	d99d8 <__aeabi_dmul>
   daffa:	9b0f      	ldr	r3, [sp, #60]	; 0x3c
   daffc:	4680      	mov	r8, r0
   daffe:	4689      	mov	r9, r1
   db000:	b933      	cbnz	r3, db010 <_strtod_l+0xab8>
   db002:	f101 4300 	add.w	r3, r1, #2147483648	; 0x80000000
   db006:	9012      	str	r0, [sp, #72]	; 0x48
   db008:	9313      	str	r3, [sp, #76]	; 0x4c
   db00a:	e9dd 2312 	ldrd	r2, r3, [sp, #72]	; 0x48
   db00e:	e7dd      	b.n	dafcc <_strtod_l+0xa74>
   db010:	e9cd 8912 	strd	r8, r9, [sp, #72]	; 0x48
   db014:	e7f9      	b.n	db00a <_strtod_l+0xab2>
   db016:	f103 7b54 	add.w	fp, r3, #55574528	; 0x3500000
   db01a:	9b04      	ldr	r3, [sp, #16]
   db01c:	2b00      	cmp	r3, #0
   db01e:	d1a8      	bne.n	daf72 <_strtod_l+0xa1a>
   db020:	f02b 4300 	bic.w	r3, fp, #2147483648	; 0x80000000
   db024:	9a11      	ldr	r2, [sp, #68]	; 0x44
   db026:	0d1b      	lsrs	r3, r3, #20
   db028:	051b      	lsls	r3, r3, #20
   db02a:	429a      	cmp	r2, r3
   db02c:	d1a1      	bne.n	daf72 <_strtod_l+0xa1a>
   db02e:	4640      	mov	r0, r8
   db030:	4649      	mov	r1, r9
   db032:	f001 f8b5 	bl	dc1a0 <__aeabi_d2lz>
   db036:	f7fe fca1 	bl	d997c <__aeabi_l2d>
   db03a:	4602      	mov	r2, r0
   db03c:	460b      	mov	r3, r1
   db03e:	4640      	mov	r0, r8
   db040:	4649      	mov	r1, r9
   db042:	f7fe fb11 	bl	d9668 <__aeabi_dsub>
   db046:	9a0f      	ldr	r2, [sp, #60]	; 0x3c
   db048:	f3cb 0313 	ubfx	r3, fp, #0, #20
   db04c:	ea43 030a 	orr.w	r3, r3, sl
   db050:	4313      	orrs	r3, r2
   db052:	4680      	mov	r8, r0
   db054:	4689      	mov	r9, r1
   db056:	d053      	beq.n	db100 <_strtod_l+0xba8>
   db058:	a335      	add	r3, pc, #212	; (adr r3, db130 <_strtod_l+0xbd8>)
   db05a:	e9d3 2300 	ldrd	r2, r3, [r3]
   db05e:	f7fe ff2d 	bl	d9ebc <__aeabi_dcmplt>
   db062:	2800      	cmp	r0, #0
   db064:	f47f acce 	bne.w	daa04 <_strtod_l+0x4ac>
   db068:	a333      	add	r3, pc, #204	; (adr r3, db138 <_strtod_l+0xbe0>)
   db06a:	e9d3 2300 	ldrd	r2, r3, [r3]
   db06e:	4640      	mov	r0, r8
   db070:	4649      	mov	r1, r9
   db072:	f7fe ff41 	bl	d9ef8 <__aeabi_dcmpgt>
   db076:	2800      	cmp	r0, #0
   db078:	f43f af7b 	beq.w	daf72 <_strtod_l+0xa1a>
   db07c:	e4c2      	b.n	daa04 <_strtod_l+0x4ac>
   db07e:	9b04      	ldr	r3, [sp, #16]
   db080:	b333      	cbz	r3, db0d0 <_strtod_l+0xb78>
   db082:	9b11      	ldr	r3, [sp, #68]	; 0x44
   db084:	f1b3 6fd4 	cmp.w	r3, #111149056	; 0x6a00000
   db088:	d822      	bhi.n	db0d0 <_strtod_l+0xb78>
   db08a:	a32d      	add	r3, pc, #180	; (adr r3, db140 <_strtod_l+0xbe8>)
   db08c:	e9d3 2300 	ldrd	r2, r3, [r3]
   db090:	4640      	mov	r0, r8
   db092:	4649      	mov	r1, r9
   db094:	f7fe ff1c 	bl	d9ed0 <__aeabi_dcmple>
   db098:	b1a0      	cbz	r0, db0c4 <_strtod_l+0xb6c>
   db09a:	4649      	mov	r1, r9
   db09c:	4640      	mov	r0, r8
   db09e:	f7fe ff35 	bl	d9f0c <__aeabi_d2uiz>
   db0a2:	2801      	cmp	r0, #1
   db0a4:	bf38      	it	cc
   db0a6:	2001      	movcc	r0, #1
   db0a8:	f7fe fc1c 	bl	d98e4 <__aeabi_ui2d>
   db0ac:	9b0f      	ldr	r3, [sp, #60]	; 0x3c
   db0ae:	4680      	mov	r8, r0
   db0b0:	4689      	mov	r9, r1
   db0b2:	bb13      	cbnz	r3, db0fa <_strtod_l+0xba2>
   db0b4:	f101 4300 	add.w	r3, r1, #2147483648	; 0x80000000
   db0b8:	9014      	str	r0, [sp, #80]	; 0x50
   db0ba:	9315      	str	r3, [sp, #84]	; 0x54
   db0bc:	e9dd 2314 	ldrd	r2, r3, [sp, #80]	; 0x50
   db0c0:	e9cd 230c 	strd	r2, r3, [sp, #48]	; 0x30
   db0c4:	9b0d      	ldr	r3, [sp, #52]	; 0x34
   db0c6:	9a11      	ldr	r2, [sp, #68]	; 0x44
   db0c8:	f103 63d6 	add.w	r3, r3, #112197632	; 0x6b00000
   db0cc:	1a9b      	subs	r3, r3, r2
   db0ce:	930d      	str	r3, [sp, #52]	; 0x34
   db0d0:	e9dd 010c 	ldrd	r0, r1, [sp, #48]	; 0x30
   db0d4:	ed9d 0b0a 	vldr	d0, [sp, #40]	; 0x28
   db0d8:	e9cd 010c 	strd	r0, r1, [sp, #48]	; 0x30
   db0dc:	f000 ff10 	bl	dbf00 <__ulp>
   db0e0:	e9dd 010c 	ldrd	r0, r1, [sp, #48]	; 0x30
   db0e4:	ec53 2b10 	vmov	r2, r3, d0
   db0e8:	f7fe fc76 	bl	d99d8 <__aeabi_dmul>
   db0ec:	e9dd 230a 	ldrd	r2, r3, [sp, #40]	; 0x28
   db0f0:	f7fe fabc 	bl	d966c <__adddf3>
   db0f4:	4682      	mov	sl, r0
   db0f6:	468b      	mov	fp, r1
   db0f8:	e78f      	b.n	db01a <_strtod_l+0xac2>
   db0fa:	e9cd 8914 	strd	r8, r9, [sp, #80]	; 0x50
   db0fe:	e7dd      	b.n	db0bc <_strtod_l+0xb64>
   db100:	a311      	add	r3, pc, #68	; (adr r3, db148 <_strtod_l+0xbf0>)
   db102:	e9d3 2300 	ldrd	r2, r3, [r3]
   db106:	f7fe fed9 	bl	d9ebc <__aeabi_dcmplt>
   db10a:	e7b4      	b.n	db076 <_strtod_l+0xb1e>
   db10c:	2300      	movs	r3, #0
   db10e:	930e      	str	r3, [sp, #56]	; 0x38
   db110:	9a19      	ldr	r2, [sp, #100]	; 0x64
   db112:	9b1d      	ldr	r3, [sp, #116]	; 0x74
   db114:	6013      	str	r3, [r2, #0]
   db116:	f7ff ba65 	b.w	da5e4 <_strtod_l+0x8c>
   db11a:	2b65      	cmp	r3, #101	; 0x65
   db11c:	f43f ab5d 	beq.w	da7da <_strtod_l+0x282>
   db120:	2b45      	cmp	r3, #69	; 0x45
   db122:	f43f ab5a 	beq.w	da7da <_strtod_l+0x282>
   db126:	2201      	movs	r2, #1
   db128:	f7ff bb92 	b.w	da850 <_strtod_l+0x2f8>
   db12c:	f3af 8000 	nop.w
   db130:	94a03595 	.word	0x94a03595
   db134:	3fdfffff 	.word	0x3fdfffff
   db138:	35afe535 	.word	0x35afe535
   db13c:	3fe00000 	.word	0x3fe00000
   db140:	ffc00000 	.word	0xffc00000
   db144:	41dfffff 	.word	0x41dfffff
   db148:	94a03595 	.word	0x94a03595
   db14c:	3fcfffff 	.word	0x3fcfffff
   db150:	3ff00000 	.word	0x3ff00000
   db154:	7ff00000 	.word	0x7ff00000
   db158:	7fe00000 	.word	0x7fe00000
   db15c:	7c9fffff 	.word	0x7c9fffff
   db160:	3fe00000 	.word	0x3fe00000
   db164:	bff00000 	.word	0xbff00000
   db168:	7fefffff 	.word	0x7fefffff

000db16c <strtod>:
   db16c:	460a      	mov	r2, r1
   db16e:	4601      	mov	r1, r0
   db170:	4802      	ldr	r0, [pc, #8]	; (db17c <strtod+0x10>)
   db172:	4b03      	ldr	r3, [pc, #12]	; (db180 <strtod+0x14>)
   db174:	6800      	ldr	r0, [r0, #0]
   db176:	f7ff b9ef 	b.w	da558 <_strtod_l>
   db17a:	bf00      	nop
   db17c:	2003e29c 	.word	0x2003e29c
   db180:	2003e304 	.word	0x2003e304

000db184 <strtok>:
   db184:	4b13      	ldr	r3, [pc, #76]	; (db1d4 <strtok+0x50>)
   db186:	b573      	push	{r0, r1, r4, r5, r6, lr}
   db188:	681e      	ldr	r6, [r3, #0]
   db18a:	6db4      	ldr	r4, [r6, #88]	; 0x58
   db18c:	4605      	mov	r5, r0
   db18e:	b9c4      	cbnz	r4, db1c2 <strtok+0x3e>
   db190:	2050      	movs	r0, #80	; 0x50
   db192:	9101      	str	r1, [sp, #4]
   db194:	f7fb feea 	bl	d6f6c <malloc>
   db198:	65b0      	str	r0, [r6, #88]	; 0x58
   db19a:	e9c0 4400 	strd	r4, r4, [r0]
   db19e:	e9c0 4402 	strd	r4, r4, [r0, #8]
   db1a2:	e9c0 4404 	strd	r4, r4, [r0, #16]
   db1a6:	e9c0 440a 	strd	r4, r4, [r0, #40]	; 0x28
   db1aa:	e9c0 440c 	strd	r4, r4, [r0, #48]	; 0x30
   db1ae:	e9c0 440e 	strd	r4, r4, [r0, #56]	; 0x38
   db1b2:	e9c0 4410 	strd	r4, r4, [r0, #64]	; 0x40
   db1b6:	e9c0 4412 	strd	r4, r4, [r0, #72]	; 0x48
   db1ba:	9901      	ldr	r1, [sp, #4]
   db1bc:	6184      	str	r4, [r0, #24]
   db1be:	7704      	strb	r4, [r0, #28]
   db1c0:	6244      	str	r4, [r0, #36]	; 0x24
   db1c2:	6db2      	ldr	r2, [r6, #88]	; 0x58
   db1c4:	2301      	movs	r3, #1
   db1c6:	4628      	mov	r0, r5
   db1c8:	b002      	add	sp, #8
   db1ca:	e8bd 4070 	ldmia.w	sp!, {r4, r5, r6, lr}
   db1ce:	f000 b803 	b.w	db1d8 <__strtok_r>
   db1d2:	bf00      	nop
   db1d4:	2003e29c 	.word	0x2003e29c

000db1d8 <__strtok_r>:
   db1d8:	b5f0      	push	{r4, r5, r6, r7, lr}
   db1da:	b908      	cbnz	r0, db1e0 <__strtok_r+0x8>
   db1dc:	6810      	ldr	r0, [r2, #0]
   db1de:	b188      	cbz	r0, db204 <__strtok_r+0x2c>
   db1e0:	4604      	mov	r4, r0
   db1e2:	4620      	mov	r0, r4
   db1e4:	f814 5b01 	ldrb.w	r5, [r4], #1
   db1e8:	460f      	mov	r7, r1
   db1ea:	f817 6b01 	ldrb.w	r6, [r7], #1
   db1ee:	b91e      	cbnz	r6, db1f8 <__strtok_r+0x20>
   db1f0:	b965      	cbnz	r5, db20c <__strtok_r+0x34>
   db1f2:	6015      	str	r5, [r2, #0]
   db1f4:	4628      	mov	r0, r5
   db1f6:	e005      	b.n	db204 <__strtok_r+0x2c>
   db1f8:	42b5      	cmp	r5, r6
   db1fa:	d1f6      	bne.n	db1ea <__strtok_r+0x12>
   db1fc:	2b00      	cmp	r3, #0
   db1fe:	d1f0      	bne.n	db1e2 <__strtok_r+0xa>
   db200:	6014      	str	r4, [r2, #0]
   db202:	7003      	strb	r3, [r0, #0]
   db204:	bdf0      	pop	{r4, r5, r6, r7, pc}
   db206:	461c      	mov	r4, r3
   db208:	e00c      	b.n	db224 <__strtok_r+0x4c>
   db20a:	b915      	cbnz	r5, db212 <__strtok_r+0x3a>
   db20c:	f814 3b01 	ldrb.w	r3, [r4], #1
   db210:	460e      	mov	r6, r1
   db212:	f816 5b01 	ldrb.w	r5, [r6], #1
   db216:	42ab      	cmp	r3, r5
   db218:	d1f7      	bne.n	db20a <__strtok_r+0x32>
   db21a:	2b00      	cmp	r3, #0
   db21c:	d0f3      	beq.n	db206 <__strtok_r+0x2e>
   db21e:	2300      	movs	r3, #0
   db220:	f804 3c01 	strb.w	r3, [r4, #-1]
   db224:	6014      	str	r4, [r2, #0]
   db226:	e7ed      	b.n	db204 <__strtok_r+0x2c>

000db228 <rshift>:
   db228:	6903      	ldr	r3, [r0, #16]
   db22a:	ebb3 1f61 	cmp.w	r3, r1, asr #5
   db22e:	e92d 43f0 	stmdb	sp!, {r4, r5, r6, r7, r8, r9, lr}
   db232:	ea4f 1261 	mov.w	r2, r1, asr #5
   db236:	f100 0414 	add.w	r4, r0, #20
   db23a:	dd45      	ble.n	db2c8 <rshift+0xa0>
   db23c:	f011 011f 	ands.w	r1, r1, #31
   db240:	eb04 0683 	add.w	r6, r4, r3, lsl #2
   db244:	eb04 0582 	add.w	r5, r4, r2, lsl #2
   db248:	d10c      	bne.n	db264 <rshift+0x3c>
   db24a:	f100 0710 	add.w	r7, r0, #16
   db24e:	4629      	mov	r1, r5
   db250:	42b1      	cmp	r1, r6
   db252:	d334      	bcc.n	db2be <rshift+0x96>
   db254:	1a9b      	subs	r3, r3, r2
   db256:	009b      	lsls	r3, r3, #2
   db258:	1eea      	subs	r2, r5, #3
   db25a:	4296      	cmp	r6, r2
   db25c:	bf38      	it	cc
   db25e:	2300      	movcc	r3, #0
   db260:	4423      	add	r3, r4
   db262:	e015      	b.n	db290 <rshift+0x68>
   db264:	f854 7022 	ldr.w	r7, [r4, r2, lsl #2]
   db268:	f1c1 0820 	rsb	r8, r1, #32
   db26c:	40cf      	lsrs	r7, r1
   db26e:	f105 0e04 	add.w	lr, r5, #4
   db272:	46a1      	mov	r9, r4
   db274:	4576      	cmp	r6, lr
   db276:	46f4      	mov	ip, lr
   db278:	d815      	bhi.n	db2a6 <rshift+0x7e>
   db27a:	1a9b      	subs	r3, r3, r2
   db27c:	009a      	lsls	r2, r3, #2
   db27e:	3a04      	subs	r2, #4
   db280:	3501      	adds	r5, #1
   db282:	42ae      	cmp	r6, r5
   db284:	bf38      	it	cc
   db286:	2200      	movcc	r2, #0
   db288:	18a3      	adds	r3, r4, r2
   db28a:	50a7      	str	r7, [r4, r2]
   db28c:	b107      	cbz	r7, db290 <rshift+0x68>
   db28e:	3304      	adds	r3, #4
   db290:	1b1a      	subs	r2, r3, r4
   db292:	42a3      	cmp	r3, r4
   db294:	ea4f 02a2 	mov.w	r2, r2, asr #2
   db298:	bf08      	it	eq
   db29a:	2300      	moveq	r3, #0
   db29c:	6102      	str	r2, [r0, #16]
   db29e:	bf08      	it	eq
   db2a0:	6143      	streq	r3, [r0, #20]
   db2a2:	e8bd 83f0 	ldmia.w	sp!, {r4, r5, r6, r7, r8, r9, pc}
   db2a6:	f8dc c000 	ldr.w	ip, [ip]
   db2aa:	fa0c fc08 	lsl.w	ip, ip, r8
   db2ae:	ea4c 0707 	orr.w	r7, ip, r7
   db2b2:	f849 7b04 	str.w	r7, [r9], #4
   db2b6:	f85e 7b04 	ldr.w	r7, [lr], #4
   db2ba:	40cf      	lsrs	r7, r1
   db2bc:	e7da      	b.n	db274 <rshift+0x4c>
   db2be:	f851 cb04 	ldr.w	ip, [r1], #4
   db2c2:	f847 cf04 	str.w	ip, [r7, #4]!
   db2c6:	e7c3      	b.n	db250 <rshift+0x28>
   db2c8:	4623      	mov	r3, r4
   db2ca:	e7e1      	b.n	db290 <rshift+0x68>

000db2cc <__hexdig_fun>:
   db2cc:	f1a0 0330 	sub.w	r3, r0, #48	; 0x30
   db2d0:	2b09      	cmp	r3, #9
   db2d2:	d802      	bhi.n	db2da <__hexdig_fun+0xe>
   db2d4:	3820      	subs	r0, #32
   db2d6:	b2c0      	uxtb	r0, r0
   db2d8:	4770      	bx	lr
   db2da:	f1a0 0361 	sub.w	r3, r0, #97	; 0x61
   db2de:	2b05      	cmp	r3, #5
   db2e0:	d801      	bhi.n	db2e6 <__hexdig_fun+0x1a>
   db2e2:	3847      	subs	r0, #71	; 0x47
   db2e4:	e7f7      	b.n	db2d6 <__hexdig_fun+0xa>
   db2e6:	f1a0 0341 	sub.w	r3, r0, #65	; 0x41
   db2ea:	2b05      	cmp	r3, #5
   db2ec:	d801      	bhi.n	db2f2 <__hexdig_fun+0x26>
   db2ee:	3827      	subs	r0, #39	; 0x27
   db2f0:	e7f1      	b.n	db2d6 <__hexdig_fun+0xa>
   db2f2:	2000      	movs	r0, #0
   db2f4:	4770      	bx	lr
	...

000db2f8 <__gethex>:
   db2f8:	e92d 4ff0 	stmdb	sp!, {r4, r5, r6, r7, r8, r9, sl, fp, lr}
   db2fc:	ed2d 8b02 	vpush	{d8}
   db300:	b089      	sub	sp, #36	; 0x24
   db302:	ee08 0a10 	vmov	s16, r0
   db306:	9304      	str	r3, [sp, #16]
   db308:	4bbc      	ldr	r3, [pc, #752]	; (db5fc <__gethex+0x304>)
   db30a:	681b      	ldr	r3, [r3, #0]
   db30c:	9301      	str	r3, [sp, #4]
   db30e:	4618      	mov	r0, r3
   db310:	468b      	mov	fp, r1
   db312:	4690      	mov	r8, r2
   db314:	f7ff f8bf 	bl	da496 <strlen>
   db318:	9b01      	ldr	r3, [sp, #4]
   db31a:	f8db 2000 	ldr.w	r2, [fp]
   db31e:	4403      	add	r3, r0
   db320:	4682      	mov	sl, r0
   db322:	f813 3c01 	ldrb.w	r3, [r3, #-1]
   db326:	9305      	str	r3, [sp, #20]
   db328:	1c93      	adds	r3, r2, #2
   db32a:	f1c2 22ff 	rsb	r2, r2, #4278255360	; 0xff00ff00
   db32e:	f502 027f 	add.w	r2, r2, #16711680	; 0xff0000
   db332:	32fe      	adds	r2, #254	; 0xfe
   db334:	18d1      	adds	r1, r2, r3
   db336:	461f      	mov	r7, r3
   db338:	f813 0b01 	ldrb.w	r0, [r3], #1
   db33c:	9100      	str	r1, [sp, #0]
   db33e:	2830      	cmp	r0, #48	; 0x30
   db340:	d0f8      	beq.n	db334 <__gethex+0x3c>
   db342:	f7ff ffc3 	bl	db2cc <__hexdig_fun>
   db346:	4604      	mov	r4, r0
   db348:	2800      	cmp	r0, #0
   db34a:	d13a      	bne.n	db3c2 <__gethex+0xca>
   db34c:	9901      	ldr	r1, [sp, #4]
   db34e:	4652      	mov	r2, sl
   db350:	4638      	mov	r0, r7
   db352:	f7ff f8a8 	bl	da4a6 <strncmp>
   db356:	4605      	mov	r5, r0
   db358:	2800      	cmp	r0, #0
   db35a:	d168      	bne.n	db42e <__gethex+0x136>
   db35c:	f817 000a 	ldrb.w	r0, [r7, sl]
   db360:	eb07 060a 	add.w	r6, r7, sl
   db364:	f7ff ffb2 	bl	db2cc <__hexdig_fun>
   db368:	2800      	cmp	r0, #0
   db36a:	d062      	beq.n	db432 <__gethex+0x13a>
   db36c:	4633      	mov	r3, r6
   db36e:	7818      	ldrb	r0, [r3, #0]
   db370:	2830      	cmp	r0, #48	; 0x30
   db372:	461f      	mov	r7, r3
   db374:	f103 0301 	add.w	r3, r3, #1
   db378:	d0f9      	beq.n	db36e <__gethex+0x76>
   db37a:	f7ff ffa7 	bl	db2cc <__hexdig_fun>
   db37e:	2301      	movs	r3, #1
   db380:	fab0 f480 	clz	r4, r0
   db384:	0964      	lsrs	r4, r4, #5
   db386:	4635      	mov	r5, r6
   db388:	9300      	str	r3, [sp, #0]
   db38a:	463a      	mov	r2, r7
   db38c:	4616      	mov	r6, r2
   db38e:	3201      	adds	r2, #1
   db390:	7830      	ldrb	r0, [r6, #0]
   db392:	f7ff ff9b 	bl	db2cc <__hexdig_fun>
   db396:	2800      	cmp	r0, #0
   db398:	d1f8      	bne.n	db38c <__gethex+0x94>
   db39a:	9901      	ldr	r1, [sp, #4]
   db39c:	4652      	mov	r2, sl
   db39e:	4630      	mov	r0, r6
   db3a0:	f7ff f881 	bl	da4a6 <strncmp>
   db3a4:	b980      	cbnz	r0, db3c8 <__gethex+0xd0>
   db3a6:	b94d      	cbnz	r5, db3bc <__gethex+0xc4>
   db3a8:	eb06 050a 	add.w	r5, r6, sl
   db3ac:	462a      	mov	r2, r5
   db3ae:	4616      	mov	r6, r2
   db3b0:	3201      	adds	r2, #1
   db3b2:	7830      	ldrb	r0, [r6, #0]
   db3b4:	f7ff ff8a 	bl	db2cc <__hexdig_fun>
   db3b8:	2800      	cmp	r0, #0
   db3ba:	d1f8      	bne.n	db3ae <__gethex+0xb6>
   db3bc:	1bad      	subs	r5, r5, r6
   db3be:	00ad      	lsls	r5, r5, #2
   db3c0:	e004      	b.n	db3cc <__gethex+0xd4>
   db3c2:	2400      	movs	r4, #0
   db3c4:	4625      	mov	r5, r4
   db3c6:	e7e0      	b.n	db38a <__gethex+0x92>
   db3c8:	2d00      	cmp	r5, #0
   db3ca:	d1f7      	bne.n	db3bc <__gethex+0xc4>
   db3cc:	7833      	ldrb	r3, [r6, #0]
   db3ce:	f003 03df 	and.w	r3, r3, #223	; 0xdf
   db3d2:	2b50      	cmp	r3, #80	; 0x50
   db3d4:	d13b      	bne.n	db44e <__gethex+0x156>
   db3d6:	7873      	ldrb	r3, [r6, #1]
   db3d8:	2b2b      	cmp	r3, #43	; 0x2b
   db3da:	d02c      	beq.n	db436 <__gethex+0x13e>
   db3dc:	2b2d      	cmp	r3, #45	; 0x2d
   db3de:	d02e      	beq.n	db43e <__gethex+0x146>
   db3e0:	1c71      	adds	r1, r6, #1
   db3e2:	f04f 0900 	mov.w	r9, #0
   db3e6:	7808      	ldrb	r0, [r1, #0]
   db3e8:	f7ff ff70 	bl	db2cc <__hexdig_fun>
   db3ec:	1e43      	subs	r3, r0, #1
   db3ee:	b2db      	uxtb	r3, r3
   db3f0:	2b18      	cmp	r3, #24
   db3f2:	d82c      	bhi.n	db44e <__gethex+0x156>
   db3f4:	f1a0 0210 	sub.w	r2, r0, #16
   db3f8:	f811 0f01 	ldrb.w	r0, [r1, #1]!
   db3fc:	f7ff ff66 	bl	db2cc <__hexdig_fun>
   db400:	1e43      	subs	r3, r0, #1
   db402:	b2db      	uxtb	r3, r3
   db404:	2b18      	cmp	r3, #24
   db406:	d91d      	bls.n	db444 <__gethex+0x14c>
   db408:	f1b9 0f00 	cmp.w	r9, #0
   db40c:	d000      	beq.n	db410 <__gethex+0x118>
   db40e:	4252      	negs	r2, r2
   db410:	4415      	add	r5, r2
   db412:	f8cb 1000 	str.w	r1, [fp]
   db416:	b1e4      	cbz	r4, db452 <__gethex+0x15a>
   db418:	9b00      	ldr	r3, [sp, #0]
   db41a:	2b00      	cmp	r3, #0
   db41c:	bf14      	ite	ne
   db41e:	2700      	movne	r7, #0
   db420:	2706      	moveq	r7, #6
   db422:	4638      	mov	r0, r7
   db424:	b009      	add	sp, #36	; 0x24
   db426:	ecbd 8b02 	vpop	{d8}
   db42a:	e8bd 8ff0 	ldmia.w	sp!, {r4, r5, r6, r7, r8, r9, sl, fp, pc}
   db42e:	463e      	mov	r6, r7
   db430:	4625      	mov	r5, r4
   db432:	2401      	movs	r4, #1
   db434:	e7ca      	b.n	db3cc <__gethex+0xd4>
   db436:	f04f 0900 	mov.w	r9, #0
   db43a:	1cb1      	adds	r1, r6, #2
   db43c:	e7d3      	b.n	db3e6 <__gethex+0xee>
   db43e:	f04f 0901 	mov.w	r9, #1
   db442:	e7fa      	b.n	db43a <__gethex+0x142>
   db444:	230a      	movs	r3, #10
   db446:	fb03 0202 	mla	r2, r3, r2, r0
   db44a:	3a10      	subs	r2, #16
   db44c:	e7d4      	b.n	db3f8 <__gethex+0x100>
   db44e:	4631      	mov	r1, r6
   db450:	e7df      	b.n	db412 <__gethex+0x11a>
   db452:	1bf3      	subs	r3, r6, r7
   db454:	3b01      	subs	r3, #1
   db456:	4621      	mov	r1, r4
   db458:	2b07      	cmp	r3, #7
   db45a:	dc52      	bgt.n	db502 <__gethex+0x20a>
   db45c:	ee18 0a10 	vmov	r0, s16
   db460:	f000 fa52 	bl	db908 <_Balloc>
   db464:	f04f 0b00 	mov.w	fp, #0
   db468:	f100 0914 	add.w	r9, r0, #20
   db46c:	f1ca 0301 	rsb	r3, sl, #1
   db470:	4604      	mov	r4, r0
   db472:	f8cd 9008 	str.w	r9, [sp, #8]
   db476:	f8cd b000 	str.w	fp, [sp]
   db47a:	9306      	str	r3, [sp, #24]
   db47c:	42b7      	cmp	r7, r6
   db47e:	d343      	bcc.n	db508 <__gethex+0x210>
   db480:	9802      	ldr	r0, [sp, #8]
   db482:	9b00      	ldr	r3, [sp, #0]
   db484:	f840 3b04 	str.w	r3, [r0], #4
   db488:	eba0 0009 	sub.w	r0, r0, r9
   db48c:	1080      	asrs	r0, r0, #2
   db48e:	0146      	lsls	r6, r0, #5
   db490:	6120      	str	r0, [r4, #16]
   db492:	4618      	mov	r0, r3
   db494:	f000 faff 	bl	dba96 <__hi0bits>
   db498:	1a30      	subs	r0, r6, r0
   db49a:	f8d8 6000 	ldr.w	r6, [r8]
   db49e:	42b0      	cmp	r0, r6
   db4a0:	dd66      	ble.n	db570 <__gethex+0x278>
   db4a2:	1b87      	subs	r7, r0, r6
   db4a4:	4639      	mov	r1, r7
   db4a6:	4620      	mov	r0, r4
   db4a8:	f000 fe4c 	bl	dc144 <__any_on>
   db4ac:	4682      	mov	sl, r0
   db4ae:	b1a8      	cbz	r0, db4dc <__gethex+0x1e4>
   db4b0:	1e7b      	subs	r3, r7, #1
   db4b2:	1159      	asrs	r1, r3, #5
   db4b4:	f003 021f 	and.w	r2, r3, #31
   db4b8:	f859 1021 	ldr.w	r1, [r9, r1, lsl #2]
   db4bc:	f04f 0a01 	mov.w	sl, #1
   db4c0:	fa0a f202 	lsl.w	r2, sl, r2
   db4c4:	420a      	tst	r2, r1
   db4c6:	d009      	beq.n	db4dc <__gethex+0x1e4>
   db4c8:	4553      	cmp	r3, sl
   db4ca:	dd05      	ble.n	db4d8 <__gethex+0x1e0>
   db4cc:	1eb9      	subs	r1, r7, #2
   db4ce:	4620      	mov	r0, r4
   db4d0:	f000 fe38 	bl	dc144 <__any_on>
   db4d4:	2800      	cmp	r0, #0
   db4d6:	d148      	bne.n	db56a <__gethex+0x272>
   db4d8:	f04f 0a02 	mov.w	sl, #2
   db4dc:	4639      	mov	r1, r7
   db4de:	4620      	mov	r0, r4
   db4e0:	f7ff fea2 	bl	db228 <rshift>
   db4e4:	443d      	add	r5, r7
   db4e6:	f8d8 3008 	ldr.w	r3, [r8, #8]
   db4ea:	42ab      	cmp	r3, r5
   db4ec:	da4f      	bge.n	db58e <__gethex+0x296>
   db4ee:	ee18 0a10 	vmov	r0, s16
   db4f2:	4621      	mov	r1, r4
   db4f4:	f000 fa3c 	bl	db970 <_Bfree>
   db4f8:	9a14      	ldr	r2, [sp, #80]	; 0x50
   db4fa:	2300      	movs	r3, #0
   db4fc:	6013      	str	r3, [r2, #0]
   db4fe:	27a3      	movs	r7, #163	; 0xa3
   db500:	e78f      	b.n	db422 <__gethex+0x12a>
   db502:	3101      	adds	r1, #1
   db504:	105b      	asrs	r3, r3, #1
   db506:	e7a7      	b.n	db458 <__gethex+0x160>
   db508:	1e73      	subs	r3, r6, #1
   db50a:	9a05      	ldr	r2, [sp, #20]
   db50c:	9303      	str	r3, [sp, #12]
   db50e:	f816 3c01 	ldrb.w	r3, [r6, #-1]
   db512:	4293      	cmp	r3, r2
   db514:	d019      	beq.n	db54a <__gethex+0x252>
   db516:	f1bb 0f20 	cmp.w	fp, #32
   db51a:	d107      	bne.n	db52c <__gethex+0x234>
   db51c:	9b02      	ldr	r3, [sp, #8]
   db51e:	9a00      	ldr	r2, [sp, #0]
   db520:	f843 2b04 	str.w	r2, [r3], #4
   db524:	9302      	str	r3, [sp, #8]
   db526:	2300      	movs	r3, #0
   db528:	9300      	str	r3, [sp, #0]
   db52a:	469b      	mov	fp, r3
   db52c:	f816 0c01 	ldrb.w	r0, [r6, #-1]
   db530:	f7ff fecc 	bl	db2cc <__hexdig_fun>
   db534:	9b00      	ldr	r3, [sp, #0]
   db536:	f000 000f 	and.w	r0, r0, #15
   db53a:	fa00 f00b 	lsl.w	r0, r0, fp
   db53e:	4303      	orrs	r3, r0
   db540:	9300      	str	r3, [sp, #0]
   db542:	f10b 0b04 	add.w	fp, fp, #4
   db546:	9b03      	ldr	r3, [sp, #12]
   db548:	e00d      	b.n	db566 <__gethex+0x26e>
   db54a:	9b03      	ldr	r3, [sp, #12]
   db54c:	9a06      	ldr	r2, [sp, #24]
   db54e:	4413      	add	r3, r2
   db550:	42bb      	cmp	r3, r7
   db552:	d3e0      	bcc.n	db516 <__gethex+0x21e>
   db554:	4618      	mov	r0, r3
   db556:	9901      	ldr	r1, [sp, #4]
   db558:	9307      	str	r3, [sp, #28]
   db55a:	4652      	mov	r2, sl
   db55c:	f7fe ffa3 	bl	da4a6 <strncmp>
   db560:	9b07      	ldr	r3, [sp, #28]
   db562:	2800      	cmp	r0, #0
   db564:	d1d7      	bne.n	db516 <__gethex+0x21e>
   db566:	461e      	mov	r6, r3
   db568:	e788      	b.n	db47c <__gethex+0x184>
   db56a:	f04f 0a03 	mov.w	sl, #3
   db56e:	e7b5      	b.n	db4dc <__gethex+0x1e4>
   db570:	da0a      	bge.n	db588 <__gethex+0x290>
   db572:	1a37      	subs	r7, r6, r0
   db574:	4621      	mov	r1, r4
   db576:	ee18 0a10 	vmov	r0, s16
   db57a:	463a      	mov	r2, r7
   db57c:	f000 fbce 	bl	dbd1c <__lshift>
   db580:	1bed      	subs	r5, r5, r7
   db582:	4604      	mov	r4, r0
   db584:	f100 0914 	add.w	r9, r0, #20
   db588:	f04f 0a00 	mov.w	sl, #0
   db58c:	e7ab      	b.n	db4e6 <__gethex+0x1ee>
   db58e:	f8d8 0004 	ldr.w	r0, [r8, #4]
   db592:	42a8      	cmp	r0, r5
   db594:	dd6d      	ble.n	db672 <__gethex+0x37a>
   db596:	1b45      	subs	r5, r0, r5
   db598:	42ae      	cmp	r6, r5
   db59a:	dc31      	bgt.n	db600 <__gethex+0x308>
   db59c:	f8d8 300c 	ldr.w	r3, [r8, #12]
   db5a0:	2b02      	cmp	r3, #2
   db5a2:	d023      	beq.n	db5ec <__gethex+0x2f4>
   db5a4:	2b03      	cmp	r3, #3
   db5a6:	d025      	beq.n	db5f4 <__gethex+0x2fc>
   db5a8:	2b01      	cmp	r3, #1
   db5aa:	d115      	bne.n	db5d8 <__gethex+0x2e0>
   db5ac:	42ae      	cmp	r6, r5
   db5ae:	d113      	bne.n	db5d8 <__gethex+0x2e0>
   db5b0:	2e01      	cmp	r6, #1
   db5b2:	d10b      	bne.n	db5cc <__gethex+0x2d4>
   db5b4:	9a04      	ldr	r2, [sp, #16]
   db5b6:	f8d8 3004 	ldr.w	r3, [r8, #4]
   db5ba:	6013      	str	r3, [r2, #0]
   db5bc:	2301      	movs	r3, #1
   db5be:	6123      	str	r3, [r4, #16]
   db5c0:	f8c9 3000 	str.w	r3, [r9]
   db5c4:	9b14      	ldr	r3, [sp, #80]	; 0x50
   db5c6:	2762      	movs	r7, #98	; 0x62
   db5c8:	601c      	str	r4, [r3, #0]
   db5ca:	e72a      	b.n	db422 <__gethex+0x12a>
   db5cc:	1e71      	subs	r1, r6, #1
   db5ce:	4620      	mov	r0, r4
   db5d0:	f000 fdb8 	bl	dc144 <__any_on>
   db5d4:	2800      	cmp	r0, #0
   db5d6:	d1ed      	bne.n	db5b4 <__gethex+0x2bc>
   db5d8:	ee18 0a10 	vmov	r0, s16
   db5dc:	4621      	mov	r1, r4
   db5de:	f000 f9c7 	bl	db970 <_Bfree>
   db5e2:	9a14      	ldr	r2, [sp, #80]	; 0x50
   db5e4:	2300      	movs	r3, #0
   db5e6:	6013      	str	r3, [r2, #0]
   db5e8:	2750      	movs	r7, #80	; 0x50
   db5ea:	e71a      	b.n	db422 <__gethex+0x12a>
   db5ec:	9b15      	ldr	r3, [sp, #84]	; 0x54
   db5ee:	2b00      	cmp	r3, #0
   db5f0:	d1f2      	bne.n	db5d8 <__gethex+0x2e0>
   db5f2:	e7df      	b.n	db5b4 <__gethex+0x2bc>
   db5f4:	9b15      	ldr	r3, [sp, #84]	; 0x54
   db5f6:	2b00      	cmp	r3, #0
   db5f8:	d1dc      	bne.n	db5b4 <__gethex+0x2bc>
   db5fa:	e7ed      	b.n	db5d8 <__gethex+0x2e0>
   db5fc:	000dcfcc 	.word	0x000dcfcc
   db600:	1e6f      	subs	r7, r5, #1
   db602:	f1ba 0f00 	cmp.w	sl, #0
   db606:	d131      	bne.n	db66c <__gethex+0x374>
   db608:	b127      	cbz	r7, db614 <__gethex+0x31c>
   db60a:	4639      	mov	r1, r7
   db60c:	4620      	mov	r0, r4
   db60e:	f000 fd99 	bl	dc144 <__any_on>
   db612:	4682      	mov	sl, r0
   db614:	117b      	asrs	r3, r7, #5
   db616:	2101      	movs	r1, #1
   db618:	f859 3023 	ldr.w	r3, [r9, r3, lsl #2]
   db61c:	f007 071f 	and.w	r7, r7, #31
   db620:	fa01 f707 	lsl.w	r7, r1, r7
   db624:	421f      	tst	r7, r3
   db626:	4629      	mov	r1, r5
   db628:	4620      	mov	r0, r4
   db62a:	bf18      	it	ne
   db62c:	f04a 0a02 	orrne.w	sl, sl, #2
   db630:	1b76      	subs	r6, r6, r5
   db632:	f7ff fdf9 	bl	db228 <rshift>
   db636:	f8d8 5004 	ldr.w	r5, [r8, #4]
   db63a:	2702      	movs	r7, #2
   db63c:	f1ba 0f00 	cmp.w	sl, #0
   db640:	d048      	beq.n	db6d4 <__gethex+0x3dc>
   db642:	f8d8 300c 	ldr.w	r3, [r8, #12]
   db646:	2b02      	cmp	r3, #2
   db648:	d015      	beq.n	db676 <__gethex+0x37e>
   db64a:	2b03      	cmp	r3, #3
   db64c:	d017      	beq.n	db67e <__gethex+0x386>
   db64e:	2b01      	cmp	r3, #1
   db650:	d109      	bne.n	db666 <__gethex+0x36e>
   db652:	f01a 0f02 	tst.w	sl, #2
   db656:	d006      	beq.n	db666 <__gethex+0x36e>
   db658:	f8d9 0000 	ldr.w	r0, [r9]
   db65c:	ea4a 0a00 	orr.w	sl, sl, r0
   db660:	f01a 0f01 	tst.w	sl, #1
   db664:	d10e      	bne.n	db684 <__gethex+0x38c>
   db666:	f047 0710 	orr.w	r7, r7, #16
   db66a:	e033      	b.n	db6d4 <__gethex+0x3dc>
   db66c:	f04f 0a01 	mov.w	sl, #1
   db670:	e7d0      	b.n	db614 <__gethex+0x31c>
   db672:	2701      	movs	r7, #1
   db674:	e7e2      	b.n	db63c <__gethex+0x344>
   db676:	9b15      	ldr	r3, [sp, #84]	; 0x54
   db678:	f1c3 0301 	rsb	r3, r3, #1
   db67c:	9315      	str	r3, [sp, #84]	; 0x54
   db67e:	9b15      	ldr	r3, [sp, #84]	; 0x54
   db680:	2b00      	cmp	r3, #0
   db682:	d0f0      	beq.n	db666 <__gethex+0x36e>
   db684:	f8d4 9010 	ldr.w	r9, [r4, #16]
   db688:	f104 0314 	add.w	r3, r4, #20
   db68c:	ea4f 0b89 	mov.w	fp, r9, lsl #2
   db690:	eb03 0189 	add.w	r1, r3, r9, lsl #2
   db694:	f04f 0c00 	mov.w	ip, #0
   db698:	4618      	mov	r0, r3
   db69a:	f853 2b04 	ldr.w	r2, [r3], #4
   db69e:	f1b2 3fff 	cmp.w	r2, #4294967295	; 0xffffffff
   db6a2:	d01c      	beq.n	db6de <__gethex+0x3e6>
   db6a4:	3201      	adds	r2, #1
   db6a6:	6002      	str	r2, [r0, #0]
   db6a8:	2f02      	cmp	r7, #2
   db6aa:	f104 0314 	add.w	r3, r4, #20
   db6ae:	d13a      	bne.n	db726 <__gethex+0x42e>
   db6b0:	f8d8 2000 	ldr.w	r2, [r8]
   db6b4:	3a01      	subs	r2, #1
   db6b6:	42b2      	cmp	r2, r6
   db6b8:	d10a      	bne.n	db6d0 <__gethex+0x3d8>
   db6ba:	1171      	asrs	r1, r6, #5
   db6bc:	2201      	movs	r2, #1
   db6be:	f853 3021 	ldr.w	r3, [r3, r1, lsl #2]
   db6c2:	f006 061f 	and.w	r6, r6, #31
   db6c6:	fa02 f606 	lsl.w	r6, r2, r6
   db6ca:	421e      	tst	r6, r3
   db6cc:	bf18      	it	ne
   db6ce:	4617      	movne	r7, r2
   db6d0:	f047 0720 	orr.w	r7, r7, #32
   db6d4:	9b14      	ldr	r3, [sp, #80]	; 0x50
   db6d6:	601c      	str	r4, [r3, #0]
   db6d8:	9b04      	ldr	r3, [sp, #16]
   db6da:	601d      	str	r5, [r3, #0]
   db6dc:	e6a1      	b.n	db422 <__gethex+0x12a>
   db6de:	4299      	cmp	r1, r3
   db6e0:	f843 cc04 	str.w	ip, [r3, #-4]
   db6e4:	d8d8      	bhi.n	db698 <__gethex+0x3a0>
   db6e6:	68a3      	ldr	r3, [r4, #8]
   db6e8:	4599      	cmp	r9, r3
   db6ea:	db14      	blt.n	db716 <__gethex+0x41e>
   db6ec:	6861      	ldr	r1, [r4, #4]
   db6ee:	ee18 0a10 	vmov	r0, s16
   db6f2:	3101      	adds	r1, #1
   db6f4:	f000 f908 	bl	db908 <_Balloc>
   db6f8:	6922      	ldr	r2, [r4, #16]
   db6fa:	3202      	adds	r2, #2
   db6fc:	f104 010c 	add.w	r1, r4, #12
   db700:	4682      	mov	sl, r0
   db702:	0092      	lsls	r2, r2, #2
   db704:	300c      	adds	r0, #12
   db706:	f7fe fe25 	bl	da354 <memcpy>
   db70a:	4621      	mov	r1, r4
   db70c:	ee18 0a10 	vmov	r0, s16
   db710:	f000 f92e 	bl	db970 <_Bfree>
   db714:	4654      	mov	r4, sl
   db716:	6923      	ldr	r3, [r4, #16]
   db718:	1c5a      	adds	r2, r3, #1
   db71a:	eb04 0383 	add.w	r3, r4, r3, lsl #2
   db71e:	6122      	str	r2, [r4, #16]
   db720:	2201      	movs	r2, #1
   db722:	615a      	str	r2, [r3, #20]
   db724:	e7c0      	b.n	db6a8 <__gethex+0x3b0>
   db726:	6922      	ldr	r2, [r4, #16]
   db728:	454a      	cmp	r2, r9
   db72a:	dd0b      	ble.n	db744 <__gethex+0x44c>
   db72c:	2101      	movs	r1, #1
   db72e:	4620      	mov	r0, r4
   db730:	f7ff fd7a 	bl	db228 <rshift>
   db734:	f8d8 3008 	ldr.w	r3, [r8, #8]
   db738:	3501      	adds	r5, #1
   db73a:	42ab      	cmp	r3, r5
   db73c:	f6ff aed7 	blt.w	db4ee <__gethex+0x1f6>
   db740:	2701      	movs	r7, #1
   db742:	e7c5      	b.n	db6d0 <__gethex+0x3d8>
   db744:	f016 061f 	ands.w	r6, r6, #31
   db748:	d0fa      	beq.n	db740 <__gethex+0x448>
   db74a:	449b      	add	fp, r3
   db74c:	f1c6 0620 	rsb	r6, r6, #32
   db750:	f85b 0c04 	ldr.w	r0, [fp, #-4]
   db754:	f000 f99f 	bl	dba96 <__hi0bits>
   db758:	42b0      	cmp	r0, r6
   db75a:	dbe7      	blt.n	db72c <__gethex+0x434>
   db75c:	e7f0      	b.n	db740 <__gethex+0x448>
   db75e:	bf00      	nop

000db760 <L_shift>:
   db760:	f1c2 0208 	rsb	r2, r2, #8
   db764:	0092      	lsls	r2, r2, #2
   db766:	b570      	push	{r4, r5, r6, lr}
   db768:	f1c2 0620 	rsb	r6, r2, #32
   db76c:	6843      	ldr	r3, [r0, #4]
   db76e:	6804      	ldr	r4, [r0, #0]
   db770:	fa03 f506 	lsl.w	r5, r3, r6
   db774:	432c      	orrs	r4, r5
   db776:	40d3      	lsrs	r3, r2
   db778:	6004      	str	r4, [r0, #0]
   db77a:	f840 3f04 	str.w	r3, [r0, #4]!
   db77e:	4288      	cmp	r0, r1
   db780:	d3f4      	bcc.n	db76c <L_shift+0xc>
   db782:	bd70      	pop	{r4, r5, r6, pc}

000db784 <__match>:
   db784:	b530      	push	{r4, r5, lr}
   db786:	6803      	ldr	r3, [r0, #0]
   db788:	3301      	adds	r3, #1
   db78a:	f811 4b01 	ldrb.w	r4, [r1], #1
   db78e:	b914      	cbnz	r4, db796 <__match+0x12>
   db790:	6003      	str	r3, [r0, #0]
   db792:	2001      	movs	r0, #1
   db794:	bd30      	pop	{r4, r5, pc}
   db796:	f813 2b01 	ldrb.w	r2, [r3], #1
   db79a:	f1a2 0541 	sub.w	r5, r2, #65	; 0x41
   db79e:	2d19      	cmp	r5, #25
   db7a0:	bf98      	it	ls
   db7a2:	3220      	addls	r2, #32
   db7a4:	42a2      	cmp	r2, r4
   db7a6:	d0f0      	beq.n	db78a <__match+0x6>
   db7a8:	2000      	movs	r0, #0
   db7aa:	e7f3      	b.n	db794 <__match+0x10>

000db7ac <__hexnan>:
   db7ac:	e92d 4ff0 	stmdb	sp!, {r4, r5, r6, r7, r8, r9, sl, fp, lr}
   db7b0:	680b      	ldr	r3, [r1, #0]
   db7b2:	6801      	ldr	r1, [r0, #0]
   db7b4:	115e      	asrs	r6, r3, #5
   db7b6:	eb02 0686 	add.w	r6, r2, r6, lsl #2
   db7ba:	f013 031f 	ands.w	r3, r3, #31
   db7be:	b087      	sub	sp, #28
   db7c0:	bf18      	it	ne
   db7c2:	3604      	addne	r6, #4
   db7c4:	2500      	movs	r5, #0
   db7c6:	1f37      	subs	r7, r6, #4
   db7c8:	4682      	mov	sl, r0
   db7ca:	4690      	mov	r8, r2
   db7cc:	9301      	str	r3, [sp, #4]
   db7ce:	f846 5c04 	str.w	r5, [r6, #-4]
   db7d2:	46b9      	mov	r9, r7
   db7d4:	463c      	mov	r4, r7
   db7d6:	9502      	str	r5, [sp, #8]
   db7d8:	46ab      	mov	fp, r5
   db7da:	784a      	ldrb	r2, [r1, #1]
   db7dc:	1c4b      	adds	r3, r1, #1
   db7de:	9303      	str	r3, [sp, #12]
   db7e0:	b342      	cbz	r2, db834 <__hexnan+0x88>
   db7e2:	4610      	mov	r0, r2
   db7e4:	9105      	str	r1, [sp, #20]
   db7e6:	9204      	str	r2, [sp, #16]
   db7e8:	f7ff fd70 	bl	db2cc <__hexdig_fun>
   db7ec:	2800      	cmp	r0, #0
   db7ee:	d14f      	bne.n	db890 <__hexnan+0xe4>
   db7f0:	9a04      	ldr	r2, [sp, #16]
   db7f2:	9905      	ldr	r1, [sp, #20]
   db7f4:	2a20      	cmp	r2, #32
   db7f6:	d818      	bhi.n	db82a <__hexnan+0x7e>
   db7f8:	9b02      	ldr	r3, [sp, #8]
   db7fa:	459b      	cmp	fp, r3
   db7fc:	dd13      	ble.n	db826 <__hexnan+0x7a>
   db7fe:	454c      	cmp	r4, r9
   db800:	d206      	bcs.n	db810 <__hexnan+0x64>
   db802:	2d07      	cmp	r5, #7
   db804:	dc04      	bgt.n	db810 <__hexnan+0x64>
   db806:	462a      	mov	r2, r5
   db808:	4649      	mov	r1, r9
   db80a:	4620      	mov	r0, r4
   db80c:	f7ff ffa8 	bl	db760 <L_shift>
   db810:	4544      	cmp	r4, r8
   db812:	d950      	bls.n	db8b6 <__hexnan+0x10a>
   db814:	2300      	movs	r3, #0
   db816:	f1a4 0904 	sub.w	r9, r4, #4
   db81a:	f844 3c04 	str.w	r3, [r4, #-4]
   db81e:	f8cd b008 	str.w	fp, [sp, #8]
   db822:	464c      	mov	r4, r9
   db824:	461d      	mov	r5, r3
   db826:	9903      	ldr	r1, [sp, #12]
   db828:	e7d7      	b.n	db7da <__hexnan+0x2e>
   db82a:	2a29      	cmp	r2, #41	; 0x29
   db82c:	d156      	bne.n	db8dc <__hexnan+0x130>
   db82e:	3102      	adds	r1, #2
   db830:	f8ca 1000 	str.w	r1, [sl]
   db834:	f1bb 0f00 	cmp.w	fp, #0
   db838:	d050      	beq.n	db8dc <__hexnan+0x130>
   db83a:	454c      	cmp	r4, r9
   db83c:	d206      	bcs.n	db84c <__hexnan+0xa0>
   db83e:	2d07      	cmp	r5, #7
   db840:	dc04      	bgt.n	db84c <__hexnan+0xa0>
   db842:	462a      	mov	r2, r5
   db844:	4649      	mov	r1, r9
   db846:	4620      	mov	r0, r4
   db848:	f7ff ff8a 	bl	db760 <L_shift>
   db84c:	4544      	cmp	r4, r8
   db84e:	d934      	bls.n	db8ba <__hexnan+0x10e>
   db850:	f1a8 0204 	sub.w	r2, r8, #4
   db854:	4623      	mov	r3, r4
   db856:	f853 1b04 	ldr.w	r1, [r3], #4
   db85a:	f842 1f04 	str.w	r1, [r2, #4]!
   db85e:	429f      	cmp	r7, r3
   db860:	d2f9      	bcs.n	db856 <__hexnan+0xaa>
   db862:	1b3b      	subs	r3, r7, r4
   db864:	f023 0303 	bic.w	r3, r3, #3
   db868:	3304      	adds	r3, #4
   db86a:	3401      	adds	r4, #1
   db86c:	3e03      	subs	r6, #3
   db86e:	42b4      	cmp	r4, r6
   db870:	bf88      	it	hi
   db872:	2304      	movhi	r3, #4
   db874:	4443      	add	r3, r8
   db876:	2200      	movs	r2, #0
   db878:	f843 2b04 	str.w	r2, [r3], #4
   db87c:	429f      	cmp	r7, r3
   db87e:	d2fb      	bcs.n	db878 <__hexnan+0xcc>
   db880:	683b      	ldr	r3, [r7, #0]
   db882:	b91b      	cbnz	r3, db88c <__hexnan+0xe0>
   db884:	4547      	cmp	r7, r8
   db886:	d127      	bne.n	db8d8 <__hexnan+0x12c>
   db888:	2301      	movs	r3, #1
   db88a:	603b      	str	r3, [r7, #0]
   db88c:	2005      	movs	r0, #5
   db88e:	e026      	b.n	db8de <__hexnan+0x132>
   db890:	3501      	adds	r5, #1
   db892:	2d08      	cmp	r5, #8
   db894:	f10b 0b01 	add.w	fp, fp, #1
   db898:	dd06      	ble.n	db8a8 <__hexnan+0xfc>
   db89a:	4544      	cmp	r4, r8
   db89c:	d9c3      	bls.n	db826 <__hexnan+0x7a>
   db89e:	2300      	movs	r3, #0
   db8a0:	f844 3c04 	str.w	r3, [r4, #-4]
   db8a4:	2501      	movs	r5, #1
   db8a6:	3c04      	subs	r4, #4
   db8a8:	6822      	ldr	r2, [r4, #0]
   db8aa:	f000 000f 	and.w	r0, r0, #15
   db8ae:	ea40 1202 	orr.w	r2, r0, r2, lsl #4
   db8b2:	6022      	str	r2, [r4, #0]
   db8b4:	e7b7      	b.n	db826 <__hexnan+0x7a>
   db8b6:	2508      	movs	r5, #8
   db8b8:	e7b5      	b.n	db826 <__hexnan+0x7a>
   db8ba:	9b01      	ldr	r3, [sp, #4]
   db8bc:	2b00      	cmp	r3, #0
   db8be:	d0df      	beq.n	db880 <__hexnan+0xd4>
   db8c0:	f04f 32ff 	mov.w	r2, #4294967295	; 0xffffffff
   db8c4:	f1c3 0320 	rsb	r3, r3, #32
   db8c8:	fa22 f303 	lsr.w	r3, r2, r3
   db8cc:	f856 2c04 	ldr.w	r2, [r6, #-4]
   db8d0:	401a      	ands	r2, r3
   db8d2:	f846 2c04 	str.w	r2, [r6, #-4]
   db8d6:	e7d3      	b.n	db880 <__hexnan+0xd4>
   db8d8:	3f04      	subs	r7, #4
   db8da:	e7d1      	b.n	db880 <__hexnan+0xd4>
   db8dc:	2004      	movs	r0, #4
   db8de:	b007      	add	sp, #28
   db8e0:	e8bd 8ff0 	ldmia.w	sp!, {r4, r5, r6, r7, r8, r9, sl, fp, pc}

000db8e4 <__ascii_mbtowc>:
   db8e4:	b082      	sub	sp, #8
   db8e6:	b901      	cbnz	r1, db8ea <__ascii_mbtowc+0x6>
   db8e8:	a901      	add	r1, sp, #4
   db8ea:	b142      	cbz	r2, db8fe <__ascii_mbtowc+0x1a>
   db8ec:	b14b      	cbz	r3, db902 <__ascii_mbtowc+0x1e>
   db8ee:	7813      	ldrb	r3, [r2, #0]
   db8f0:	600b      	str	r3, [r1, #0]
   db8f2:	7812      	ldrb	r2, [r2, #0]
   db8f4:	1e10      	subs	r0, r2, #0
   db8f6:	bf18      	it	ne
   db8f8:	2001      	movne	r0, #1
   db8fa:	b002      	add	sp, #8
   db8fc:	4770      	bx	lr
   db8fe:	4610      	mov	r0, r2
   db900:	e7fb      	b.n	db8fa <__ascii_mbtowc+0x16>
   db902:	f06f 0001 	mvn.w	r0, #1
   db906:	e7f8      	b.n	db8fa <__ascii_mbtowc+0x16>

000db908 <_Balloc>:
   db908:	b570      	push	{r4, r5, r6, lr}
   db90a:	6a46      	ldr	r6, [r0, #36]	; 0x24
   db90c:	4604      	mov	r4, r0
   db90e:	460d      	mov	r5, r1
   db910:	b93e      	cbnz	r6, db922 <_Balloc+0x1a>
   db912:	2010      	movs	r0, #16
   db914:	f7fb fb2a 	bl	d6f6c <malloc>
   db918:	e9c0 6601 	strd	r6, r6, [r0, #4]
   db91c:	6260      	str	r0, [r4, #36]	; 0x24
   db91e:	6006      	str	r6, [r0, #0]
   db920:	60c6      	str	r6, [r0, #12]
   db922:	6a66      	ldr	r6, [r4, #36]	; 0x24
   db924:	68f3      	ldr	r3, [r6, #12]
   db926:	b183      	cbz	r3, db94a <_Balloc+0x42>
   db928:	6a63      	ldr	r3, [r4, #36]	; 0x24
   db92a:	68db      	ldr	r3, [r3, #12]
   db92c:	f853 0025 	ldr.w	r0, [r3, r5, lsl #2]
   db930:	b9b8      	cbnz	r0, db962 <_Balloc+0x5a>
   db932:	2101      	movs	r1, #1
   db934:	fa01 f605 	lsl.w	r6, r1, r5
   db938:	1d72      	adds	r2, r6, #5
   db93a:	0092      	lsls	r2, r2, #2
   db93c:	4620      	mov	r0, r4
   db93e:	f7fe fd39 	bl	da3b4 <_calloc_r>
   db942:	b160      	cbz	r0, db95e <_Balloc+0x56>
   db944:	e9c0 5601 	strd	r5, r6, [r0, #4]
   db948:	e00e      	b.n	db968 <_Balloc+0x60>
   db94a:	2221      	movs	r2, #33	; 0x21
   db94c:	2104      	movs	r1, #4
   db94e:	4620      	mov	r0, r4
   db950:	f7fe fd30 	bl	da3b4 <_calloc_r>
   db954:	6a63      	ldr	r3, [r4, #36]	; 0x24
   db956:	60f0      	str	r0, [r6, #12]
   db958:	68db      	ldr	r3, [r3, #12]
   db95a:	2b00      	cmp	r3, #0
   db95c:	d1e4      	bne.n	db928 <_Balloc+0x20>
   db95e:	2000      	movs	r0, #0
   db960:	bd70      	pop	{r4, r5, r6, pc}
   db962:	6802      	ldr	r2, [r0, #0]
   db964:	f843 2025 	str.w	r2, [r3, r5, lsl #2]
   db968:	2300      	movs	r3, #0
   db96a:	e9c0 3303 	strd	r3, r3, [r0, #12]
   db96e:	e7f7      	b.n	db960 <_Balloc+0x58>

000db970 <_Bfree>:
   db970:	b570      	push	{r4, r5, r6, lr}
   db972:	6a46      	ldr	r6, [r0, #36]	; 0x24
   db974:	4605      	mov	r5, r0
   db976:	460c      	mov	r4, r1
   db978:	b93e      	cbnz	r6, db98a <_Bfree+0x1a>
   db97a:	2010      	movs	r0, #16
   db97c:	f7fb faf6 	bl	d6f6c <malloc>
   db980:	e9c0 6601 	strd	r6, r6, [r0, #4]
   db984:	6268      	str	r0, [r5, #36]	; 0x24
   db986:	6006      	str	r6, [r0, #0]
   db988:	60c6      	str	r6, [r0, #12]
   db98a:	b13c      	cbz	r4, db99c <_Bfree+0x2c>
   db98c:	6a6b      	ldr	r3, [r5, #36]	; 0x24
   db98e:	6862      	ldr	r2, [r4, #4]
   db990:	68db      	ldr	r3, [r3, #12]
   db992:	f853 1022 	ldr.w	r1, [r3, r2, lsl #2]
   db996:	6021      	str	r1, [r4, #0]
   db998:	f843 4022 	str.w	r4, [r3, r2, lsl #2]
   db99c:	bd70      	pop	{r4, r5, r6, pc}

000db99e <__multadd>:
   db99e:	e92d 41f0 	stmdb	sp!, {r4, r5, r6, r7, r8, lr}
   db9a2:	690e      	ldr	r6, [r1, #16]
   db9a4:	4607      	mov	r7, r0
   db9a6:	4698      	mov	r8, r3
   db9a8:	460c      	mov	r4, r1
   db9aa:	f101 0014 	add.w	r0, r1, #20
   db9ae:	2300      	movs	r3, #0
   db9b0:	6805      	ldr	r5, [r0, #0]
   db9b2:	b2a9      	uxth	r1, r5
   db9b4:	fb02 8101 	mla	r1, r2, r1, r8
   db9b8:	ea4f 4c11 	mov.w	ip, r1, lsr #16
   db9bc:	0c2d      	lsrs	r5, r5, #16
   db9be:	fb02 c505 	mla	r5, r2, r5, ip
   db9c2:	b289      	uxth	r1, r1
   db9c4:	3301      	adds	r3, #1
   db9c6:	eb01 4105 	add.w	r1, r1, r5, lsl #16
   db9ca:	429e      	cmp	r6, r3
   db9cc:	f840 1b04 	str.w	r1, [r0], #4
   db9d0:	ea4f 4815 	mov.w	r8, r5, lsr #16
   db9d4:	dcec      	bgt.n	db9b0 <__multadd+0x12>
   db9d6:	f1b8 0f00 	cmp.w	r8, #0
   db9da:	d01b      	beq.n	dba14 <__multadd+0x76>
   db9dc:	68a3      	ldr	r3, [r4, #8]
   db9de:	42b3      	cmp	r3, r6
   db9e0:	dc12      	bgt.n	dba08 <__multadd+0x6a>
   db9e2:	6861      	ldr	r1, [r4, #4]
   db9e4:	4638      	mov	r0, r7
   db9e6:	3101      	adds	r1, #1
   db9e8:	f7ff ff8e 	bl	db908 <_Balloc>
   db9ec:	6922      	ldr	r2, [r4, #16]
   db9ee:	3202      	adds	r2, #2
   db9f0:	f104 010c 	add.w	r1, r4, #12
   db9f4:	4605      	mov	r5, r0
   db9f6:	0092      	lsls	r2, r2, #2
   db9f8:	300c      	adds	r0, #12
   db9fa:	f7fe fcab 	bl	da354 <memcpy>
   db9fe:	4621      	mov	r1, r4
   dba00:	4638      	mov	r0, r7
   dba02:	f7ff ffb5 	bl	db970 <_Bfree>
   dba06:	462c      	mov	r4, r5
   dba08:	eb04 0386 	add.w	r3, r4, r6, lsl #2
   dba0c:	3601      	adds	r6, #1
   dba0e:	f8c3 8014 	str.w	r8, [r3, #20]
   dba12:	6126      	str	r6, [r4, #16]
   dba14:	4620      	mov	r0, r4
   dba16:	e8bd 81f0 	ldmia.w	sp!, {r4, r5, r6, r7, r8, pc}

000dba1a <__s2b>:
   dba1a:	e92d 43f8 	stmdb	sp!, {r3, r4, r5, r6, r7, r8, r9, lr}
   dba1e:	460c      	mov	r4, r1
   dba20:	4615      	mov	r5, r2
   dba22:	461f      	mov	r7, r3
   dba24:	2209      	movs	r2, #9
   dba26:	3308      	adds	r3, #8
   dba28:	4606      	mov	r6, r0
   dba2a:	fb93 f3f2 	sdiv	r3, r3, r2
   dba2e:	2100      	movs	r1, #0
   dba30:	2201      	movs	r2, #1
   dba32:	429a      	cmp	r2, r3
   dba34:	db20      	blt.n	dba78 <__s2b+0x5e>
   dba36:	4630      	mov	r0, r6
   dba38:	f7ff ff66 	bl	db908 <_Balloc>
   dba3c:	9b08      	ldr	r3, [sp, #32]
   dba3e:	6143      	str	r3, [r0, #20]
   dba40:	2d09      	cmp	r5, #9
   dba42:	f04f 0301 	mov.w	r3, #1
   dba46:	6103      	str	r3, [r0, #16]
   dba48:	dd19      	ble.n	dba7e <__s2b+0x64>
   dba4a:	f104 0909 	add.w	r9, r4, #9
   dba4e:	46c8      	mov	r8, r9
   dba50:	442c      	add	r4, r5
   dba52:	f818 3b01 	ldrb.w	r3, [r8], #1
   dba56:	4601      	mov	r1, r0
   dba58:	3b30      	subs	r3, #48	; 0x30
   dba5a:	220a      	movs	r2, #10
   dba5c:	4630      	mov	r0, r6
   dba5e:	f7ff ff9e 	bl	db99e <__multadd>
   dba62:	45a0      	cmp	r8, r4
   dba64:	d1f5      	bne.n	dba52 <__s2b+0x38>
   dba66:	f1a5 0408 	sub.w	r4, r5, #8
   dba6a:	444c      	add	r4, r9
   dba6c:	1b2d      	subs	r5, r5, r4
   dba6e:	1963      	adds	r3, r4, r5
   dba70:	42bb      	cmp	r3, r7
   dba72:	db07      	blt.n	dba84 <__s2b+0x6a>
   dba74:	e8bd 83f8 	ldmia.w	sp!, {r3, r4, r5, r6, r7, r8, r9, pc}
   dba78:	0052      	lsls	r2, r2, #1
   dba7a:	3101      	adds	r1, #1
   dba7c:	e7d9      	b.n	dba32 <__s2b+0x18>
   dba7e:	340a      	adds	r4, #10
   dba80:	2509      	movs	r5, #9
   dba82:	e7f3      	b.n	dba6c <__s2b+0x52>
   dba84:	f814 3b01 	ldrb.w	r3, [r4], #1
   dba88:	4601      	mov	r1, r0
   dba8a:	3b30      	subs	r3, #48	; 0x30
   dba8c:	220a      	movs	r2, #10
   dba8e:	4630      	mov	r0, r6
   dba90:	f7ff ff85 	bl	db99e <__multadd>
   dba94:	e7eb      	b.n	dba6e <__s2b+0x54>

000dba96 <__hi0bits>:
   dba96:	0c03      	lsrs	r3, r0, #16
   dba98:	041b      	lsls	r3, r3, #16
   dba9a:	b9d3      	cbnz	r3, dbad2 <__hi0bits+0x3c>
   dba9c:	0400      	lsls	r0, r0, #16
   dba9e:	2310      	movs	r3, #16
   dbaa0:	f010 4f7f 	tst.w	r0, #4278190080	; 0xff000000
   dbaa4:	bf04      	itt	eq
   dbaa6:	0200      	lsleq	r0, r0, #8
   dbaa8:	3308      	addeq	r3, #8
   dbaaa:	f010 4f70 	tst.w	r0, #4026531840	; 0xf0000000
   dbaae:	bf04      	itt	eq
   dbab0:	0100      	lsleq	r0, r0, #4
   dbab2:	3304      	addeq	r3, #4
   dbab4:	f010 4f40 	tst.w	r0, #3221225472	; 0xc0000000
   dbab8:	bf04      	itt	eq
   dbaba:	0080      	lsleq	r0, r0, #2
   dbabc:	3302      	addeq	r3, #2
   dbabe:	2800      	cmp	r0, #0
   dbac0:	db05      	blt.n	dbace <__hi0bits+0x38>
   dbac2:	f010 4f80 	tst.w	r0, #1073741824	; 0x40000000
   dbac6:	f103 0301 	add.w	r3, r3, #1
   dbaca:	bf08      	it	eq
   dbacc:	2320      	moveq	r3, #32
   dbace:	4618      	mov	r0, r3
   dbad0:	4770      	bx	lr
   dbad2:	2300      	movs	r3, #0
   dbad4:	e7e4      	b.n	dbaa0 <__hi0bits+0xa>

000dbad6 <__lo0bits>:
   dbad6:	6803      	ldr	r3, [r0, #0]
   dbad8:	f013 0207 	ands.w	r2, r3, #7
   dbadc:	4601      	mov	r1, r0
   dbade:	d00b      	beq.n	dbaf8 <__lo0bits+0x22>
   dbae0:	07da      	lsls	r2, r3, #31
   dbae2:	d424      	bmi.n	dbb2e <__lo0bits+0x58>
   dbae4:	0798      	lsls	r0, r3, #30
   dbae6:	bf49      	itett	mi
   dbae8:	085b      	lsrmi	r3, r3, #1
   dbaea:	089b      	lsrpl	r3, r3, #2
   dbaec:	2001      	movmi	r0, #1
   dbaee:	600b      	strmi	r3, [r1, #0]
   dbaf0:	bf5c      	itt	pl
   dbaf2:	600b      	strpl	r3, [r1, #0]
   dbaf4:	2002      	movpl	r0, #2
   dbaf6:	4770      	bx	lr
   dbaf8:	b298      	uxth	r0, r3
   dbafa:	b9b0      	cbnz	r0, dbb2a <__lo0bits+0x54>
   dbafc:	0c1b      	lsrs	r3, r3, #16
   dbafe:	2010      	movs	r0, #16
   dbb00:	f013 0fff 	tst.w	r3, #255	; 0xff
   dbb04:	bf04      	itt	eq
   dbb06:	0a1b      	lsreq	r3, r3, #8
   dbb08:	3008      	addeq	r0, #8
   dbb0a:	071a      	lsls	r2, r3, #28
   dbb0c:	bf04      	itt	eq
   dbb0e:	091b      	lsreq	r3, r3, #4
   dbb10:	3004      	addeq	r0, #4
   dbb12:	079a      	lsls	r2, r3, #30
   dbb14:	bf04      	itt	eq
   dbb16:	089b      	lsreq	r3, r3, #2
   dbb18:	3002      	addeq	r0, #2
   dbb1a:	07da      	lsls	r2, r3, #31
   dbb1c:	d403      	bmi.n	dbb26 <__lo0bits+0x50>
   dbb1e:	085b      	lsrs	r3, r3, #1
   dbb20:	f100 0001 	add.w	r0, r0, #1
   dbb24:	d005      	beq.n	dbb32 <__lo0bits+0x5c>
   dbb26:	600b      	str	r3, [r1, #0]
   dbb28:	4770      	bx	lr
   dbb2a:	4610      	mov	r0, r2
   dbb2c:	e7e8      	b.n	dbb00 <__lo0bits+0x2a>
   dbb2e:	2000      	movs	r0, #0
   dbb30:	4770      	bx	lr
   dbb32:	2020      	movs	r0, #32
   dbb34:	4770      	bx	lr

000dbb36 <__i2b>:
   dbb36:	b510      	push	{r4, lr}
   dbb38:	460c      	mov	r4, r1
   dbb3a:	2101      	movs	r1, #1
   dbb3c:	f7ff fee4 	bl	db908 <_Balloc>
   dbb40:	2201      	movs	r2, #1
   dbb42:	6144      	str	r4, [r0, #20]
   dbb44:	6102      	str	r2, [r0, #16]
   dbb46:	bd10      	pop	{r4, pc}

000dbb48 <__multiply>:
   dbb48:	e92d 4ff0 	stmdb	sp!, {r4, r5, r6, r7, r8, r9, sl, fp, lr}
   dbb4c:	4615      	mov	r5, r2
   dbb4e:	690a      	ldr	r2, [r1, #16]
   dbb50:	692b      	ldr	r3, [r5, #16]
   dbb52:	429a      	cmp	r2, r3
   dbb54:	bfb8      	it	lt
   dbb56:	460b      	movlt	r3, r1
   dbb58:	460c      	mov	r4, r1
   dbb5a:	bfbc      	itt	lt
   dbb5c:	462c      	movlt	r4, r5
   dbb5e:	461d      	movlt	r5, r3
   dbb60:	6927      	ldr	r7, [r4, #16]
   dbb62:	f8d5 9010 	ldr.w	r9, [r5, #16]
   dbb66:	68a3      	ldr	r3, [r4, #8]
   dbb68:	6861      	ldr	r1, [r4, #4]
   dbb6a:	eb07 0609 	add.w	r6, r7, r9
   dbb6e:	42b3      	cmp	r3, r6
   dbb70:	bfb8      	it	lt
   dbb72:	3101      	addlt	r1, #1
   dbb74:	b085      	sub	sp, #20
   dbb76:	f7ff fec7 	bl	db908 <_Balloc>
   dbb7a:	f100 0114 	add.w	r1, r0, #20
   dbb7e:	eb01 0886 	add.w	r8, r1, r6, lsl #2
   dbb82:	460b      	mov	r3, r1
   dbb84:	2200      	movs	r2, #0
   dbb86:	4543      	cmp	r3, r8
   dbb88:	d31d      	bcc.n	dbbc6 <__multiply+0x7e>
   dbb8a:	f104 0314 	add.w	r3, r4, #20
   dbb8e:	f105 0214 	add.w	r2, r5, #20
   dbb92:	eb03 0787 	add.w	r7, r3, r7, lsl #2
   dbb96:	eb02 0389 	add.w	r3, r2, r9, lsl #2
   dbb9a:	9302      	str	r3, [sp, #8]
   dbb9c:	1b3b      	subs	r3, r7, r4
   dbb9e:	3b15      	subs	r3, #21
   dbba0:	f023 0303 	bic.w	r3, r3, #3
   dbba4:	3304      	adds	r3, #4
   dbba6:	f104 0515 	add.w	r5, r4, #21
   dbbaa:	42af      	cmp	r7, r5
   dbbac:	bf38      	it	cc
   dbbae:	2304      	movcc	r3, #4
   dbbb0:	9301      	str	r3, [sp, #4]
   dbbb2:	9b02      	ldr	r3, [sp, #8]
   dbbb4:	9203      	str	r2, [sp, #12]
   dbbb6:	4293      	cmp	r3, r2
   dbbb8:	d808      	bhi.n	dbbcc <__multiply+0x84>
   dbbba:	2e00      	cmp	r6, #0
   dbbbc:	dc5a      	bgt.n	dbc74 <__multiply+0x12c>
   dbbbe:	6106      	str	r6, [r0, #16]
   dbbc0:	b005      	add	sp, #20
   dbbc2:	e8bd 8ff0 	ldmia.w	sp!, {r4, r5, r6, r7, r8, r9, sl, fp, pc}
   dbbc6:	f843 2b04 	str.w	r2, [r3], #4
   dbbca:	e7dc      	b.n	dbb86 <__multiply+0x3e>
   dbbcc:	f8b2 a000 	ldrh.w	sl, [r2]
   dbbd0:	f1ba 0f00 	cmp.w	sl, #0
   dbbd4:	d024      	beq.n	dbc20 <__multiply+0xd8>
   dbbd6:	f104 0e14 	add.w	lr, r4, #20
   dbbda:	4689      	mov	r9, r1
   dbbdc:	f04f 0c00 	mov.w	ip, #0
   dbbe0:	f85e 5b04 	ldr.w	r5, [lr], #4
   dbbe4:	f8d9 b000 	ldr.w	fp, [r9]
   dbbe8:	b2ab      	uxth	r3, r5
   dbbea:	fa1f fb8b 	uxth.w	fp, fp
   dbbee:	fb0a b303 	mla	r3, sl, r3, fp
   dbbf2:	ea4f 4b15 	mov.w	fp, r5, lsr #16
   dbbf6:	f8d9 5000 	ldr.w	r5, [r9]
   dbbfa:	4463      	add	r3, ip
   dbbfc:	ea4f 4c15 	mov.w	ip, r5, lsr #16
   dbc00:	fb0a c50b 	mla	r5, sl, fp, ip
   dbc04:	eb05 4513 	add.w	r5, r5, r3, lsr #16
   dbc08:	b29b      	uxth	r3, r3
   dbc0a:	ea43 4305 	orr.w	r3, r3, r5, lsl #16
   dbc0e:	4577      	cmp	r7, lr
   dbc10:	f849 3b04 	str.w	r3, [r9], #4
   dbc14:	ea4f 4c15 	mov.w	ip, r5, lsr #16
   dbc18:	d8e2      	bhi.n	dbbe0 <__multiply+0x98>
   dbc1a:	9b01      	ldr	r3, [sp, #4]
   dbc1c:	f841 c003 	str.w	ip, [r1, r3]
   dbc20:	9b03      	ldr	r3, [sp, #12]
   dbc22:	f8b3 9002 	ldrh.w	r9, [r3, #2]
   dbc26:	3204      	adds	r2, #4
   dbc28:	f1b9 0f00 	cmp.w	r9, #0
   dbc2c:	d020      	beq.n	dbc70 <__multiply+0x128>
   dbc2e:	680b      	ldr	r3, [r1, #0]
   dbc30:	f104 0c14 	add.w	ip, r4, #20
   dbc34:	468e      	mov	lr, r1
   dbc36:	f04f 0a00 	mov.w	sl, #0
   dbc3a:	f8bc 5000 	ldrh.w	r5, [ip]
   dbc3e:	f8be b002 	ldrh.w	fp, [lr, #2]
   dbc42:	fb09 b505 	mla	r5, r9, r5, fp
   dbc46:	44aa      	add	sl, r5
   dbc48:	b29b      	uxth	r3, r3
   dbc4a:	ea43 430a 	orr.w	r3, r3, sl, lsl #16
   dbc4e:	f84e 3b04 	str.w	r3, [lr], #4
   dbc52:	f85c 3b04 	ldr.w	r3, [ip], #4
   dbc56:	f8be 5000 	ldrh.w	r5, [lr]
   dbc5a:	0c1b      	lsrs	r3, r3, #16
   dbc5c:	fb09 5303 	mla	r3, r9, r3, r5
   dbc60:	eb03 431a 	add.w	r3, r3, sl, lsr #16
   dbc64:	4567      	cmp	r7, ip
   dbc66:	ea4f 4a13 	mov.w	sl, r3, lsr #16
   dbc6a:	d8e6      	bhi.n	dbc3a <__multiply+0xf2>
   dbc6c:	9d01      	ldr	r5, [sp, #4]
   dbc6e:	514b      	str	r3, [r1, r5]
   dbc70:	3104      	adds	r1, #4
   dbc72:	e79e      	b.n	dbbb2 <__multiply+0x6a>
   dbc74:	f858 3d04 	ldr.w	r3, [r8, #-4]!
   dbc78:	2b00      	cmp	r3, #0
   dbc7a:	d1a0      	bne.n	dbbbe <__multiply+0x76>
   dbc7c:	3e01      	subs	r6, #1
   dbc7e:	e79c      	b.n	dbbba <__multiply+0x72>

000dbc80 <__pow5mult>:
   dbc80:	e92d 43f8 	stmdb	sp!, {r3, r4, r5, r6, r7, r8, r9, lr}
   dbc84:	4615      	mov	r5, r2
   dbc86:	f012 0203 	ands.w	r2, r2, #3
   dbc8a:	4606      	mov	r6, r0
   dbc8c:	460f      	mov	r7, r1
   dbc8e:	d007      	beq.n	dbca0 <__pow5mult+0x20>
   dbc90:	4c21      	ldr	r4, [pc, #132]	; (dbd18 <__pow5mult+0x98>)
   dbc92:	3a01      	subs	r2, #1
   dbc94:	2300      	movs	r3, #0
   dbc96:	f854 2022 	ldr.w	r2, [r4, r2, lsl #2]
   dbc9a:	f7ff fe80 	bl	db99e <__multadd>
   dbc9e:	4607      	mov	r7, r0
   dbca0:	10ad      	asrs	r5, r5, #2
   dbca2:	d035      	beq.n	dbd10 <__pow5mult+0x90>
   dbca4:	6a74      	ldr	r4, [r6, #36]	; 0x24
   dbca6:	b93c      	cbnz	r4, dbcb8 <__pow5mult+0x38>
   dbca8:	2010      	movs	r0, #16
   dbcaa:	f7fb f95f 	bl	d6f6c <malloc>
   dbcae:	e9c0 4401 	strd	r4, r4, [r0, #4]
   dbcb2:	6270      	str	r0, [r6, #36]	; 0x24
   dbcb4:	6004      	str	r4, [r0, #0]
   dbcb6:	60c4      	str	r4, [r0, #12]
   dbcb8:	f8d6 8024 	ldr.w	r8, [r6, #36]	; 0x24
   dbcbc:	f8d8 4008 	ldr.w	r4, [r8, #8]
   dbcc0:	b94c      	cbnz	r4, dbcd6 <__pow5mult+0x56>
   dbcc2:	f240 2171 	movw	r1, #625	; 0x271
   dbcc6:	4630      	mov	r0, r6
   dbcc8:	f7ff ff35 	bl	dbb36 <__i2b>
   dbccc:	2300      	movs	r3, #0
   dbcce:	f8c8 0008 	str.w	r0, [r8, #8]
   dbcd2:	4604      	mov	r4, r0
   dbcd4:	6003      	str	r3, [r0, #0]
   dbcd6:	f04f 0900 	mov.w	r9, #0
   dbcda:	07eb      	lsls	r3, r5, #31
   dbcdc:	d50a      	bpl.n	dbcf4 <__pow5mult+0x74>
   dbcde:	4639      	mov	r1, r7
   dbce0:	4622      	mov	r2, r4
   dbce2:	4630      	mov	r0, r6
   dbce4:	f7ff ff30 	bl	dbb48 <__multiply>
   dbce8:	4639      	mov	r1, r7
   dbcea:	4680      	mov	r8, r0
   dbcec:	4630      	mov	r0, r6
   dbcee:	f7ff fe3f 	bl	db970 <_Bfree>
   dbcf2:	4647      	mov	r7, r8
   dbcf4:	106d      	asrs	r5, r5, #1
   dbcf6:	d00b      	beq.n	dbd10 <__pow5mult+0x90>
   dbcf8:	6820      	ldr	r0, [r4, #0]
   dbcfa:	b938      	cbnz	r0, dbd0c <__pow5mult+0x8c>
   dbcfc:	4622      	mov	r2, r4
   dbcfe:	4621      	mov	r1, r4
   dbd00:	4630      	mov	r0, r6
   dbd02:	f7ff ff21 	bl	dbb48 <__multiply>
   dbd06:	6020      	str	r0, [r4, #0]
   dbd08:	f8c0 9000 	str.w	r9, [r0]
   dbd0c:	4604      	mov	r4, r0
   dbd0e:	e7e4      	b.n	dbcda <__pow5mult+0x5a>
   dbd10:	4638      	mov	r0, r7
   dbd12:	e8bd 83f8 	ldmia.w	sp!, {r3, r4, r5, r6, r7, r8, r9, pc}
   dbd16:	bf00      	nop
   dbd18:	000dd0d0 	.word	0x000dd0d0

000dbd1c <__lshift>:
   dbd1c:	e92d 47f0 	stmdb	sp!, {r4, r5, r6, r7, r8, r9, sl, lr}
   dbd20:	460c      	mov	r4, r1
   dbd22:	6849      	ldr	r1, [r1, #4]
   dbd24:	6923      	ldr	r3, [r4, #16]
   dbd26:	eb03 1862 	add.w	r8, r3, r2, asr #5
   dbd2a:	68a3      	ldr	r3, [r4, #8]
   dbd2c:	4607      	mov	r7, r0
   dbd2e:	4691      	mov	r9, r2
   dbd30:	ea4f 1a62 	mov.w	sl, r2, asr #5
   dbd34:	f108 0601 	add.w	r6, r8, #1
   dbd38:	42b3      	cmp	r3, r6
   dbd3a:	db3f      	blt.n	dbdbc <__lshift+0xa0>
   dbd3c:	4638      	mov	r0, r7
   dbd3e:	f7ff fde3 	bl	db908 <_Balloc>
   dbd42:	2300      	movs	r3, #0
   dbd44:	4605      	mov	r5, r0
   dbd46:	f100 0114 	add.w	r1, r0, #20
   dbd4a:	f100 0210 	add.w	r2, r0, #16
   dbd4e:	4618      	mov	r0, r3
   dbd50:	4553      	cmp	r3, sl
   dbd52:	db36      	blt.n	dbdc2 <__lshift+0xa6>
   dbd54:	6920      	ldr	r0, [r4, #16]
   dbd56:	ea2a 7aea 	bic.w	sl, sl, sl, asr #31
   dbd5a:	f104 0314 	add.w	r3, r4, #20
   dbd5e:	f019 091f 	ands.w	r9, r9, #31
   dbd62:	eb01 018a 	add.w	r1, r1, sl, lsl #2
   dbd66:	eb03 0c80 	add.w	ip, r3, r0, lsl #2
   dbd6a:	d02e      	beq.n	dbdca <__lshift+0xae>
   dbd6c:	f1c9 0e20 	rsb	lr, r9, #32
   dbd70:	468a      	mov	sl, r1
   dbd72:	2200      	movs	r2, #0
   dbd74:	6818      	ldr	r0, [r3, #0]
   dbd76:	fa00 f009 	lsl.w	r0, r0, r9
   dbd7a:	4302      	orrs	r2, r0
   dbd7c:	f84a 2b04 	str.w	r2, [sl], #4
   dbd80:	f853 2b04 	ldr.w	r2, [r3], #4
   dbd84:	459c      	cmp	ip, r3
   dbd86:	fa22 f20e 	lsr.w	r2, r2, lr
   dbd8a:	d8f3      	bhi.n	dbd74 <__lshift+0x58>
   dbd8c:	ebac 0304 	sub.w	r3, ip, r4
   dbd90:	3b15      	subs	r3, #21
   dbd92:	f023 0303 	bic.w	r3, r3, #3
   dbd96:	3304      	adds	r3, #4
   dbd98:	f104 0015 	add.w	r0, r4, #21
   dbd9c:	4560      	cmp	r0, ip
   dbd9e:	bf88      	it	hi
   dbda0:	2304      	movhi	r3, #4
   dbda2:	50ca      	str	r2, [r1, r3]
   dbda4:	b10a      	cbz	r2, dbdaa <__lshift+0x8e>
   dbda6:	f108 0602 	add.w	r6, r8, #2
   dbdaa:	3e01      	subs	r6, #1
   dbdac:	4638      	mov	r0, r7
   dbdae:	612e      	str	r6, [r5, #16]
   dbdb0:	4621      	mov	r1, r4
   dbdb2:	f7ff fddd 	bl	db970 <_Bfree>
   dbdb6:	4628      	mov	r0, r5
   dbdb8:	e8bd 87f0 	ldmia.w	sp!, {r4, r5, r6, r7, r8, r9, sl, pc}
   dbdbc:	3101      	adds	r1, #1
   dbdbe:	005b      	lsls	r3, r3, #1
   dbdc0:	e7ba      	b.n	dbd38 <__lshift+0x1c>
   dbdc2:	f842 0f04 	str.w	r0, [r2, #4]!
   dbdc6:	3301      	adds	r3, #1
   dbdc8:	e7c2      	b.n	dbd50 <__lshift+0x34>
   dbdca:	3904      	subs	r1, #4
   dbdcc:	f853 2b04 	ldr.w	r2, [r3], #4
   dbdd0:	f841 2f04 	str.w	r2, [r1, #4]!
   dbdd4:	459c      	cmp	ip, r3
   dbdd6:	d8f9      	bhi.n	dbdcc <__lshift+0xb0>
   dbdd8:	e7e7      	b.n	dbdaa <__lshift+0x8e>

000dbdda <__mcmp>:
   dbdda:	b530      	push	{r4, r5, lr}
   dbddc:	6902      	ldr	r2, [r0, #16]
   dbdde:	690c      	ldr	r4, [r1, #16]
   dbde0:	1b12      	subs	r2, r2, r4
   dbde2:	d10e      	bne.n	dbe02 <__mcmp+0x28>
   dbde4:	f100 0314 	add.w	r3, r0, #20
   dbde8:	3114      	adds	r1, #20
   dbdea:	eb03 0084 	add.w	r0, r3, r4, lsl #2
   dbdee:	eb01 0184 	add.w	r1, r1, r4, lsl #2
   dbdf2:	f850 5d04 	ldr.w	r5, [r0, #-4]!
   dbdf6:	f851 4d04 	ldr.w	r4, [r1, #-4]!
   dbdfa:	42a5      	cmp	r5, r4
   dbdfc:	d003      	beq.n	dbe06 <__mcmp+0x2c>
   dbdfe:	d305      	bcc.n	dbe0c <__mcmp+0x32>
   dbe00:	2201      	movs	r2, #1
   dbe02:	4610      	mov	r0, r2
   dbe04:	bd30      	pop	{r4, r5, pc}
   dbe06:	4283      	cmp	r3, r0
   dbe08:	d3f3      	bcc.n	dbdf2 <__mcmp+0x18>
   dbe0a:	e7fa      	b.n	dbe02 <__mcmp+0x28>
   dbe0c:	f04f 32ff 	mov.w	r2, #4294967295	; 0xffffffff
   dbe10:	e7f7      	b.n	dbe02 <__mcmp+0x28>

000dbe12 <__mdiff>:
   dbe12:	e92d 4ff8 	stmdb	sp!, {r3, r4, r5, r6, r7, r8, r9, sl, fp, lr}
   dbe16:	460c      	mov	r4, r1
   dbe18:	4606      	mov	r6, r0
   dbe1a:	4611      	mov	r1, r2
   dbe1c:	4620      	mov	r0, r4
   dbe1e:	4617      	mov	r7, r2
   dbe20:	f7ff ffdb 	bl	dbdda <__mcmp>
   dbe24:	1e05      	subs	r5, r0, #0
   dbe26:	d108      	bne.n	dbe3a <__mdiff+0x28>
   dbe28:	4629      	mov	r1, r5
   dbe2a:	4630      	mov	r0, r6
   dbe2c:	f7ff fd6c 	bl	db908 <_Balloc>
   dbe30:	2301      	movs	r3, #1
   dbe32:	e9c0 3504 	strd	r3, r5, [r0, #16]
   dbe36:	e8bd 8ff8 	ldmia.w	sp!, {r3, r4, r5, r6, r7, r8, r9, sl, fp, pc}
   dbe3a:	bfa4      	itt	ge
   dbe3c:	463b      	movge	r3, r7
   dbe3e:	4627      	movge	r7, r4
   dbe40:	4630      	mov	r0, r6
   dbe42:	6879      	ldr	r1, [r7, #4]
   dbe44:	bfa6      	itte	ge
   dbe46:	461c      	movge	r4, r3
   dbe48:	2500      	movge	r5, #0
   dbe4a:	2501      	movlt	r5, #1
   dbe4c:	f7ff fd5c 	bl	db908 <_Balloc>
   dbe50:	693e      	ldr	r6, [r7, #16]
   dbe52:	60c5      	str	r5, [r0, #12]
   dbe54:	6925      	ldr	r5, [r4, #16]
   dbe56:	f107 0114 	add.w	r1, r7, #20
   dbe5a:	f104 0914 	add.w	r9, r4, #20
   dbe5e:	f100 0e14 	add.w	lr, r0, #20
   dbe62:	f107 0210 	add.w	r2, r7, #16
   dbe66:	eb01 0c86 	add.w	ip, r1, r6, lsl #2
   dbe6a:	eb09 0585 	add.w	r5, r9, r5, lsl #2
   dbe6e:	46f2      	mov	sl, lr
   dbe70:	2700      	movs	r7, #0
   dbe72:	f859 3b04 	ldr.w	r3, [r9], #4
   dbe76:	f852 bf04 	ldr.w	fp, [r2, #4]!
   dbe7a:	fa1f f883 	uxth.w	r8, r3
   dbe7e:	fa17 f78b 	uxtah	r7, r7, fp
   dbe82:	0c1b      	lsrs	r3, r3, #16
   dbe84:	eba7 0808 	sub.w	r8, r7, r8
   dbe88:	ebc3 431b 	rsb	r3, r3, fp, lsr #16
   dbe8c:	eb03 4328 	add.w	r3, r3, r8, asr #16
   dbe90:	fa1f f888 	uxth.w	r8, r8
   dbe94:	141f      	asrs	r7, r3, #16
   dbe96:	454d      	cmp	r5, r9
   dbe98:	ea48 4303 	orr.w	r3, r8, r3, lsl #16
   dbe9c:	f84a 3b04 	str.w	r3, [sl], #4
   dbea0:	d8e7      	bhi.n	dbe72 <__mdiff+0x60>
   dbea2:	1b2b      	subs	r3, r5, r4
   dbea4:	3b15      	subs	r3, #21
   dbea6:	f023 0303 	bic.w	r3, r3, #3
   dbeaa:	3304      	adds	r3, #4
   dbeac:	3415      	adds	r4, #21
   dbeae:	42a5      	cmp	r5, r4
   dbeb0:	bf38      	it	cc
   dbeb2:	2304      	movcc	r3, #4
   dbeb4:	4419      	add	r1, r3
   dbeb6:	4473      	add	r3, lr
   dbeb8:	469e      	mov	lr, r3
   dbeba:	460d      	mov	r5, r1
   dbebc:	4565      	cmp	r5, ip
   dbebe:	d30e      	bcc.n	dbede <__mdiff+0xcc>
   dbec0:	f10c 0203 	add.w	r2, ip, #3
   dbec4:	1a52      	subs	r2, r2, r1
   dbec6:	f022 0203 	bic.w	r2, r2, #3
   dbeca:	3903      	subs	r1, #3
   dbecc:	458c      	cmp	ip, r1
   dbece:	bf38      	it	cc
   dbed0:	2200      	movcc	r2, #0
   dbed2:	441a      	add	r2, r3
   dbed4:	f852 3d04 	ldr.w	r3, [r2, #-4]!
   dbed8:	b17b      	cbz	r3, dbefa <__mdiff+0xe8>
   dbeda:	6106      	str	r6, [r0, #16]
   dbedc:	e7ab      	b.n	dbe36 <__mdiff+0x24>
   dbede:	f855 8b04 	ldr.w	r8, [r5], #4
   dbee2:	fa17 f488 	uxtah	r4, r7, r8
   dbee6:	1422      	asrs	r2, r4, #16
   dbee8:	eb02 4218 	add.w	r2, r2, r8, lsr #16
   dbeec:	b2a4      	uxth	r4, r4
   dbeee:	ea44 4402 	orr.w	r4, r4, r2, lsl #16
   dbef2:	f84e 4b04 	str.w	r4, [lr], #4
   dbef6:	1417      	asrs	r7, r2, #16
   dbef8:	e7e0      	b.n	dbebc <__mdiff+0xaa>
   dbefa:	3e01      	subs	r6, #1
   dbefc:	e7ea      	b.n	dbed4 <__mdiff+0xc2>
	...

000dbf00 <__ulp>:
   dbf00:	b082      	sub	sp, #8
   dbf02:	ed8d 0b00 	vstr	d0, [sp]
   dbf06:	9b01      	ldr	r3, [sp, #4]
   dbf08:	4912      	ldr	r1, [pc, #72]	; (dbf54 <__ulp+0x54>)
   dbf0a:	4019      	ands	r1, r3
   dbf0c:	f1a1 7150 	sub.w	r1, r1, #54525952	; 0x3400000
   dbf10:	2900      	cmp	r1, #0
   dbf12:	dd05      	ble.n	dbf20 <__ulp+0x20>
   dbf14:	2200      	movs	r2, #0
   dbf16:	460b      	mov	r3, r1
   dbf18:	ec43 2b10 	vmov	d0, r2, r3
   dbf1c:	b002      	add	sp, #8
   dbf1e:	4770      	bx	lr
   dbf20:	4249      	negs	r1, r1
   dbf22:	f1b1 7fa0 	cmp.w	r1, #20971520	; 0x1400000
   dbf26:	ea4f 5021 	mov.w	r0, r1, asr #20
   dbf2a:	f04f 0200 	mov.w	r2, #0
   dbf2e:	f04f 0300 	mov.w	r3, #0
   dbf32:	da04      	bge.n	dbf3e <__ulp+0x3e>
   dbf34:	f44f 2100 	mov.w	r1, #524288	; 0x80000
   dbf38:	fa41 f300 	asr.w	r3, r1, r0
   dbf3c:	e7ec      	b.n	dbf18 <__ulp+0x18>
   dbf3e:	f1a0 0114 	sub.w	r1, r0, #20
   dbf42:	291e      	cmp	r1, #30
   dbf44:	bfda      	itte	le
   dbf46:	f04f 4000 	movle.w	r0, #2147483648	; 0x80000000
   dbf4a:	fa20 f101 	lsrle.w	r1, r0, r1
   dbf4e:	2101      	movgt	r1, #1
   dbf50:	460a      	mov	r2, r1
   dbf52:	e7e1      	b.n	dbf18 <__ulp+0x18>
   dbf54:	7ff00000 	.word	0x7ff00000

000dbf58 <__b2d>:
   dbf58:	b5f8      	push	{r3, r4, r5, r6, r7, lr}
   dbf5a:	6905      	ldr	r5, [r0, #16]
   dbf5c:	f100 0714 	add.w	r7, r0, #20
   dbf60:	eb07 0585 	add.w	r5, r7, r5, lsl #2
   dbf64:	1f2e      	subs	r6, r5, #4
   dbf66:	f855 4c04 	ldr.w	r4, [r5, #-4]
   dbf6a:	4620      	mov	r0, r4
   dbf6c:	f7ff fd93 	bl	dba96 <__hi0bits>
   dbf70:	f1c0 0320 	rsb	r3, r0, #32
   dbf74:	280a      	cmp	r0, #10
   dbf76:	f8df c07c 	ldr.w	ip, [pc, #124]	; dbff4 <__b2d+0x9c>
   dbf7a:	600b      	str	r3, [r1, #0]
   dbf7c:	dc14      	bgt.n	dbfa8 <__b2d+0x50>
   dbf7e:	f1c0 0e0b 	rsb	lr, r0, #11
   dbf82:	fa24 f10e 	lsr.w	r1, r4, lr
   dbf86:	42b7      	cmp	r7, r6
   dbf88:	ea41 030c 	orr.w	r3, r1, ip
   dbf8c:	bf34      	ite	cc
   dbf8e:	f855 1c08 	ldrcc.w	r1, [r5, #-8]
   dbf92:	2100      	movcs	r1, #0
   dbf94:	3015      	adds	r0, #21
   dbf96:	fa04 f000 	lsl.w	r0, r4, r0
   dbf9a:	fa21 f10e 	lsr.w	r1, r1, lr
   dbf9e:	ea40 0201 	orr.w	r2, r0, r1
   dbfa2:	ec43 2b10 	vmov	d0, r2, r3
   dbfa6:	bdf8      	pop	{r3, r4, r5, r6, r7, pc}
   dbfa8:	42b7      	cmp	r7, r6
   dbfaa:	bf3a      	itte	cc
   dbfac:	f855 1c08 	ldrcc.w	r1, [r5, #-8]
   dbfb0:	f1a5 0608 	subcc.w	r6, r5, #8
   dbfb4:	2100      	movcs	r1, #0
   dbfb6:	380b      	subs	r0, #11
   dbfb8:	d017      	beq.n	dbfea <__b2d+0x92>
   dbfba:	f1c0 0c20 	rsb	ip, r0, #32
   dbfbe:	fa04 f500 	lsl.w	r5, r4, r0
   dbfc2:	42be      	cmp	r6, r7
   dbfc4:	fa21 f40c 	lsr.w	r4, r1, ip
   dbfc8:	ea45 0504 	orr.w	r5, r5, r4
   dbfcc:	bf8c      	ite	hi
   dbfce:	f856 4c04 	ldrhi.w	r4, [r6, #-4]
   dbfd2:	2400      	movls	r4, #0
   dbfd4:	f045 537f 	orr.w	r3, r5, #1069547520	; 0x3fc00000
   dbfd8:	fa01 f000 	lsl.w	r0, r1, r0
   dbfdc:	fa24 f40c 	lsr.w	r4, r4, ip
   dbfe0:	f443 1340 	orr.w	r3, r3, #3145728	; 0x300000
   dbfe4:	ea40 0204 	orr.w	r2, r0, r4
   dbfe8:	e7db      	b.n	dbfa2 <__b2d+0x4a>
   dbfea:	ea44 030c 	orr.w	r3, r4, ip
   dbfee:	460a      	mov	r2, r1
   dbff0:	e7d7      	b.n	dbfa2 <__b2d+0x4a>
   dbff2:	bf00      	nop
   dbff4:	3ff00000 	.word	0x3ff00000

000dbff8 <__d2b>:
   dbff8:	e92d 43f7 	stmdb	sp!, {r0, r1, r2, r4, r5, r6, r7, r8, r9, lr}
   dbffc:	4689      	mov	r9, r1
   dbffe:	2101      	movs	r1, #1
   dc000:	ec57 6b10 	vmov	r6, r7, d0
   dc004:	4690      	mov	r8, r2
   dc006:	f7ff fc7f 	bl	db908 <_Balloc>
   dc00a:	f3c7 550a 	ubfx	r5, r7, #20, #11
   dc00e:	4604      	mov	r4, r0
   dc010:	f3c7 0313 	ubfx	r3, r7, #0, #20
   dc014:	bb35      	cbnz	r5, dc064 <__d2b+0x6c>
   dc016:	2e00      	cmp	r6, #0
   dc018:	9301      	str	r3, [sp, #4]
   dc01a:	d028      	beq.n	dc06e <__d2b+0x76>
   dc01c:	4668      	mov	r0, sp
   dc01e:	9600      	str	r6, [sp, #0]
   dc020:	f7ff fd59 	bl	dbad6 <__lo0bits>
   dc024:	9900      	ldr	r1, [sp, #0]
   dc026:	b300      	cbz	r0, dc06a <__d2b+0x72>
   dc028:	9a01      	ldr	r2, [sp, #4]
   dc02a:	f1c0 0320 	rsb	r3, r0, #32
   dc02e:	fa02 f303 	lsl.w	r3, r2, r3
   dc032:	430b      	orrs	r3, r1
   dc034:	40c2      	lsrs	r2, r0
   dc036:	6163      	str	r3, [r4, #20]
   dc038:	9201      	str	r2, [sp, #4]
   dc03a:	9b01      	ldr	r3, [sp, #4]
   dc03c:	61a3      	str	r3, [r4, #24]
   dc03e:	2b00      	cmp	r3, #0
   dc040:	bf14      	ite	ne
   dc042:	2202      	movne	r2, #2
   dc044:	2201      	moveq	r2, #1
   dc046:	6122      	str	r2, [r4, #16]
   dc048:	b1d5      	cbz	r5, dc080 <__d2b+0x88>
   dc04a:	f2a5 4533 	subw	r5, r5, #1075	; 0x433
   dc04e:	4405      	add	r5, r0
   dc050:	f8c9 5000 	str.w	r5, [r9]
   dc054:	f1c0 0035 	rsb	r0, r0, #53	; 0x35
   dc058:	f8c8 0000 	str.w	r0, [r8]
   dc05c:	4620      	mov	r0, r4
   dc05e:	b003      	add	sp, #12
   dc060:	e8bd 83f0 	ldmia.w	sp!, {r4, r5, r6, r7, r8, r9, pc}
   dc064:	f443 1380 	orr.w	r3, r3, #1048576	; 0x100000
   dc068:	e7d5      	b.n	dc016 <__d2b+0x1e>
   dc06a:	6161      	str	r1, [r4, #20]
   dc06c:	e7e5      	b.n	dc03a <__d2b+0x42>
   dc06e:	a801      	add	r0, sp, #4
   dc070:	f7ff fd31 	bl	dbad6 <__lo0bits>
   dc074:	9b01      	ldr	r3, [sp, #4]
   dc076:	6163      	str	r3, [r4, #20]
   dc078:	2201      	movs	r2, #1
   dc07a:	6122      	str	r2, [r4, #16]
   dc07c:	3020      	adds	r0, #32
   dc07e:	e7e3      	b.n	dc048 <__d2b+0x50>
   dc080:	eb04 0382 	add.w	r3, r4, r2, lsl #2
   dc084:	f2a0 4032 	subw	r0, r0, #1074	; 0x432
   dc088:	f8c9 0000 	str.w	r0, [r9]
   dc08c:	6918      	ldr	r0, [r3, #16]
   dc08e:	f7ff fd02 	bl	dba96 <__hi0bits>
   dc092:	ebc0 1042 	rsb	r0, r0, r2, lsl #5
   dc096:	e7df      	b.n	dc058 <__d2b+0x60>

000dc098 <__ratio>:
   dc098:	e92d 4ff7 	stmdb	sp!, {r0, r1, r2, r4, r5, r6, r7, r8, r9, sl, fp, lr}
   dc09c:	4688      	mov	r8, r1
   dc09e:	4669      	mov	r1, sp
   dc0a0:	4681      	mov	r9, r0
   dc0a2:	f7ff ff59 	bl	dbf58 <__b2d>
   dc0a6:	a901      	add	r1, sp, #4
   dc0a8:	4640      	mov	r0, r8
   dc0aa:	ec55 4b10 	vmov	r4, r5, d0
   dc0ae:	f7ff ff53 	bl	dbf58 <__b2d>
   dc0b2:	f8d9 3010 	ldr.w	r3, [r9, #16]
   dc0b6:	f8d8 2010 	ldr.w	r2, [r8, #16]
   dc0ba:	eba3 0c02 	sub.w	ip, r3, r2
   dc0be:	e9dd 3200 	ldrd	r3, r2, [sp]
   dc0c2:	1a9b      	subs	r3, r3, r2
   dc0c4:	eb03 134c 	add.w	r3, r3, ip, lsl #5
   dc0c8:	ec51 0b10 	vmov	r0, r1, d0
   dc0cc:	2b00      	cmp	r3, #0
   dc0ce:	bfd6      	itet	le
   dc0d0:	460a      	movle	r2, r1
   dc0d2:	462a      	movgt	r2, r5
   dc0d4:	ebc3 3303 	rsble	r3, r3, r3, lsl #12
   dc0d8:	468b      	mov	fp, r1
   dc0da:	462f      	mov	r7, r5
   dc0dc:	bfd4      	ite	le
   dc0de:	eb02 5b03 	addle.w	fp, r2, r3, lsl #20
   dc0e2:	eb02 5703 	addgt.w	r7, r2, r3, lsl #20
   dc0e6:	4620      	mov	r0, r4
   dc0e8:	ee10 2a10 	vmov	r2, s0
   dc0ec:	465b      	mov	r3, fp
   dc0ee:	4639      	mov	r1, r7
   dc0f0:	f7fd fd9c 	bl	d9c2c <__aeabi_ddiv>
   dc0f4:	ec41 0b10 	vmov	d0, r0, r1
   dc0f8:	b003      	add	sp, #12
   dc0fa:	e8bd 8ff0 	ldmia.w	sp!, {r4, r5, r6, r7, r8, r9, sl, fp, pc}

000dc0fe <__copybits>:
   dc0fe:	3901      	subs	r1, #1
   dc100:	b570      	push	{r4, r5, r6, lr}
   dc102:	1149      	asrs	r1, r1, #5
   dc104:	6914      	ldr	r4, [r2, #16]
   dc106:	3101      	adds	r1, #1
   dc108:	f102 0314 	add.w	r3, r2, #20
   dc10c:	eb00 0181 	add.w	r1, r0, r1, lsl #2
   dc110:	eb03 0484 	add.w	r4, r3, r4, lsl #2
   dc114:	1f05      	subs	r5, r0, #4
   dc116:	42a3      	cmp	r3, r4
   dc118:	d30c      	bcc.n	dc134 <__copybits+0x36>
   dc11a:	1aa3      	subs	r3, r4, r2
   dc11c:	3b11      	subs	r3, #17
   dc11e:	f023 0303 	bic.w	r3, r3, #3
   dc122:	3211      	adds	r2, #17
   dc124:	42a2      	cmp	r2, r4
   dc126:	bf88      	it	hi
   dc128:	2300      	movhi	r3, #0
   dc12a:	4418      	add	r0, r3
   dc12c:	2300      	movs	r3, #0
   dc12e:	4288      	cmp	r0, r1
   dc130:	d305      	bcc.n	dc13e <__copybits+0x40>
   dc132:	bd70      	pop	{r4, r5, r6, pc}
   dc134:	f853 6b04 	ldr.w	r6, [r3], #4
   dc138:	f845 6f04 	str.w	r6, [r5, #4]!
   dc13c:	e7eb      	b.n	dc116 <__copybits+0x18>
   dc13e:	f840 3b04 	str.w	r3, [r0], #4
   dc142:	e7f4      	b.n	dc12e <__copybits+0x30>

000dc144 <__any_on>:
   dc144:	f100 0214 	add.w	r2, r0, #20
   dc148:	6900      	ldr	r0, [r0, #16]
   dc14a:	114b      	asrs	r3, r1, #5
   dc14c:	4298      	cmp	r0, r3
   dc14e:	b510      	push	{r4, lr}
   dc150:	db11      	blt.n	dc176 <__any_on+0x32>
   dc152:	dd0a      	ble.n	dc16a <__any_on+0x26>
   dc154:	f011 011f 	ands.w	r1, r1, #31
   dc158:	d007      	beq.n	dc16a <__any_on+0x26>
   dc15a:	f852 4023 	ldr.w	r4, [r2, r3, lsl #2]
   dc15e:	fa24 f001 	lsr.w	r0, r4, r1
   dc162:	fa00 f101 	lsl.w	r1, r0, r1
   dc166:	428c      	cmp	r4, r1
   dc168:	d10b      	bne.n	dc182 <__any_on+0x3e>
   dc16a:	eb02 0383 	add.w	r3, r2, r3, lsl #2
   dc16e:	4293      	cmp	r3, r2
   dc170:	d803      	bhi.n	dc17a <__any_on+0x36>
   dc172:	2000      	movs	r0, #0
   dc174:	bd10      	pop	{r4, pc}
   dc176:	4603      	mov	r3, r0
   dc178:	e7f7      	b.n	dc16a <__any_on+0x26>
   dc17a:	f853 1d04 	ldr.w	r1, [r3, #-4]!
   dc17e:	2900      	cmp	r1, #0
   dc180:	d0f5      	beq.n	dc16e <__any_on+0x2a>
   dc182:	2001      	movs	r0, #1
   dc184:	e7f6      	b.n	dc174 <__any_on+0x30>

000dc186 <__ascii_wctomb>:
   dc186:	b149      	cbz	r1, dc19c <__ascii_wctomb+0x16>
   dc188:	2aff      	cmp	r2, #255	; 0xff
   dc18a:	bf85      	ittet	hi
   dc18c:	238a      	movhi	r3, #138	; 0x8a
   dc18e:	6003      	strhi	r3, [r0, #0]
   dc190:	700a      	strbls	r2, [r1, #0]
   dc192:	f04f 30ff 	movhi.w	r0, #4294967295	; 0xffffffff
   dc196:	bf98      	it	ls
   dc198:	2001      	movls	r0, #1
   dc19a:	4770      	bx	lr
   dc19c:	4608      	mov	r0, r1
   dc19e:	4770      	bx	lr

000dc1a0 <__aeabi_d2lz>:
   dc1a0:	b538      	push	{r3, r4, r5, lr}
   dc1a2:	2200      	movs	r2, #0
   dc1a4:	2300      	movs	r3, #0
   dc1a6:	4604      	mov	r4, r0
   dc1a8:	460d      	mov	r5, r1
   dc1aa:	f7fd fe87 	bl	d9ebc <__aeabi_dcmplt>
   dc1ae:	b928      	cbnz	r0, dc1bc <__aeabi_d2lz+0x1c>
   dc1b0:	4620      	mov	r0, r4
   dc1b2:	4629      	mov	r1, r5
   dc1b4:	e8bd 4038 	ldmia.w	sp!, {r3, r4, r5, lr}
   dc1b8:	f7fd bf30 	b.w	da01c <__aeabi_d2ulz>
   dc1bc:	4620      	mov	r0, r4
   dc1be:	f105 4100 	add.w	r1, r5, #2147483648	; 0x80000000
   dc1c2:	f7fd ff2b 	bl	da01c <__aeabi_d2ulz>
   dc1c6:	4240      	negs	r0, r0
   dc1c8:	eb61 0141 	sbc.w	r1, r1, r1, lsl #1
   dc1cc:	bd38      	pop	{r3, r4, r5, pc}
   dc1ce:	bf00      	nop

000dc1d0 <dynalib_user>:
   dc1d0:	4021 000d 405d 000d 4085 000d 4089 000d     !@..]@...@...@..
   dc1e0:	0000 0000 4844 3154 2031 6574 7473 5000     ....DHT11 test.P
   dc1f0:	7261 6974 6c63 0065 6557 7461 6568 0072     article.Weather.
   dc200:	7453 7461 6f69 006e 472f 7465 6557 7461     Station./GetWeat
   dc210:	6568 4672 726f 6365 7361 2f74 4900 646e     herForecast/.Ind
   dc220:	6f6f 2072 6554 706d 203a 4900 646e 6f6f     oor Temp: .Indoo
   dc230:	2072 7548 646d 203a 2500 4f00 6474 6f6f     r Humd: .%.Otdoo
   dc240:	2072 6554 706d 203a 4f00 6474 6f6f 2072     r Temp: .Otdoor 
   dc250:	7548 646d 203a 4700 7465 6557 7461 6568     Humd: .GetWeathe
   dc260:	4672 726f 6365 7361 0074 6146 6c69 6465     rForecast.Failed
   dc270:	7420 206f 6572 6461 6620 6f72 206d 4844      to read from DH
   dc280:	2054 6573 736e 726f 4900 646e 6f6f 2072     T sensor.Indoor 
   dc290:	6554 706d 4900 646e 6f6f 2072 7548 696d     Temp.Indoor Humi
   dc2a0:	6964 7974 4f00 7475 6f64 726f 5420 6d65     dity.Outdoor Tem
   dc2b0:	0070 754f 6474 6f6f 2072 7548 696d 6964     p.Outdoor Humidi
   dc2c0:	7974 5400 6d65 4670 4800 6d75 6469 4900     ty.TempF.Humid.I
   dc2d0:	646e 6f6f 2072 6548 7461 4920 646e 7865     ndoor Heat Index
   dc2e0:	4f00 7475 6f64 726f 4820 6165 2074 6e49     .Outdoor Heat In
   dc2f0:	6564 0078 7573 7362 7263 7069 6974 6e6f     dex.subscription
   dc300:	6148 646e 656c 2072 7325 7400 6d65 0070     Handler %s.temp.
   dc310:	7568 006d 6577 6862 6f6f 006b 6255 6469     hum.webhook.Ubid
   dc320:	746f 0073                                   ots.

000dc324 <_ZL9BasicFont>:
	...
   dc32c:	0000 005f 0000 0000 0000 0007 0007 0000     .._.............
   dc33c:	1400 147f 147f 0000 2400 7f2a 122a 0000     .........$*.*...
   dc34c:	2300 0813 6264 0000 3600 5549 5022 0000     .#..db...6IU"P..
   dc35c:	0000 0305 0000 0000 1c00 4122 0000 0000     .........."A....
   dc36c:	4100 1c22 0000 0000 0800 1c2a 082a 0000     .A".......*.*...
   dc37c:	0800 3e08 0808 0000 a000 0060 0000 0000     ...>......`.....
   dc38c:	0800 0808 0808 0000 6000 0060 0000 0000     .........``.....
   dc39c:	2000 0810 0204 0000 3e00 4951 3e45 0000     . .......>QIE>..
   dc3ac:	0000 7f42 0040 0000 6200 4951 4649 0000     ..B.@....bQIIF..
   dc3bc:	2200 4941 3649 0000 1800 1214 107f 0000     ."AII6..........
   dc3cc:	2700 4545 3945 0000 3c00 494a 3049 0000     .'EEE9...<JII0..
   dc3dc:	0100 0971 0305 0000 3600 4949 3649 0000     ..q......6III6..
   dc3ec:	0600 4949 1e29 0000 0000 3636 0000 0000     ..II).....66....
   dc3fc:	0000 6cac 0000 0000 0800 2214 0041 0000     ...l......."A...
   dc40c:	1400 1414 1414 0000 4100 1422 0008 0000     .........A".....
   dc41c:	0200 5101 0609 0000 3200 7949 3e41 0000     ...Q.....2IyA>..
   dc42c:	7e00 0909 7e09 0000 7f00 4949 3649 0000     .~...~....III6..
   dc43c:	3e00 4141 2241 0000 7f00 4141 1c22 0000     .>AAA"....AA"...
   dc44c:	7f00 4949 4149 0000 7f00 0909 0109 0000     ..IIIA..........
   dc45c:	3e00 4141 7251 0000 7f00 0808 7f08 0000     .>AAQr..........
   dc46c:	4100 417f 0000 0000 2000 4140 013f 0000     .A.A..... @A?...
   dc47c:	7f00 1408 4122 0000 7f00 4040 4040 0000     ...."A....@@@@..
   dc48c:	7f00 0c02 7f02 0000 7f00 0804 7f10 0000     ................
   dc49c:	3e00 4141 3e41 0000 7f00 0909 0609 0000     .>AAA>..........
   dc4ac:	3e00 5141 5e21 0000 7f00 1909 4629 0000     .>AQ!^......)F..
   dc4bc:	2600 4949 3249 0000 0100 7f01 0101 0000     .&III2..........
   dc4cc:	3f00 4040 3f40 0000 1f00 4020 1f20 0000     .?@@@?.... @ ...
   dc4dc:	3f00 3840 3f40 0000 6300 0814 6314 0000     .?@8@?...c...c..
   dc4ec:	0300 7804 0304 0000 6100 4951 4345 0000     ...x.....aQIEC..
   dc4fc:	7f00 4141 0000 0000 0200 0804 2010 0000     ..AA......... ..
   dc50c:	4100 7f41 0000 0000 0400 0102 0402 0000     .AA.............
   dc51c:	8000 8080 8080 0000 0100 0402 0000 0000     ................
   dc52c:	2000 5454 7854 0000 7f00 4448 3844 0000     . TTTx....HDD8..
   dc53c:	3800 4444 0028 0000 3800 4444 7f48 0000     .8DD(....8DDH...
   dc54c:	3800 5454 1854 0000 0800 097e 0002 0000     .8TTT.....~.....
   dc55c:	1800 a4a4 7ca4 0000 7f00 0408 7804 0000     .....|.......x..
   dc56c:	0000 007d 0000 0000 8000 7d84 0000 0000     ..}........}....
   dc57c:	7f00 2810 0044 0000 4100 407f 0000 0000     ...(D....A.@....
   dc58c:	7c00 1804 7804 0000 7c00 0408 007c 0000     .|...x...|..|...
   dc59c:	3800 4444 0038 0000 fc00 2424 0018 0000     .8DD8.....$$....
   dc5ac:	1800 2424 00fc 0000 0000 087c 0004 0000     ..$$......|.....
   dc5bc:	4800 5454 0024 0000 0400 447f 0000 0000     .HTT$......D....
   dc5cc:	3c00 4040 007c 0000 1c00 4020 1c20 0000     .<@@|..... @ ...
   dc5dc:	3c00 3040 3c40 0000 4400 1028 4428 0000     .<@0@<...D(.(D..
   dc5ec:	1c00 a0a0 007c 0000 4400 5464 444c 0000     ....|....DdTLD..
   dc5fc:	0800 4136 0000 0000 0000 007f 0000 0000     ..6A............
   dc60c:	4100 0836 0000 0000 0200 0101 0102 0000     .A6.............
   dc61c:	0200 0505 0002 0000 6255 6469 746f 5073     ........UbidotsP
   dc62c:	7261 6974 6c63 2f65 2e33 0032 7254 6979     article/3.2.Tryi
   dc63c:	676e 7420 206f 6f63 6e6e 6365 2074 6f74     ng to connect to
   dc64c:	0020 2c20 6120 7474 6d65 7470 6e20 6d75      . , attempt num
   dc65c:	6562 3a72 0020 7441 6574 706d 2074 6966     ber: .Attempt fi
   dc66c:	696e 6873 6465 5300 7265 6576 2772 2073     nished.Server's 
   dc67c:	6572 7073 6e6f 6573 003a 2d0a 2d2d 2d2d     response:..-----
   dc68c:	2d2d 2d2d 002d 6974 656d 756f 2c74 6320     -----.timeout, c
   dc69c:	756f 646c 6e20 746f 7220 6165 2064 6e61     ould not read an
   dc6ac:	2079 6572 7073 6e6f 6573 6620 6f72 206d     y response from 
   dc6bc:	6874 2065 6f68 7473 5000 534f 2054 612f     the host.POST /a
   dc6cc:	6970 762f 2e31 2f36 6564 6976 6563 2f73     pi/v1.6/devices/
   dc6dc:	2000 5448 5054 312f 312e 0a0d 4800 736f     . HTTP/1.1...Hos
   dc6ec:	3a74 0020 7355 7265 412d 6567 746e 203a     t: .User-Agent: 
   dc6fc:	5800 412d 7475 2d68 6f54 656b 3a6e 0020     .X-Auth-Token: .
   dc70c:	6f43 6e6e 6365 6974 6e6f 203a 6c63 736f     Connection: clos
   dc71c:	0d65 000a 6f43 746e 6e65 2d74 7954 6570     e...Content-Type
   dc72c:	203a 7061 6c70 6369 7461 6f69 2f6e 736a     : application/js
   dc73c:	6e6f 0a0d 4300 6e6f 6574 746e 4c2d 6e65     on...Content-Len
   dc74c:	7467 3a68 0020 614d 696b 676e 7220 7165     gth: .Making req
   dc75c:	6575 7473 7420 206f 6255 6469 746f 3a73     uest to Ubidots:
   dc76c:	000a 6177 7469 6e69 2067 6f66 2072 6573     ..waiting for se
   dc77c:	7672 7265 6120 736e 6577 2072 2e2e 002e     rver answer ....
   dc78c:	550a 6962 6f64 7374 2027 6553 7672 7265     .Ubidots' Server
   dc79c:	7220 7365 6f70 736e 3a65 000a 6f43 6c75      response:..Coul
   dc7ac:	2064 6f6e 2074 6573 646e 6420 7461 2061     d not send data 
   dc7bc:	6f74 7520 6962 6f64 7374 7520 6973 676e     to ubidots using
   dc7cc:	4820 5454 0050 4547 2054 612f 6970 762f      HTTP.GET /api/v
   dc7dc:	2e31 2f36 6564 6976 6563 2f73 2f00 766c     1.6/devices/./lv
   dc7ec:	4300 6e6f 6574 746e 542d 7079 3a65 6120     .Content-Type: a
   dc7fc:	7070 696c 6163 6974 6e6f 6a2f 6f73 0d6e     pplication/json.
   dc80c:	0d0a 000a 6f43 6e6e 6365 6974 6e6f 4620     ....Connection F
   dc81c:	6961 656c 2064 6275 6469 746f 2073 202d     ailed ubidots - 
   dc82c:	7254 2079 6741 6961 006e 0000               Try Again...

000dc838 <_ZTV7UbiHTTP>:
	...
   dc840:	5739 000d 5969 000d 54e5 000d 54e9 000d     9W..iY...T...T..

000dc850 <_ZTV11UbiParticle>:
	...
   dc858:	5b89 000d 5b69 000d 5b75 000d 5b79 000d     .[..i[..u[..y[..
   dc868:	6f59 2075 7261 2065 6573 646e 6e69 2067     You are sending 
   dc878:	6f6d 6572 7420 6168 206e 6874 2065 616d     more than the ma
   dc888:	6978 756d 206d 666f 6320 6e6f 6573 7563     ximum of consecu
   dc898:	6974 6576 7620 7261 6169 6c62 7365 2500     tive variables.%
   dc8a8:	3731 0067 007b 7325 2522 2273 7b3a 7622     17g.{.%s"%s":{"v
   dc8b8:	6c61 6575 3a22 7325 2500 2c73 7422 6d69     alue":%s.%s,"tim
   dc8c8:	7365 6174 706d 3a22 6c25 0075 6425 6425     estamp":%lu.%d%d
   dc8d8:	6425 2500 2573 0073 7325 3030 0030 7325     %d.%s%s.%s000.%s
   dc8e8:	222c 6f63 746e 7865 2274 203a 257b 7d73     ,"context": {%s}
   dc8f8:	2500 2c73 7000 7961 6f6c 6461 003a 7325     .%s,.payload:.%s
   dc908:	507c 534f 7c54 7325 007c 7325 7325 253a     |POST|%s|.%s%s:%
   dc918:	0073 7325 3e3d 2500 2473 7325 2500 4073     s.%s=>.%s$%s.%s@
   dc928:	6c25 0075 7325 657c 646e 5300 6e65 6964     %lu.%s|end.Sendi
   dc938:	676e 6420 7461 2e61 2e2e 4100 7474 6d65     ng data....Attem
   dc948:	7470 6e69 2067 6f74 7220 6365 6e6f 656e     pting to reconne
   dc958:	7463 7c00 564c 007c 6150 6c79 616f 2064     ct.|LV|.Payload 
   dc968:	6f66 2072 6572 7571 7365 3a74 0a00 2d2d     for request:..--
   dc978:	2d2d 5000 534f 0054 4b4f 4300 756f 646c     --.POST.OK.Could
   dc988:	6e20 746f 6320 6e6f 656e 7463 7420 206f      not connect to 
   dc998:	6874 2065 6f68 7473 4c00 0056 5245 4f52     the host.LV.ERRO
   dc9a8:	2052 6f63 6c75 2064 6f6e 2074 6f63 6e6e     R could not conn
   dc9b8:	6365 2074 6f74 7420 6568 7320 7265 6576     ect to the serve
   dc9c8:	0072 756e 6c6c 4500 5252 524f 0000 0000     r.null.ERROR....

000dc9d8 <_ZTV6UbiTCP>:
	...
   dc9e0:	6459 000d 64fd 000d 61a9 000d 6759 000d     Yd...d...a..Yg..
   dc9f0:	575b 7261 696e 676e 205d 6f43 6c75 2064     [Warning] Could 
   dca00:	6f6e 2074 6f73 766c 2065 5049 4120 6464     not solve IP Add
   dca10:	6572 7373 6f20 2066 6874 2065 6572 6f6d     ress of the remo
   dca20:	6574 6820 736f 2c74 7720 7469 2068 6f79     te host, with yo
   dca30:	7275 4420 534e 7320 7465 7075 202e 2020     ur DNS setup.   
   dca40:	2020 2020 2020 2020 550a 6973 676e 6420             .Using d
   dca50:	6665 7561 746c 4920 646e 7375 7274 6169     efault Industria
   dca60:	206c 6255 6469 746f 2073 5049 203a 3631     l Ubidots IP: 16
   dca70:	2e39 3535 362e 2e31 3432 0033 5245 4f52     9.55.61.243.ERRO
   dca80:	2052 6573 646e 6e69 2067 6176 756c 7365     R sending values
   dca90:	7720 7469 2068 4455 0050 0000                with UDP...

000dca9c <_ZTV6UbiUDP>:
	...
   dcaa4:	68d9 000d 6861 000d 686d 000d 6871 000d     .h..ah..mh..qh..
   dcab4:	6e69 7564 7473 6972 6c61 612e 6970 752e     industrial.api.u
   dcac4:	6962 6f64 7374 632e 6d6f 0000               bidots.com..

000dcad0 <_ZZNSt19_Sp_make_shared_tag5_S_tiEvE5__tag>:
	...

000dcad8 <_ZTVSt15_Sp_counted_ptrIPN8particle6detail10FutureImplIbNS1_13FutureContextEEELN9__gnu_cxx12_Lock_policyE0EE>:
	...
   dcae0:	7079 000d 707f 000d 70bd 000d 708d 000d     yp...p...p...p..
   dcaf0:	707b 000d                                   {p..

000dcaf4 <_ZTVN5spark13EthernetClassE>:
	...
   dcafc:	760f 000d 7605 000d 75fb 000d 75f1 000d     .v...v...u...u..
   dcb0c:	75e5 000d 75d9 000d 7d15 000d 7d1d 000d     .u...u...}...}..
   dcb1c:	75cd 000d 75c5 000d 75bb 000d 75b1 000d     .u...u...u...u..
   dcb2c:	7d4d 000d                                   M}..

000dcb30 <_ZTV7TwoWire>:
	...
   dcb38:	762d 000d 7677 000d 764f 000d 762f 000d     -v..wv..Ov../v..
   dcb48:	7657 000d 765f 000d 7667 000d 766f 000d     Wv.._v..gv..ov..

000dcb58 <_ZTV9IPAddress>:
	...
   dcb60:	76e9 000d 76d9 000d 76db 000d               .v...v...v..

000dcb6c <_ZTVSt15_Sp_counted_ptrIPN5spark6detail8JSONDataELN9__gnu_cxx12_Lock_policyE0EE>:
	...
   dcb74:	7837 000d 783d 000d 7853 000d 784b 000d     7x..=x..Sx..Kx..
   dcb84:	7839 000d 7061 0070                         9x..app.

000dcb8c <_ZTVN5spark12NetworkClassE>:
	...
   dcb94:	7cd5 000d 7cdf 000d 7ce9 000d 7cf3 000d     .|...|...|...|..
   dcba4:	7cfd 000d 7d09 000d 7d15 000d 7d1d 000d     .|...}...}...}..
   dcbb4:	7d25 000d 7d31 000d 7d39 000d 7d43 000d     %}..1}..9}..C}..
   dcbc4:	7d4d 000d 6977 6972 676e 7200 6365 2076     M}..wiring.recv 
   dcbd4:	7265 6f72 2072 203d 6425 0000               error = %d..

000dcbe0 <_ZTVSt23_Sp_counted_ptr_inplaceIN9TCPClient4DataESaIS1_ELN9__gnu_cxx12_Lock_policyE0EE>:
	...
   dcbe8:	827f 000d 82a1 000d 867f 000d 82af 000d     ................
   dcbf8:	8281 000d                                   ....

000dcbfc <_ZTV9TCPClient>:
	...
   dcc04:	5181 000d 5211 000d 81fd 000d 8217 000d     .Q...R..........
   dcc14:	8509 000d 837b 000d 834d 000d 8241 000d     ....{...M...A...
   dcc24:	8413 000d 86a5 000d 83af 000d 85bd 000d     ................
   dcc34:	8243 000d 8275 000d 8229 000d 82b3 000d     C...u...).......
   dcc44:	832d 000d 5925 252d 2d6d 6425 2554 3a48     -...%Y-%m-%dT%H:
   dcc54:	4d25 253a 2553 007a 7361 7463 6d69 0065     %M:%S%z.asctime.

000dcc64 <_ZTV3UDP>:
	...
   dcc6c:	5161 000d 5225 000d 87d5 000d 88fd 000d     aQ..%R..........
   dcc7c:	87cd 000d 87ed 000d 880b 000d 8825 000d     ............%...
   dcc8c:	8849 000d 88e1 000d 8a47 000d 8985 000d     I.......G.......
   dcc9c:	8ca1 000d 87b5 000d 8b31 000d 8c29 000d     ........1...)...
   dccac:	89bd 000d 8b5f 000d 8927 000d 87c3 000d     ...._...'.......
   dccbc:	8965 000d 87c9 000d 8827 000d fff0 ffff     e.......'.......
   dcccc:	0000 0000 8841 000d                         ....A...

000dccd4 <_ZTV11USARTSerial>:
	...
   dccdc:	8d39 000d 8da5 000d 8d7d 000d 7e41 000d     9.......}...A~..
   dccec:	8d4d 000d 8d69 000d 8d5b 000d 8d77 000d     M...i...[...w...
   dccfc:	8d3b 000d 8d3f 000d                         ;...?...

000dcd04 <_ZTV9USBSerial>:
	...
   dcd0c:	8e39 000d 8ea1 000d 8e77 000d 7e41 000d     9.......w...A~..
   dcd1c:	8e69 000d 8e3b 000d 8e4b 000d 8e9b 000d     i...;...K.......
   dcd2c:	8e5b 000d 8e35 000d                         [...5...

000dcd34 <_ZTVN5spark9WiFiClassE>:
	...
   dcd3c:	8fa3 000d 8f99 000d 8f8f 000d 8f45 000d     ............E...
   dcd4c:	8f83 000d 8f77 000d 7d15 000d 7d1d 000d     ....w....}...}..
   dcd5c:	8f6b 000d 8f63 000d 8f59 000d 8f4f 000d     k...c...Y...O...
   dcd6c:	7d4d 000d                                   M}..

000dcd70 <_ZSt7nothrow>:
	...

000dcd71 <_ZTSSt19_Sp_make_shared_tag>:
   dcd71:	7453 3931 535f 5f70 616d 656b 735f 6168     St19_Sp_make_sha
   dcd81:	6572 5f64 6174 0067 0000                     red_tag....

000dcd8c <_ZTISt19_Sp_make_shared_tag>:
   dcd8c:	cdcc 000d cd71 000d                         ....q...

000dcd94 <_ZTIN10__cxxabiv117__class_type_infoE>:
   dcd94:	ce2c 000d cda0 000d ce50 000d               ,.......P...

000dcda0 <_ZTSN10__cxxabiv117__class_type_infoE>:
   dcda0:	314e 5f30 635f 7878 6261 7669 3131 5f37     N10__cxxabiv117_
   dcdb0:	635f 616c 7373 745f 7079 5f65 6e69 6f66     _class_type_info
   dcdc0:	0045 0000                                   E...

000dcdc4 <_ZTVN10__cxxabiv117__class_type_infoE>:
   dcdc4:	0000 0000 cd94 000d 9479 000d 948d 000d     ........y.......
   dcdd4:	9621 000d 9621 000d 94f7 000d 9439 000d     !...!.......9...
   dcde4:	94df 000d 94a1 000d 946d 000d               ........m...

000dcdf0 <_ZTIN10__cxxabiv120__si_class_type_infoE>:
   dcdf0:	ce2c 000d cdfc 000d cd94 000d               ,...........

000dcdfc <_ZTSN10__cxxabiv120__si_class_type_infoE>:
   dcdfc:	314e 5f30 635f 7878 6261 7669 3231 5f30     N10__cxxabiv120_
   dce0c:	735f 5f69 6c63 7361 5f73 7974 6570 695f     _si_class_type_i
   dce1c:	666e 456f 0000 0000                         nfoE....

000dce24 <_ZTVN10__cxxabiv120__si_class_type_infoE>:
   dce24:	0000 0000 cdf0 000d 9521 000d 9535 000d     ........!...5...
   dce34:	9621 000d 9621 000d 94f7 000d 9439 000d     !...!.......9...
   dce44:	95f5 000d 9581 000d 9549 000d               ........I...

000dce50 <_ZTISt9type_info>:
   dce50:	cdcc 000d ce58 000d                         ....X...

000dce58 <_ZTSSt9type_info>:
   dce58:	7453 7439 7079 5f65 6e69 6f66 6e00 0066     St9type_info.nf.
   dce68:	6e69 7469 0079 6e61 0000 0000               inity.an....

000dce74 <fpi.7566>:
   dce74:	0035 0000 fbce ffff 03cb 0000 0001 0000     5...............
   dce84:	0000 0000                                   ....

000dce88 <fpinan.7602>:
   dce88:	0034 0000 fbce ffff 03cb 0000 0001 0000     4...............
	...

000dcea0 <tinytens>:
   dcea0:	89bc 97d8 d2b2 3c9c a733 d5a8 f623 3949     .......<3...#.I9
   dceb0:	a73d 44f4 0ffd 32a5 979d cf8c ba08 255b     =..D...2......[%
   dcec0:	6f43 64ac 0628 1168                         Co.d(.h.

000dcec8 <_ctype_>:
   dcec8:	2000 2020 2020 2020 2020 2828 2828 2028     .         ((((( 
   dced8:	2020 2020 2020 2020 2020 2020 2020 2020                     
   dcee8:	8820 1010 1010 1010 1010 1010 1010 1010      ...............
   dcef8:	0410 0404 0404 0404 0404 1004 1010 1010     ................
   dcf08:	1010 4141 4141 4141 0101 0101 0101 0101     ..AAAAAA........
   dcf18:	0101 0101 0101 0101 0101 0101 1010 1010     ................
   dcf28:	1010 4242 4242 4242 0202 0202 0202 0202     ..BBBBBB........
   dcf38:	0202 0202 0202 0202 0202 0202 1010 1010     ................
   dcf48:	0020 0000 0000 0000 0000 0000 0000 0000      ...............
	...

000dcfcc <_C_numeric_locale>:
   dcfcc:	c78a 000d c80f 000d e300 2003 0043 4f50     ........... C.PO
   dcfdc:	4953 0058                                   SIX.

000dcfe0 <__mprec_bigtens>:
   dcfe0:	8000 37e0 c379 4341 6e17 b505 b8b5 4693     ...7y.AC.n.....F
   dcff0:	f9f5 e93f 4f03 4d38 1d32 f930 7748 5a82     ..?..O8M2.0.Hw.Z
   dd000:	bf3c 7f73 4fdd 7515                         <.s..O.u

000dd008 <__mprec_tens>:
   dd008:	0000 0000 0000 3ff0 0000 0000 0000 4024     .......?......$@
   dd018:	0000 0000 0000 4059 0000 0000 4000 408f     ......Y@.....@.@
   dd028:	0000 0000 8800 40c3 0000 0000 6a00 40f8     .......@.....j.@
   dd038:	0000 0000 8480 412e 0000 0000 12d0 4163     .......A......cA
   dd048:	0000 0000 d784 4197 0000 0000 cd65 41cd     .......A....e..A
   dd058:	0000 2000 a05f 4202 0000 e800 4876 4237     ... _..B....vH7B
   dd068:	0000 a200 1a94 426d 0000 e540 309c 42a2     ......mB..@..0.B
   dd078:	0000 1e90 bcc4 42d6 0000 2634 6bf5 430c     .......B..4&.k.C
   dd088:	8000 37e0 c379 4341 a000 85d8 3457 4376     ...7y.AC....W4vC
   dd098:	c800 674e c16d 43ab 3d00 6091 58e4 43e1     ..Ngm..C.=.`.X.C
   dd0a8:	8c40 78b5 af1d 4415 ef50 d6e2 1ae4 444b     @..x...DP.....KD
   dd0b8:	d592 064d f0cf 4480 4af6 c7e1 2d02 44b5     ..M....D.J...-.D
   dd0c8:	9db4 79d9 7843 44ea                         ...yCx.D

000dd0d0 <p05.7490>:
   dd0d0:	0005 0000 0019 0000 007d 0000               ........}...

000dd0dc <link_const_variable_data_end>:
   dd0dc:	000d47d1 	.word	0x000d47d1
   dd0e0:	000d5491 	.word	0x000d5491
   dd0e4:	000d5b45 	.word	0x000d5b45
   dd0e8:	000d6149 	.word	0x000d6149
   dd0ec:	000d683d 	.word	0x000d683d
   dd0f0:	000d68a1 	.word	0x000d68a1
   dd0f4:	000d7051 	.word	0x000d7051
   dd0f8:	000d7619 	.word	0x000d7619
   dd0fc:	000d7cc5 	.word	0x000d7cc5
   dd100:	000d7e2d 	.word	0x000d7e2d
   dd104:	000d7f15 	.word	0x000d7f15
   dd108:	000d81c1 	.word	0x000d81c1
   dd10c:	000d87a1 	.word	0x000d87a1
   dd110:	000d8fad 	.word	0x000d8fad

000dd114 <link_constructors_end>:
	...
